 BugSplat

 Timestamp is 57960d80 (Mon Jul 25 09:00:48 2016)

 Preferred load address is 10000000

 Start         Length     Name                   Class
 0001:00000000 000001e2H .text$di                CODE
 0001:000001f0 000355d0H .text$mn                CODE
 0001:000357c0 0000096bH .text$x                 CODE
 0001:0003612b 00000184H .text$yd                CODE
 0002:00000000 000002c4H .idata$5                DATA
 0002:000002c4 00000004H .CRT$XCA                DATA
 0002:000002c8 00000004H .CRT$XCL                DATA
 0002:000002cc 0000001cH .CRT$XCU                DATA
 0002:000002e8 00000004H .CRT$XCZ                DATA
 0002:000002ec 00000004H .CRT$XIA                DATA
 0002:000002f0 00000010H .CRT$XIC                DATA
 0002:00000300 00000004H .CRT$XIZ                DATA
 0002:00000304 00000004H .CRT$XPA                DATA
 0002:00000308 00000008H .CRT$XPX                DATA
 0002:00000310 00000004H .CRT$XPXA               DATA
 0002:00000314 00000004H .CRT$XPZ                DATA
 0002:00000318 00000004H .CRT$XTA                DATA
 0002:0000031c 00000004H .CRT$XTZ                DATA
 0002:00000320 00008e70H .rdata                  DATA
 0002:00009190 00000054H .rdata$debug            DATA
 0002:000091e4 00000a80H .rdata$r                DATA
 0002:00009c70 000000d8H .rdata$sxdata           DATA
 0002:00009d48 00000004H .rtc$IAA                DATA
 0002:00009d4c 00000004H .rtc$IZZ                DATA
 0002:00009d50 00000004H .rtc$TAA                DATA
 0002:00009d54 00000004H .rtc$TZZ                DATA
 0002:00009d58 0000182cH .xdata$x                DATA
 0002:0000b584 00000004H ATL$__a                 DATA
 0002:0000b588 00000004H ATL$__z                 DATA
 0002:0000b590 00000b0fH .edata                  DATA
 0002:0000c0a0 000000b4H .idata$2                DATA
 0002:0000c154 00000014H .idata$3                DATA
 0002:0000c168 000002c4H .idata$4                DATA
 0002:0000c42c 00000c24H .idata$6                DATA
 0003:00000000 00001460H .data                   DATA
 0003:00001460 000004aeH .data$r                 DATA
 0003:00001920 00004a7cH .bss                    DATA
 0004:00000000 00000118H .rsrc$01                DATA
 0004:00000120 00000b18H .rsrc$02                DATA

  Address         Publics by Value              Rva+Base       Lib:Object

 0000:00000000       ___guard_fids_table        00000000     <absolute>
 0000:00000000       ___guard_flags             00000000     <absolute>
 0000:00000000       ___guard_fids_count        00000000     <absolute>
 0000:00000000       __except_list              00000000     <absolute>
 0000:00000036       ___safe_se_handler_count   00000036     <absolute>
 0000:00000000       ___ImageBase               10000000     <linker-defined>
 0001:000001f0       ??0?$CSimpleArray@GV?$CSimpleArrayEqualHelper@G@ATL@@@ATL@@QAE@XZ 100011f0 f i BugSplatImp.obj
 0001:000001fd       ??0?$CTraceCategoryEx@$00$0A@@ATL@@QAE@PBD@Z 100011fd f i BugSplatImp.obj
 0001:00000202       ??0?$CTraceCategoryEx@$01$0A@@ATL@@QAE@PBD@Z 10001202 f i BugSplatImp.obj
 0001:00000207       ??0?$CTraceCategoryEx@$03$0A@@ATL@@QAE@PBD@Z 10001207 f i BugSplatImp.obj
 0001:0000020c       ??0?$CTraceCategoryEx@$07$0A@@ATL@@QAE@PBD@Z 1000120c f i BugSplatImp.obj
 0001:00000211       ??0?$CTraceCategoryEx@$0BA@$0A@@ATL@@QAE@PBD@Z 10001211 f i BugSplatImp.obj
 0001:00000216       ??0?$CTraceCategoryEx@$0BAA@$0A@@ATL@@QAE@PBD@Z 10001216 f i BugSplatImp.obj
 0001:0000021b       ??0?$CTraceCategoryEx@$0BAAA@$0A@@ATL@@QAE@PBD@Z 1000121b f i BugSplatImp.obj
 0001:00000220       ??0?$CTraceCategoryEx@$0BAAAA@$0A@@ATL@@QAE@PBD@Z 10001220 f i BugSplatImp.obj
 0001:00000225       ??0?$CTraceCategoryEx@$0BAAAAA@$0A@@ATL@@QAE@PBD@Z 10001225 f i BugSplatImp.obj
 0001:0000022a       ??0?$CTraceCategoryEx@$0CA@$0A@@ATL@@QAE@PBD@Z 1000122a f i BugSplatImp.obj
 0001:0000022f       ??0?$CTraceCategoryEx@$0CAA@$0A@@ATL@@QAE@PBD@Z 1000122f f i BugSplatImp.obj
 0001:00000234       ??0?$CTraceCategoryEx@$0CAAA@$0A@@ATL@@QAE@PBD@Z 10001234 f i BugSplatImp.obj
 0001:00000239       ??0?$CTraceCategoryEx@$0CAAAA@$0A@@ATL@@QAE@PBD@Z 10001239 f i BugSplatImp.obj
 0001:0000023e       ??0?$CTraceCategoryEx@$0CAAAAA@$0A@@ATL@@QAE@PBD@Z 1000123e f i BugSplatImp.obj
 0001:00000243       ??0?$CTraceCategoryEx@$0EA@$0A@@ATL@@QAE@PBD@Z 10001243 f i BugSplatImp.obj
 0001:00000248       ??0?$CTraceCategoryEx@$0EAA@$0A@@ATL@@QAE@PBD@Z 10001248 f i BugSplatImp.obj
 0001:0000024d       ??0?$CTraceCategoryEx@$0EAAA@$0A@@ATL@@QAE@PBD@Z 1000124d f i BugSplatImp.obj
 0001:00000252       ??0?$CTraceCategoryEx@$0EAAAA@$0A@@ATL@@QAE@PBD@Z 10001252 f i BugSplatImp.obj
 0001:00000257       ??0?$CTraceCategoryEx@$0EAAAAA@$0A@@ATL@@QAE@PBD@Z 10001257 f i BugSplatImp.obj
 0001:0000025c       ??0?$CTraceCategoryEx@$0IA@$0A@@ATL@@QAE@PBD@Z 1000125c f i BugSplatImp.obj
 0001:00000261       ??0?$CTraceCategoryEx@$0IAA@$0A@@ATL@@QAE@PBD@Z 10001261 f i BugSplatImp.obj
 0001:00000266       ??0?$CTraceCategoryEx@$0IAAA@$0A@@ATL@@QAE@PBD@Z 10001266 f i BugSplatImp.obj
 0001:0000026b       ??0?$CTraceCategoryEx@$0IAAAA@$0A@@ATL@@QAE@PBD@Z 1000126b f i BugSplatImp.obj
 0001:00000270       ??0BugSplatImp@@QAE@XZ     10001270 f   BugSplatImp.obj
 0001:0000028e       ??0CAtlComModule@ATL@@QAE@XZ 1000128e f i BugSplatImp.obj
 0001:000002cd       ??0CAtlWinModule@ATL@@QAE@XZ 100012cd f i BugSplatImp.obj
 0001:000002f3       ??0CComCriticalSection@ATL@@QAE@XZ 100012f3 f i BugSplatImp.obj
 0001:00000307       ??0CString@WTL@@QAE@ABV01@@Z 10001307 f i BugSplatImp.obj
 0001:0000033d       ??0CString@WTL@@QAE@PBD@Z  1000133d f i BugSplatImp.obj
 0001:00000396       ??0CString@WTL@@QAE@XZ     10001396 f i BugSplatImp.obj
 0001:000003a0       ??0CTraceCategory@ATL@@QAE@PBD@Z 100013a0 f i BugSplatImp.obj
 0001:000003a5       ??0MiniDmpSender@@QAE@ABV0@@Z 100013a5 f i BugSplatImp.obj
 0001:000003bd       ??0_ATL_COM_MODULE70@ATL@@QAE@XZ 100013bd f i BugSplatImp.obj
 0001:000003d4       ??0_ATL_WIN_MODULE70@ATL@@QAE@XZ 100013d4 f i BugSplatImp.obj
 0001:000003f7       ??1?$CSimpleArray@GV?$CSimpleArrayEqualHelper@G@ATL@@@ATL@@QAE@XZ 100013f7 f i BugSplatImp.obj
 0001:000003fc       ??1CAtlComModule@ATL@@QAE@XZ 100013fc f i BugSplatImp.obj
 0001:00000401       ??1CAtlWinModule@ATL@@QAE@XZ 10001401 f i BugSplatImp.obj
 0001:00000419       ??1CComBSTR@ATL@@QAE@XZ    10001419 f i BugSplatImp.obj
 0001:00000422       ??1CComCriticalSection@ATL@@QAE@XZ 10001422 f i BugSplatImp.obj
 0001:00000423       ??1CString@WTL@@QAE@XZ     10001423 f i BugSplatImp.obj
 0001:0000044c       ??1_ATL_COM_MODULE70@ATL@@QAE@XZ 1000144c f i BugSplatImp.obj
 0001:0000044d       ??1_ATL_WIN_MODULE70@ATL@@QAE@XZ 1000144d f i BugSplatImp.obj
 0001:00000455       ??1stringdispid@CComTypeInfoHolder@ATL@@QAE@XZ 10001455 f i BugSplatImp.obj
 0001:0000045e       ??4BugSplatImp@@QAEAAV0@ABV0@@Z 1000145e f i BugSplatImp.obj
 0001:0000047c       ??4CString@WTL@@QAEAAV01@ABV01@@Z 1000147c f i BugSplatImp.obj
 0001:000004cf       ??4CString@WTL@@QAEAAV01@PBD@Z 100014cf f i BugSplatImp.obj
 0001:000004fa       ??4CString@WTL@@QAEAAV01@PBE@Z 100014fa f i BugSplatImp.obj
 0001:0000050f       ??4MiniDmpSender@@QAEAAV0@ABV0@@Z 1000150f f i BugSplatImp.obj
 0001:00000521       ??A?$CSimpleArray@GV?$CSimpleArrayEqualHelper@G@ATL@@@ATL@@QAEAAGH@Z 10001521 f i BugSplatImp.obj
 0001:0000054b       ??ACString@WTL@@QBEDH@Z    1000154b f i BugSplatImp.obj
 0001:0000055a       ??BCString@WTL@@QBEPBDXZ   1000155a f i BugSplatImp.obj
 0001:0000055d       ??HWTL@@YG?AVCString@0@ABV10@0@Z 1000155d f i BugSplatImp.obj
 0001:000005a5       ??YCString@WTL@@QAEAAV01@D@Z 100015a5 f i BugSplatImp.obj
 0001:000005bd       ??YCString@WTL@@QAEAAV01@PBD@Z 100015bd f i BugSplatImp.obj
 0001:000005e8       ??_EMiniDmpSender@@UAEPAXI@Z 100015e8 f i BugSplatImp.obj
 0001:00000632       ??_Estringdispid@CComTypeInfoHolder@ATL@@QAEPAXI@Z 10001632 f i BugSplatImp.obj
 0001:0000067f       ??_GMiniDmpSender@@UAEPAXI@Z 1000167f f i BugSplatImp.obj
 0001:0000069e       ?AllocBeforeWrite@CString@WTL@@IAEHH@Z 1000169e f i BugSplatImp.obj
 0001:000006cc       ?AllocBuffer@CString@WTL@@IAEHH@Z 100016cc f i BugSplatImp.obj
 0001:00000735       ?AllocCopy@CString@WTL@@IBEHAAV12@HHH@Z 10001735 f i BugSplatImp.obj
 0001:0000078d       ?AssignCopy@CString@WTL@@IAEXHPBD@Z 1000178d f i BugSplatImp.obj
 0001:000007c0       ?AtlWinModuleInit@ATL@@YGJPAU_ATL_WIN_MODULE70@1@@Z 100017c0 f i BugSplatImp.obj
 0001:000007e6       ?AtlWinModuleTerm@ATL@@YGJPAU_ATL_WIN_MODULE70@1@PAUHINSTANCE__@@@Z 100017e6 f i BugSplatImp.obj
 0001:00000845       ?CalculateBeginningOfCallInstruction@@YAHAAI@Z 10001845 f   BugSplatImp.obj
 0001:00000890       ?ConcatCopy@CString@WTL@@IAEHHPBDH0@Z 10001890 f i BugSplatImp.obj
 0001:000008e9       ?ConcatInPlace@CString@WTL@@IAEXHPBD@Z 100018e9 f i BugSplatImp.obj
 0001:0000094d       ?CopyBeforeWrite@CString@WTL@@IAEXXZ 1000194d f i BugSplatImp.obj
 0001:0000097f       ?CreateMiniDump@BugSplatImp@@QAEHPAUHINSTANCE__@@KPAXKPAU_EXCEPTION_POINTERS@@PBDPADK@Z 1000197f f   BugSplatImp.obj
 0001:00000b6b       ?CreateMiniDumpFromSnap@@YAHPAXKKP6GH0K0W4_MINIDUMP_TYPE@@QAU_MINIDUMP_EXCEPTION_INFORMATION@@QAU_MINIDUMP_USER_STREAM_INFORMATION@@QAU_MINIDUMP_CALLBACK_INFORMATION@@@Z0PAU_CONTEXT@@@Z 10001b6b f   BugSplatImp.obj
 0001:00000cbf       ?Find@CString@WTL@@QBEHPBD@Z 10001cbf f i BugSplatImp.obj
 0001:00000cd0       ?Find@CString@WTL@@QBEHPBDH@Z 10001cd0 f i BugSplatImp.obj
 0001:00000d01       ?GetBuffer@CString@WTL@@QAEPADH@Z 10001d01 f i BugSplatImp.obj
 0001:00000d55       ?GetData@CString@WTL@@IBEPAUCStringData@2@XZ 10001d55 f i BugSplatImp.obj
 0001:00000d5b       ?GetLength@CString@WTL@@QBEHXZ 10001d5b f i BugSplatImp.obj
 0001:00000d61       ?GetModuleInstance@CAtlBaseModule@ATL@@QAEPAUHINSTANCE__@@XZ 10001d61 f i BugSplatImp.obj
 0001:00000d65       ?GetReducedGuid@BugSplatImp@@QAEXPADK@Z 10001d65 f   BugSplatImp.obj
 0001:00000ddd       ?GetResourceInstance@CAtlBaseModule@ATL@@QAEPAUHINSTANCE__@@XZ 10001ddd f i BugSplatImp.obj
 0001:00000de1       ?GetSize@?$CSimpleArray@GV?$CSimpleArrayEqualHelper@G@ATL@@@ATL@@QBEHXZ 10001de1 f i BugSplatImp.obj
 0001:00000de5       ?Init@CComCriticalSection@ATL@@QAEJXZ 10001de5 f i BugSplatImp.obj
 0001:00000e0c       ?Init@CString@WTL@@IAEXXZ  10001e0c f i BugSplatImp.obj
 0001:00000e14       ?Left@CString@WTL@@QBE?AV12@H@Z 10001e14 f i BugSplatImp.obj
 0001:00000e60       ?LoadStringA@CString@WTL@@QAEHI@Z 10001e60 f i BugSplatImp.obj
 0001:00000f00       ?MakeUpper@CString@WTL@@QAEXXZ 10001f00 f i BugSplatImp.obj
 0001:00000f12       ?Mid@CString@WTL@@QBE?AV12@H@Z 10001f12 f i BugSplatImp.obj
 0001:00000f37       ?Mid@CString@WTL@@QBE?AV12@HH@Z 10001f37 f i BugSplatImp.obj
 0001:00000f9d       ?ReduceGuidString@BugSplatImp@@QAEXPADK@Z 10001f9d f   BugSplatImp.obj
 0001:00001278       ?Release@CString@WTL@@IAEXXZ 10002278 f i BugSplatImp.obj
 0001:000012ac       ?Release@CString@WTL@@KGXPAUCStringData@2@@Z 100022ac f i BugSplatImp.obj
 0001:000012d1       ?ReleaseBuffer@CString@WTL@@QAEXH@Z 100022d1 f i BugSplatImp.obj
 0001:000012fc       ?RemoveAll@?$CSimpleArray@GV?$CSimpleArrayEqualHelper@G@ATL@@@ATL@@QAEXXZ 100022fc f i BugSplatImp.obj
 0001:00001319       ?ResumeSuspendedThreads@BugSplatImp@@QAEXXZ 10002319 f   BugSplatImp.obj
 0001:0000134f       ?SafeStrlen@CString@WTL@@KGHPBD@Z 1000234f f i BugSplatImp.obj
 0001:00001365       ?SnapCurrentProcessMinidump@@YAHPAXKKP6GH0K0W4_MINIDUMP_TYPE@@QAU_MINIDUMP_EXCEPTION_INFORMATION@@QAU_MINIDUMP_USER_STREAM_INFORMATION@@QAU_MINIDUMP_CALLBACK_INFORMATION@@@Z0@Z 10002365 f   BugSplatImp.obj
 0001:00001528       ?SuspendAllThreadsInProcess@BugSplatImp@@QAEXPAX@Z 10002528 f   BugSplatImp.obj
 0001:000015d4       ?SuspendThreadsInCurrentProcess@BugSplatImp@@QAEXXZ 100025d4 f   BugSplatImp.obj
 0001:00001694       ?TCHARtoUINT@@YAID@Z       10002694 f   BugSplatImp.obj
 0001:000016bc       ?Term@CAtlComModule@ATL@@QAEXXZ 100026bc f i BugSplatImp.obj
 0001:00001706       ?Term@CAtlWinModule@ATL@@QAEXXZ 10002706 f i BugSplatImp.obj
 0001:00001713       ?Term@CComCriticalSection@ATL@@QAEJXZ 10002713 f i BugSplatImp.obj
 0001:0000171d       ?UINTtoTCHAR@@YADI@Z       1000271d f   BugSplatImp.obj
 0001:00001740       ?_AtlInitializeCriticalSectionEx@ATL@@YAHPAU_RTL_CRITICAL_SECTION@@KK@Z 10002740 f i BugSplatImp.obj
 0001:00001751       ?_AtlRaiseException@ATL@@YAXKK@Z 10002751 f i BugSplatImp.obj
 0001:00001766       ?_GetEmptyString@CString@WTL@@KGABV12@XZ 10002766 f i BugSplatImp.obj
 0001:0000176c       ?_LoadString@CString@WTL@@KGHIPADI@Z 1000276c f i BugSplatImp.obj
 0001:00001791       ?_cstrstr@CString@WTL@@KAPBDPBD0@Z 10002791 f i BugSplatImp.obj
 0001:0000179a       ?combine1_4@@YAIII@Z       1000279a f   BugSplatImp.obj
 0001:000017ab       ?combine2_3@@YAIII@Z       100027ab f   BugSplatImp.obj
 0001:000017c0       ?combine3_2@@YAIII@Z       100027c0 f   BugSplatImp.obj
 0001:000017d6       ?combine4_1@@YAIII@Z       100027d6 f   BugSplatImp.obj
 0001:000017e8       ?combineLast3@@YAII@Z      100027e8 f   BugSplatImp.obj
 0001:000017f3       ?createReportAndExit@MiniDmpSender@@QAEXXZ 100027f3 f i BugSplatImp.obj
 0001:0000181d       ?data@CStringData@WTL@@QAEPADXZ 1000281d f i BugSplatImp.obj
 0001:00001821       _HRESULT_FROM_WIN32        10002821 f i BugSplatImp.obj
 0001:00001836       __tcsstr                   10002836 f i BugSplatImp.obj
 0001:0000183f       ??$_Allocate@U__GENERIC_HTTP_ARGUMENT@GenericHTTPClient@@@std@@YAPAU__GENERIC_HTTP_ARGUMENT@GenericHTTPClient@@IPAU12@@Z 1000283f f i GenericHTTPClientA.obj
 0001:0000186e       ??$_Destroy_range@U?$_Wrap_alloc@V?$allocator@U__GENERIC_HTTP_ARGUMENT@GenericHTTPClient@@@std@@@std@@@std@@YAXPAU__GENERIC_HTTP_ARGUMENT@GenericHTTPClient@@0AAU?$_Wrap_alloc@V?$allocator@U__GENERIC_HTTP_ARGUMENT@GenericHTTPClient@@@std@@@0@@Z 1000286e f i GenericHTTPClientA.obj
 0001:0000186f       ??$_Destroy_range@U?$_Wrap_alloc@V?$allocator@U__GENERIC_HTTP_ARGUMENT@GenericHTTPClient@@@std@@@std@@@std@@YAXPAU__GENERIC_HTTP_ARGUMENT@GenericHTTPClient@@0AAU?$_Wrap_alloc@V?$allocator@U__GENERIC_HTTP_ARGUMENT@GenericHTTPClient@@@std@@@0@U_Nonscalar_ptr_iterator_tag@0@@Z 1000286f f i GenericHTTPClientA.obj
 0001:00001870       ??$_Ptr_cat@U__GENERIC_HTTP_ARGUMENT@GenericHTTPClient@@U12@@std@@YA?AU_Nonscalar_ptr_iterator_tag@0@PAU__GENERIC_HTTP_ARGUMENT@GenericHTTPClient@@0@Z 10002870 f i GenericHTTPClientA.obj
 0001:0000187b       ??$_Rechecked@PAU__GENERIC_HTTP_ARGUMENT@GenericHTTPClient@@PAU12@@std@@YAAAPAU__GENERIC_HTTP_ARGUMENT@GenericHTTPClient@@AAPAU12@PAU12@@Z 1000287b f i GenericHTTPClientA.obj
 0001:00001888       ??$_Umove@PAU__GENERIC_HTTP_ARGUMENT@GenericHTTPClient@@@?$vector@U__GENERIC_HTTP_ARGUMENT@GenericHTTPClient@@V?$allocator@U__GENERIC_HTTP_ARGUMENT@GenericHTTPClient@@@std@@@std@@IAEPAU__GENERIC_HTTP_ARGUMENT@GenericHTTPClient@@PAU23@00@Z 10002888 f i GenericHTTPClientA.obj
 0001:000018ac       ??$_Unchecked@PAU__GENERIC_HTTP_ARGUMENT@GenericHTTPClient@@@std@@YAPAU__GENERIC_HTTP_ARGUMENT@GenericHTTPClient@@PAU12@@Z 100028ac f i GenericHTTPClientA.obj
 0001:000018b4       ??$_Uninit_move@PAU__GENERIC_HTTP_ARGUMENT@GenericHTTPClient@@PAU12@U?$_Wrap_alloc@V?$allocator@U__GENERIC_HTTP_ARGUMENT@GenericHTTPClient@@@std@@@std@@@std@@YAPAU__GENERIC_HTTP_ARGUMENT@GenericHTTPClient@@PAU12@00AAU?$_Wrap_alloc@V?$allocator@U__GENERIC_HTTP_ARGUMENT@GenericHTTPClient@@@std@@@0@@Z 100028b4 f i GenericHTTPClientA.obj
 0001:000018d5       ??$_Uninit_move@PAU__GENERIC_HTTP_ARGUMENT@GenericHTTPClient@@PAU12@V?$allocator@U__GENERIC_HTTP_ARGUMENT@GenericHTTPClient@@@std@@U12@@std@@YAPAU__GENERIC_HTTP_ARGUMENT@GenericHTTPClient@@PAU12@00AAU?$_Wrap_alloc@V?$allocator@U__GENERIC_HTTP_ARGUMENT@GenericHTTPClient@@@std@@@0@0U_Nonscalar_ptr_iterator_tag@0@@Z 100028d5 f i GenericHTTPClientA.obj
 0001:00001908       ??$_Uninitialized_move@PAU__GENERIC_HTTP_ARGUMENT@GenericHTTPClient@@PAU12@U?$_Wrap_alloc@V?$allocator@U__GENERIC_HTTP_ARGUMENT@GenericHTTPClient@@@std@@@std@@@std@@YAPAU__GENERIC_HTTP_ARGUMENT@GenericHTTPClient@@PAU12@00AAU?$_Wrap_alloc@V?$allocator@U__GENERIC_HTTP_ARGUMENT@GenericHTTPClient@@@std@@@0@@Z 10002908 f i GenericHTTPClientA.obj
 0001:00001911       ??$_Val_type@PAU__GENERIC_HTTP_ARGUMENT@GenericHTTPClient@@@std@@YAPAU__GENERIC_HTTP_ARGUMENT@GenericHTTPClient@@PAU12@@Z 10002911 f i GenericHTTPClientA.obj
 0001:00001914       ??$addressof@$$CBU__GENERIC_HTTP_ARGUMENT@GenericHTTPClient@@@std@@YAPBU__GENERIC_HTTP_ARGUMENT@GenericHTTPClient@@ABU12@@Z 10002914 f i GenericHTTPClientA.obj
 0001:0000191c       ??$addressof@U__GENERIC_HTTP_ARGUMENT@GenericHTTPClient@@@std@@YAPAU__GENERIC_HTTP_ARGUMENT@GenericHTTPClient@@AAU12@@Z 1000291c f i GenericHTTPClientA.obj
 0001:00001924       ??$construct@U__GENERIC_HTTP_ARGUMENT@GenericHTTPClient@@AAU12@@?$_Wrap_alloc@V?$allocator@U__GENERIC_HTTP_ARGUMENT@GenericHTTPClient@@@std@@@std@@QAEXPAU__GENERIC_HTTP_ARGUMENT@GenericHTTPClient@@AAU23@@Z 10002924 f i GenericHTTPClientA.obj
 0001:00001940       ??$construct@U__GENERIC_HTTP_ARGUMENT@GenericHTTPClient@@AAU12@@?$allocator@U__GENERIC_HTTP_ARGUMENT@GenericHTTPClient@@@std@@QAEXPAU__GENERIC_HTTP_ARGUMENT@GenericHTTPClient@@AAU23@@Z 10002940 f i GenericHTTPClientA.obj
 0001:0000195c       ??$construct@U__GENERIC_HTTP_ARGUMENT@GenericHTTPClient@@AAU12@@?$allocator_traits@V?$allocator@U__GENERIC_HTTP_ARGUMENT@GenericHTTPClient@@@std@@@std@@SAXAAV?$allocator@U__GENERIC_HTTP_ARGUMENT@GenericHTTPClient@@@1@PAU__GENERIC_HTTP_ARGUMENT@GenericHTTPClient@@AAU34@@Z 1000295c f i GenericHTTPClientA.obj
 0001:00001976       ??$construct@U__GENERIC_HTTP_ARGUMENT@GenericHTTPClient@@ABU12@@?$_Wrap_alloc@V?$allocator@U__GENERIC_HTTP_ARGUMENT@GenericHTTPClient@@@std@@@std@@QAEXPAU__GENERIC_HTTP_ARGUMENT@GenericHTTPClient@@ABU23@@Z 10002976 f i GenericHTTPClientA.obj
 0001:00001992       ??$construct@U__GENERIC_HTTP_ARGUMENT@GenericHTTPClient@@ABU12@@?$allocator_traits@V?$allocator@U__GENERIC_HTTP_ARGUMENT@GenericHTTPClient@@@std@@@std@@SAXAAV?$allocator@U__GENERIC_HTTP_ARGUMENT@GenericHTTPClient@@@1@PAU__GENERIC_HTTP_ARGUMENT@GenericHTTPClient@@ABU34@@Z 10002992 f i GenericHTTPClientA.obj
 0001:000019ac       ??$construct@U__GENERIC_HTTP_ARGUMENT@GenericHTTPClient@@U12@@?$_Wrap_alloc@V?$allocator@U__GENERIC_HTTP_ARGUMENT@GenericHTTPClient@@@std@@@std@@QAEXPAU__GENERIC_HTTP_ARGUMENT@GenericHTTPClient@@$$QAU23@@Z 100029ac f i GenericHTTPClientA.obj
 0001:000019c8       ??$construct@U__GENERIC_HTTP_ARGUMENT@GenericHTTPClient@@U12@@?$allocator@U__GENERIC_HTTP_ARGUMENT@GenericHTTPClient@@@std@@QAEXPAU__GENERIC_HTTP_ARGUMENT@GenericHTTPClient@@$$QAU23@@Z 100029c8 f i GenericHTTPClientA.obj
 0001:000019e4       ??$construct@U__GENERIC_HTTP_ARGUMENT@GenericHTTPClient@@U12@@?$allocator_traits@V?$allocator@U__GENERIC_HTTP_ARGUMENT@GenericHTTPClient@@@std@@@std@@SAXAAV?$allocator@U__GENERIC_HTTP_ARGUMENT@GenericHTTPClient@@@1@PAU__GENERIC_HTTP_ARGUMENT@GenericHTTPClient@@$$QAU34@@Z 100029e4 f i GenericHTTPClientA.obj
 0001:000019fe       ??$destroy@U__GENERIC_HTTP_ARGUMENT@GenericHTTPClient@@@?$_Wrap_alloc@V?$allocator@U__GENERIC_HTTP_ARGUMENT@GenericHTTPClient@@@std@@@std@@QAEXPAU__GENERIC_HTTP_ARGUMENT@GenericHTTPClient@@@Z 100029fe f i GenericHTTPClientA.obj
 0001:00001a01       ??$destroy@U__GENERIC_HTTP_ARGUMENT@GenericHTTPClient@@@?$allocator@U__GENERIC_HTTP_ARGUMENT@GenericHTTPClient@@@std@@QAEXPAU__GENERIC_HTTP_ARGUMENT@GenericHTTPClient@@@Z 10002a01 f i GenericHTTPClientA.obj
 0001:00001a04       ??$destroy@U__GENERIC_HTTP_ARGUMENT@GenericHTTPClient@@@?$allocator_traits@V?$allocator@U__GENERIC_HTTP_ARGUMENT@GenericHTTPClient@@@std@@@std@@SAXAAV?$allocator@U__GENERIC_HTTP_ARGUMENT@GenericHTTPClient@@@1@PAU__GENERIC_HTTP_ARGUMENT@GenericHTTPClient@@@Z 10002a04 f i GenericHTTPClientA.obj
 0001:00001a05       ??$forward@AAU__GENERIC_HTTP_ARGUMENT@GenericHTTPClient@@@std@@YAAAU__GENERIC_HTTP_ARGUMENT@GenericHTTPClient@@AAU12@@Z 10002a05 f i GenericHTTPClientA.obj
 0001:00001a0d       ??$forward@ABU__GENERIC_HTTP_ARGUMENT@GenericHTTPClient@@@std@@YAABU__GENERIC_HTTP_ARGUMENT@GenericHTTPClient@@ABU12@@Z 10002a0d f i GenericHTTPClientA.obj
 0001:00001a15       ??$forward@U__GENERIC_HTTP_ARGUMENT@GenericHTTPClient@@@std@@YA$$QAU__GENERIC_HTTP_ARGUMENT@GenericHTTPClient@@AAU12@@Z 10002a15 f i GenericHTTPClientA.obj
 0001:00001a1d       ??0?$_Vector_alloc@$0A@U?$_Vec_base_types@U__GENERIC_HTTP_ARGUMENT@GenericHTTPClient@@V?$allocator@U__GENERIC_HTTP_ARGUMENT@GenericHTTPClient@@@std@@@std@@@std@@QAE@ABV?$allocator@U__GENERIC_HTTP_ARGUMENT@GenericHTTPClient@@@1@@Z 10002a1d f i GenericHTTPClientA.obj
 0001:00001a2c       ??0?$_Vector_const_iterator@V?$_Vector_val@U?$_Simple_types@U__GENERIC_HTTP_ARGUMENT@GenericHTTPClient@@@std@@@std@@@std@@QAE@PAU__GENERIC_HTTP_ARGUMENT@GenericHTTPClient@@PBU_Container_base0@1@@Z 10002a2c f i GenericHTTPClientA.obj
 0001:00001a3a       ??0?$_Vector_const_iterator@V?$_Vector_val@U?$_Simple_types@U__GENERIC_HTTP_ARGUMENT@GenericHTTPClient@@@std@@@std@@@std@@QAE@XZ 10002a3a f i GenericHTTPClientA.obj
 0001:00001a40       ??0?$_Vector_iterator@V?$_Vector_val@U?$_Simple_types@U__GENERIC_HTTP_ARGUMENT@GenericHTTPClient@@@std@@@std@@@std@@QAE@PAU__GENERIC_HTTP_ARGUMENT@GenericHTTPClient@@PBU_Container_base0@1@@Z 10002a40 f i GenericHTTPClientA.obj
 0001:00001a4e       ??0?$_Vector_iterator@V?$_Vector_val@U?$_Simple_types@U__GENERIC_HTTP_ARGUMENT@GenericHTTPClient@@@std@@@std@@@std@@QAE@XZ 10002a4e f i GenericHTTPClientA.obj
 0001:00001a54       ??0?$_Vector_val@U?$_Simple_types@U__GENERIC_HTTP_ARGUMENT@GenericHTTPClient@@@std@@@std@@QAE@XZ 10002a54 f i GenericHTTPClientA.obj
 0001:00001a61       ??0?$_Wrap_alloc@V?$allocator@U__GENERIC_HTTP_ARGUMENT@GenericHTTPClient@@@std@@@std@@QAE@XZ 10002a61 f i GenericHTTPClientA.obj
 0001:00001a64       ??0?$allocator@U__GENERIC_HTTP_ARGUMENT@GenericHTTPClient@@@std@@QAE@XZ 10002a64 f i GenericHTTPClientA.obj
 0001:00001a67       ??0?$vector@U__GENERIC_HTTP_ARGUMENT@GenericHTTPClient@@V?$allocator@U__GENERIC_HTTP_ARGUMENT@GenericHTTPClient@@@std@@@std@@QAE@XZ 10002a67 f i GenericHTTPClientA.obj
 0001:00001a74       ??0GenericHTTPClient@@QAE@XZ 10002a74 f   GenericHTTPClientA.obj
 0001:00001a9a       ??1?$vector@U__GENERIC_HTTP_ARGUMENT@GenericHTTPClient@@V?$allocator@U__GENERIC_HTTP_ARGUMENT@GenericHTTPClient@@@std@@@std@@QAE@XZ 10002a9a f i GenericHTTPClientA.obj
 0001:00001a9f       ??1GenericHTTPClient@@UAE@XZ 10002a9f f   GenericHTTPClientA.obj
 0001:00001ac1       ??2@YAPAXIPAX@Z            10002ac1 f i GenericHTTPClientA.obj
 0001:00001ac9       ??3@YAXPAX0@Z              10002ac9 f i GenericHTTPClientA.obj
 0001:00001aca       ??C?$_Vector_iterator@V?$_Vector_val@U?$_Simple_types@U__GENERIC_HTTP_ARGUMENT@GenericHTTPClient@@@std@@@std@@@std@@QBEPAU__GENERIC_HTTP_ARGUMENT@GenericHTTPClient@@XZ 10002aca f i GenericHTTPClientA.obj
 0001:00001acd       ??D?$_Vector_const_iterator@V?$_Vector_val@U?$_Simple_types@U__GENERIC_HTTP_ARGUMENT@GenericHTTPClient@@@std@@@std@@@std@@QBEABU__GENERIC_HTTP_ARGUMENT@GenericHTTPClient@@XZ 10002acd f i GenericHTTPClientA.obj
 0001:00001ad0       ??D?$_Vector_iterator@V?$_Vector_val@U?$_Simple_types@U__GENERIC_HTTP_ARGUMENT@GenericHTTPClient@@@std@@@std@@@std@@QBEAAU__GENERIC_HTTP_ARGUMENT@GenericHTTPClient@@XZ 10002ad0 f i GenericHTTPClientA.obj
 0001:00001ad3       ??E?$_Vector_const_iterator@V?$_Vector_val@U?$_Simple_types@U__GENERIC_HTTP_ARGUMENT@GenericHTTPClient@@@std@@@std@@@std@@QAEAAV01@XZ 10002ad3 f i GenericHTTPClientA.obj
 0001:00001adc       ??E?$_Vector_iterator@V?$_Vector_val@U?$_Simple_types@U__GENERIC_HTTP_ARGUMENT@GenericHTTPClient@@@std@@@std@@@std@@QAEAAV01@XZ 10002adc f i GenericHTTPClientA.obj
 0001:00001ae5       ??M?$_Vector_const_iterator@V?$_Vector_val@U?$_Simple_types@U__GENERIC_HTTP_ARGUMENT@GenericHTTPClient@@@std@@@std@@@std@@QBE_NABV01@@Z 10002ae5 f i GenericHTTPClientA.obj
 0001:00001af7       ??_GGenericHTTPClient@@UAEPAXI@Z 10002af7 f i GenericHTTPClientA.obj
 0001:00001af7       ??_EGenericHTTPClient@@UAEPAXI@Z 10002af7 f i GenericHTTPClientA.obj
 0001:00001b16       ?AddPostArguments@GenericHTTPClient@@QAEXPBD0H@Z 10002b16 f   GenericHTTPClientA.obj
 0001:00001b9c       ?AddPostArguments@GenericHTTPClient@@QAEXPBDK@Z 10002b9c f   GenericHTTPClientA.obj
 0001:00001c1f       ?AllocMultiPartsFormData@GenericHTTPClient@@IAEKAAPAEPBD@Z 10002c1f f   GenericHTTPClientA.obj
 0001:00001f8a       ?Close@GenericHTTPClient@@QAEHXZ 10002f8a f   GenericHTTPClientA.obj
 0001:00001fc1       ?Connect@GenericHTTPClient@@QAEHPBD0G00@Z 10002fc1 f   GenericHTTPClientA.obj
 0001:000020e5       ?FreeMultiPartsFormData@GenericHTTPClient@@IAEXAAPAE@Z 100030e5 f   GenericHTTPClientA.obj
 0001:00002101       ?GetContentType@GenericHTTPClient@@QAEPBDPBD@Z 10003101 f   GenericHTTPClientA.obj
 0001:000021be       ?GetLastError@GenericHTTPClient@@QAEKXZ 100031be f   GenericHTTPClientA.obj
 0001:000021c5       ?GetMultiPartsFormDataLength@GenericHTTPClient@@IAEKXZ 100031c5 f   GenericHTTPClientA.obj
 0001:0000223d       ?GetPostArguments@GenericHTTPClient@@IAEKPADK@Z 1000323d f   GenericHTTPClientA.obj
 0001:000022df       ?GetSoapPacket@GenericHTTPClient@@QAEXPADK@Z 100032df f   GenericHTTPClientA.obj
 0001:00002309       ?InitilizePostArguments@GenericHTTPClient@@QAEXXZ 10003309 f   GenericHTTPClientA.obj
 0001:00002310       ?ParseURL@GenericHTTPClient@@QAEXPBDPADH1HAAK1H@Z 10003310 f   GenericHTTPClientA.obj
 0001:00002542       ?QueryHTTPResponse@GenericHTTPClient@@QAEPBDXZ 10003542 f   GenericHTTPClientA.obj
 0001:00002549       ?QueryHTTPResponseHeader@GenericHTTPClient@@QAEPBDXZ 10003549 f   GenericHTTPClientA.obj
 0001:00002550       ?Reconnect@GenericHTTPClient@@QAEHXZ 10003550 f   GenericHTTPClientA.obj
 0001:00002596       ?Request@GenericHTTPClient@@QAEHPBDH0K@Z 10003596 f   GenericHTTPClientA.obj
 0001:000026ed       ?RequestGet@GenericHTTPClient@@IAEHPBD@Z 100036ed f   GenericHTTPClientA.obj
 0001:00002797       ?RequestOfURI@GenericHTTPClient@@QAEHPBDH@Z 10003797 f   GenericHTTPClientA.obj
 0001:000027c8       ?RequestPost@GenericHTTPClient@@IAEHPBD@Z 100037c8 f   GenericHTTPClientA.obj
 0001:000028de       ?RequestPostMultiPartsFormData@GenericHTTPClient@@IAEHPBD@Z 100038de f   GenericHTTPClientA.obj
 0001:00002ae5       ?RequestSOAP@GenericHTTPClient@@IAEHPBD@Z 10003ae5 f   GenericHTTPClientA.obj
 0001:00002cbd       ?Response@GenericHTTPClient@@QAEHPAEK0KAAK@Z 10003cbd f   GenericHTTPClientA.obj
 0001:00002dd6       ?ResponseOfBytes@GenericHTTPClient@@IAEKPAEK@Z 10003dd6 f   GenericHTTPClientA.obj
 0001:00002e2a       ?SetSoapPacket@GenericHTTPClient@@QAEXPBD@Z 10003e2a f   GenericHTTPClientA.obj
 0001:00002e53       ?_Adopt@_Iterator_base0@std@@QAEXPBX@Z 10003e53 f i GenericHTTPClientA.obj
 0001:00002e56       ?_Compat@?$_Vector_const_iterator@V?$_Vector_val@U?$_Simple_types@U__GENERIC_HTTP_ARGUMENT@GenericHTTPClient@@@std@@@std@@@std@@QBEXABV12@@Z 10003e56 f i GenericHTTPClientA.obj
 0001:00002e59       ?_Destroy@?$vector@U__GENERIC_HTTP_ARGUMENT@GenericHTTPClient@@V?$allocator@U__GENERIC_HTTP_ARGUMENT@GenericHTTPClient@@@std@@@std@@IAEXPAU__GENERIC_HTTP_ARGUMENT@GenericHTTPClient@@0@Z 10003e59 f i GenericHTTPClientA.obj
 0001:00002e5c       ?_Getal@?$_Vector_alloc@$0A@U?$_Vec_base_types@U__GENERIC_HTTP_ARGUMENT@GenericHTTPClient@@V?$allocator@U__GENERIC_HTTP_ARGUMENT@GenericHTTPClient@@@std@@@std@@@std@@QBE?AU?$_Wrap_alloc@V?$allocator@U__GENERIC_HTTP_ARGUMENT@GenericHTTPClient@@@std@@@2@XZ 10003e5c f i GenericHTTPClientA.obj
 0001:00002e66       ?_Grow_to@?$vector@U__GENERIC_HTTP_ARGUMENT@GenericHTTPClient@@V?$allocator@U__GENERIC_HTTP_ARGUMENT@GenericHTTPClient@@@std@@@std@@IBEII@Z 10003e66 f i GenericHTTPClientA.obj
 0001:00002e9a       ?_Inside@?$vector@U__GENERIC_HTTP_ARGUMENT@GenericHTTPClient@@V?$allocator@U__GENERIC_HTTP_ARGUMENT@GenericHTTPClient@@@std@@@std@@IBE_NPBU__GENERIC_HTTP_ARGUMENT@GenericHTTPClient@@@Z 10003e9a f i GenericHTTPClientA.obj
 0001:00002eb4       ?_Orphan_all@_Container_base0@std@@QAEXXZ 10003eb4 f i GenericHTTPClientA.obj
 0001:00002eb5       ?_Orphan_range@?$vector@U__GENERIC_HTTP_ARGUMENT@GenericHTTPClient@@V?$allocator@U__GENERIC_HTTP_ARGUMENT@GenericHTTPClient@@@std@@@std@@IBEXPAU__GENERIC_HTTP_ARGUMENT@GenericHTTPClient@@0@Z 10003eb5 f i GenericHTTPClientA.obj
 0001:00002eb8       ?_Reallocate@?$vector@U__GENERIC_HTTP_ARGUMENT@GenericHTTPClient@@V?$allocator@U__GENERIC_HTTP_ARGUMENT@GenericHTTPClient@@@std@@@std@@IAEXI@Z 10003eb8 f i GenericHTTPClientA.obj
 0001:00002f3c       ?_Reserve@?$vector@U__GENERIC_HTTP_ARGUMENT@GenericHTTPClient@@V?$allocator@U__GENERIC_HTTP_ARGUMENT@GenericHTTPClient@@@std@@@std@@IAEXI@Z 10003f3c f i GenericHTTPClientA.obj
 0001:00002f91       ?_Tidy@?$vector@U__GENERIC_HTTP_ARGUMENT@GenericHTTPClient@@V?$allocator@U__GENERIC_HTTP_ARGUMENT@GenericHTTPClient@@@std@@@std@@IAEXXZ 10003f91 f i GenericHTTPClientA.obj
 0001:00002fad       ?_Unused_capacity@?$vector@U__GENERIC_HTTP_ARGUMENT@GenericHTTPClient@@V?$allocator@U__GENERIC_HTTP_ARGUMENT@GenericHTTPClient@@@std@@@std@@QBEIXZ 10003fad f i GenericHTTPClientA.obj
 0001:00002fbc       ?_Xlen@?$vector@U__GENERIC_HTTP_ARGUMENT@GenericHTTPClient@@V?$allocator@U__GENERIC_HTTP_ARGUMENT@GenericHTTPClient@@@std@@@std@@IBEXXZ 10003fbc f i GenericHTTPClientA.obj
 0001:00002fc7       ?allocate@?$_Wrap_alloc@V?$allocator@U__GENERIC_HTTP_ARGUMENT@GenericHTTPClient@@@std@@@std@@QAEPAU__GENERIC_HTTP_ARGUMENT@GenericHTTPClient@@I@Z 10003fc7 f i GenericHTTPClientA.obj
 0001:00002fda       ?allocate@?$allocator@U__GENERIC_HTTP_ARGUMENT@GenericHTTPClient@@@std@@QAEPAU__GENERIC_HTTP_ARGUMENT@GenericHTTPClient@@I@Z 10003fda f i GenericHTTPClientA.obj
 0001:00002fed       ?begin@?$vector@U__GENERIC_HTTP_ARGUMENT@GenericHTTPClient@@V?$allocator@U__GENERIC_HTTP_ARGUMENT@GenericHTTPClient@@@std@@@std@@QAE?AV?$_Vector_iterator@V?$_Vector_val@U?$_Simple_types@U__GENERIC_HTTP_ARGUMENT@GenericHTTPClient@@@std@@@std@@@2@XZ 10003fed f i GenericHTTPClientA.obj
 0001:00002ffb       ?capacity@?$vector@U__GENERIC_HTTP_ARGUMENT@GenericHTTPClient@@V?$allocator@U__GENERIC_HTTP_ARGUMENT@GenericHTTPClient@@@std@@@std@@QBEIXZ 10003ffb f i GenericHTTPClientA.obj
 0001:00003009       ?clear@?$vector@U__GENERIC_HTTP_ARGUMENT@GenericHTTPClient@@V?$allocator@U__GENERIC_HTTP_ARGUMENT@GenericHTTPClient@@@std@@@std@@QAEXXZ 10004009 f i GenericHTTPClientA.obj
 0001:0000300f       ?construct@?$allocator@U__GENERIC_HTTP_ARGUMENT@GenericHTTPClient@@@std@@QAEXPAU__GENERIC_HTTP_ARGUMENT@GenericHTTPClient@@ABU34@@Z 1000400f f i GenericHTTPClientA.obj
 0001:0000302b       ?deallocate@?$_Wrap_alloc@V?$allocator@U__GENERIC_HTTP_ARGUMENT@GenericHTTPClient@@@std@@@std@@QAEXPAU__GENERIC_HTTP_ARGUMENT@GenericHTTPClient@@I@Z 1000402b f i GenericHTTPClientA.obj
 0001:0000303b       ?deallocate@?$allocator@U__GENERIC_HTTP_ARGUMENT@GenericHTTPClient@@@std@@QAEXPAU__GENERIC_HTTP_ARGUMENT@GenericHTTPClient@@I@Z 1000403b f i GenericHTTPClientA.obj
 0001:0000304b       ?end@?$vector@U__GENERIC_HTTP_ARGUMENT@GenericHTTPClient@@V?$allocator@U__GENERIC_HTTP_ARGUMENT@GenericHTTPClient@@@std@@@std@@QAE?AV?$_Vector_iterator@V?$_Vector_val@U?$_Simple_types@U__GENERIC_HTTP_ARGUMENT@GenericHTTPClient@@@std@@@std@@@2@XZ 1000404b f i GenericHTTPClientA.obj
 0001:0000305a       ?max_size@?$_Wrap_alloc@V?$allocator@U__GENERIC_HTTP_ARGUMENT@GenericHTTPClient@@@std@@@std@@QBEIXZ 1000405a f i GenericHTTPClientA.obj
 0001:00003060       ?max_size@?$allocator@U__GENERIC_HTTP_ARGUMENT@GenericHTTPClient@@@std@@QBEIXZ 10004060 f i GenericHTTPClientA.obj
 0001:00003066       ?max_size@?$allocator_traits@V?$allocator@U__GENERIC_HTTP_ARGUMENT@GenericHTTPClient@@@std@@@std@@SAIABV?$allocator@U__GENERIC_HTTP_ARGUMENT@GenericHTTPClient@@@2@@Z 10004066 f i GenericHTTPClientA.obj
 0001:0000306c       ?max_size@?$vector@U__GENERIC_HTTP_ARGUMENT@GenericHTTPClient@@V?$allocator@U__GENERIC_HTTP_ARGUMENT@GenericHTTPClient@@@std@@@std@@QBEIXZ 1000406c f i GenericHTTPClientA.obj
 0001:00003072       ?pointer_to@?$pointer_traits@PAU__GENERIC_HTTP_ARGUMENT@GenericHTTPClient@@@std@@SAPAU__GENERIC_HTTP_ARGUMENT@GenericHTTPClient@@AAU34@@Z 10004072 f i GenericHTTPClientA.obj
 0001:0000307a       ?push_back@?$vector@U__GENERIC_HTTP_ARGUMENT@GenericHTTPClient@@V?$allocator@U__GENERIC_HTTP_ARGUMENT@GenericHTTPClient@@@std@@@std@@QAEXABU__GENERIC_HTTP_ARGUMENT@GenericHTTPClient@@@Z 1000407a f i GenericHTTPClientA.obj
 0001:000030e0       ?size@?$vector@U__GENERIC_HTTP_ARGUMENT@GenericHTTPClient@@V?$allocator@U__GENERIC_HTTP_ARGUMENT@GenericHTTPClient@@@std@@@std@@QBEIXZ 100040e0 f i GenericHTTPClientA.obj
 0001:000030ee       __tcscmp                   100040ee f i GenericHTTPClientA.obj
 0001:000030f7       __tcsncmp                  100040f7 f i GenericHTTPClientA.obj
 0001:00003100       __tcsncpy_s                10004100 f i GenericHTTPClientA.obj
 0001:00003109       _hypot                     10004109 f i GenericHTTPClientA.obj
 0001:0000312e       ??$_Allocate@D@std@@YAPADIPAD@Z 1000412e f i mdump.obj
 0001:00003155       ??$_Allocate@VCString@WTL@@@std@@YAPAVCString@WTL@@IPAV12@@Z 10004155 f i mdump.obj
 0001:00003181       ??$_Destroy_range@U?$_Wrap_alloc@V?$allocator@VCString@WTL@@@std@@@std@@@std@@YAXPAVCString@WTL@@0AAU?$_Wrap_alloc@V?$allocator@VCString@WTL@@@std@@@0@@Z 10004181 f i mdump.obj
 0001:0000319c       ??$_Destroy_range@U?$_Wrap_alloc@V?$allocator@VCString@WTL@@@std@@@std@@@std@@YAXPAVCString@WTL@@0AAU?$_Wrap_alloc@V?$allocator@VCString@WTL@@@std@@@0@U_Nonscalar_ptr_iterator_tag@0@@Z 1000419c f i mdump.obj
 0001:000031b7       ??$_Ptr_cat@VCString@WTL@@V12@@std@@YA?AU_Nonscalar_ptr_iterator_tag@0@PAVCString@WTL@@0@Z 100041b7 f i mdump.obj
 0001:000031c2       ??$_Rechecked@PAVCString@WTL@@PAV12@@std@@YAAAPAVCString@WTL@@AAPAV12@PAV12@@Z 100041c2 f i mdump.obj
 0001:000031cf       ??$_Umove@PAVCString@WTL@@@?$vector@VCString@WTL@@V?$allocator@VCString@WTL@@@std@@@std@@IAEPAVCString@WTL@@PAV23@00@Z 100041cf f i mdump.obj
 0001:000031f3       ??$_Unchecked@PAVCString@WTL@@@std@@YAPAVCString@WTL@@PAV12@@Z 100041f3 f i mdump.obj
 0001:000031fb       ??$_Uninit_move@PAVCString@WTL@@PAV12@U?$_Wrap_alloc@V?$allocator@VCString@WTL@@@std@@@std@@@std@@YAPAVCString@WTL@@PAV12@00AAU?$_Wrap_alloc@V?$allocator@VCString@WTL@@@std@@@0@@Z 100041fb f i mdump.obj
 0001:0000321c       ??$_Uninit_move@PAVCString@WTL@@PAV12@V?$allocator@VCString@WTL@@@std@@V12@@std@@YAPAVCString@WTL@@PAV12@00AAU?$_Wrap_alloc@V?$allocator@VCString@WTL@@@std@@@0@0U_Nonscalar_ptr_iterator_tag@0@@Z 1000421c f i mdump.obj
 0001:00003281       ??$_Uninitialized_move@PAVCString@WTL@@PAV12@U?$_Wrap_alloc@V?$allocator@VCString@WTL@@@std@@@std@@@std@@YAPAVCString@WTL@@PAV12@00AAU?$_Wrap_alloc@V?$allocator@VCString@WTL@@@std@@@0@@Z 10004281 f i mdump.obj
 0001:0000328a       ??$_Val_type@PAVCString@WTL@@@std@@YAPAVCString@WTL@@PAV12@@Z 1000428a f i mdump.obj
 0001:0000328d       ??$addressof@D@std@@YAPADAAD@Z 1000428d f i mdump.obj
 0001:00003295       ??$addressof@VCString@WTL@@@std@@YAPAVCString@WTL@@AAV12@@Z 10004295 f i mdump.obj
 0001:0000329d       ??$construct@PADAAPAD@?$_Wrap_alloc@V?$allocator@D@std@@@std@@QAEXPAPADAAPAD@Z 1000429d f i mdump.obj
 0001:000032b2       ??$construct@PADAAPAD@?$allocator@D@std@@QAEXPAPADAAPAD@Z 100042b2 f i mdump.obj
 0001:000032c7       ??$construct@PADAAPAD@?$allocator_traits@V?$allocator@D@std@@@std@@SAXAAV?$allocator@D@1@PAPADAAPAD@Z 100042c7 f i mdump.obj
 0001:000032da       ??$construct@VCString@WTL@@V12@@?$_Wrap_alloc@V?$allocator@VCString@WTL@@@std@@@std@@QAEXPAVCString@WTL@@$$QAV23@@Z 100042da f i mdump.obj
 0001:00003304       ??$construct@VCString@WTL@@V12@@?$allocator@VCString@WTL@@@std@@QAEXPAVCString@WTL@@$$QAV23@@Z 10004304 f i mdump.obj
 0001:0000332e       ??$construct@VCString@WTL@@V12@@?$allocator_traits@V?$allocator@VCString@WTL@@@std@@@std@@SAXAAV?$allocator@VCString@WTL@@@1@PAVCString@WTL@@$$QAV34@@Z 1000432e f i mdump.obj
 0001:00003356       ??$destroy@PAD@?$_Wrap_alloc@V?$allocator@D@std@@@std@@QAEXPAPAD@Z 10004356 f i mdump.obj
 0001:00003359       ??$destroy@PAD@?$allocator@D@std@@QAEXPAPAD@Z 10004359 f i mdump.obj
 0001:0000335c       ??$destroy@PAD@?$allocator_traits@V?$allocator@D@std@@@std@@SAXAAV?$allocator@D@1@PAPAD@Z 1000435c f i mdump.obj
 0001:0000335d       ??$destroy@VCString@WTL@@@?$_Wrap_alloc@V?$allocator@VCString@WTL@@@std@@@std@@QAEXPAVCString@WTL@@@Z 1000435d f i mdump.obj
 0001:0000336c       ??$destroy@VCString@WTL@@@?$allocator@VCString@WTL@@@std@@QAEXPAVCString@WTL@@@Z 1000436c f i mdump.obj
 0001:0000337b       ??$destroy@VCString@WTL@@@?$allocator_traits@V?$allocator@VCString@WTL@@@std@@@std@@SAXAAV?$allocator@VCString@WTL@@@1@PAVCString@WTL@@@Z 1000437b f i mdump.obj
 0001:00003387       ??$forward@AAPAD@std@@YAAAPADAAPAD@Z 10004387 f i mdump.obj
 0001:0000338f       ??$forward@VCString@WTL@@@std@@YA$$QAVCString@WTL@@AAV12@@Z 1000438f f i mdump.obj
 0001:00003397       ??0?$_String_alloc@$0A@U?$_String_base_types@DV?$allocator@D@std@@@std@@@std@@QAE@ABV?$allocator@D@1@@Z 10004397 f i mdump.obj
 0001:000033a4       ??0?$_String_val@U?$_Simple_types@D@std@@@std@@QAE@XZ 100043a4 f i mdump.obj
 0001:000033af       ??0?$_Vector_alloc@$0A@U?$_Vec_base_types@VCString@WTL@@V?$allocator@VCString@WTL@@@std@@@std@@@std@@QAE@ABV?$allocator@VCString@WTL@@@1@@Z 100043af f i mdump.obj
 0001:000033be       ??0?$_Vector_const_iterator@V?$_Vector_val@U?$_Simple_types@VCString@WTL@@@std@@@std@@@std@@QAE@PAVCString@WTL@@PBU_Container_base0@1@@Z 100043be f i mdump.obj
 0001:000033cc       ??0?$_Vector_iterator@V?$_Vector_val@U?$_Simple_types@VCString@WTL@@@std@@@std@@@std@@QAE@PAVCString@WTL@@PBU_Container_base0@1@@Z 100043cc f i mdump.obj
 0001:000033da       ??0?$_Vector_val@U?$_Simple_types@VCString@WTL@@@std@@@std@@QAE@XZ 100043da f i mdump.obj
 0001:000033e7       ??0?$_Wrap_alloc@V?$allocator@D@std@@@std@@QAE@XZ 100043e7 f i mdump.obj
 0001:000033ea       ??0?$_Wrap_alloc@V?$allocator@VCString@WTL@@@std@@@std@@QAE@XZ 100043ea f i mdump.obj
 0001:000033ed       ??0?$allocator@D@std@@QAE@XZ 100043ed f i mdump.obj
 0001:000033f0       ??0?$allocator@VCString@WTL@@@std@@QAE@XZ 100043f0 f i mdump.obj
 0001:000033f3       ??0?$basic_string@DU?$char_traits@D@std@@V?$allocator@D@2@@std@@QAE@PBD@Z 100043f3 f i mdump.obj
 0001:00003422       ??0?$vector@VCString@WTL@@V?$allocator@VCString@WTL@@@std@@@std@@QAE@XZ 10004422 f i mdump.obj
 0001:0000342f       ??0DumpData@@QAE@XZ        1000442f f i mdump.obj
 0001:00003442       ??0MiniDumper@@QAE@XZ      10004442 f   mdump.obj
 0001:000034b7       ??0ResourceSwitch@@QAE@PBD@Z 100044b7 f i mdump.obj
 0001:000034e2       ??0TotalUptimeAndCrashCalculator@@QAE@PBD00@Z 100044e2 f i mdump.obj
 0001:0000354f       ??0_Generic_error_category@std@@QAE@XZ 1000454f f i mdump.obj
 0001:00003558       ??0_Iostream_error_category@std@@QAE@XZ 10004558 f i mdump.obj
 0001:00003561       ??0_System_error_category@std@@QAE@XZ 10004561 f i mdump.obj
 0001:0000356a       ??0_U_STRINGorID@ATL@@QAE@PBD@Z 1000456a f i mdump.obj
 0001:00003578       ??0error_category@std@@QAE@XZ 10004578 f i mdump.obj
 0001:00003581       ??0error_condition@std@@QAE@HABVerror_category@1@@Z 10004581 f i mdump.obj
 0001:00003595       ??0id@locale@std@@QAE@I@Z  10004595 f i mdump.obj
 0001:000035a3       ??1?$basic_string@DU?$char_traits@D@std@@V?$allocator@D@2@@std@@QAE@XZ 100045a3 f i mdump.obj
 0001:000035ad       ??1?$vector@VCString@WTL@@V?$allocator@VCString@WTL@@@std@@@std@@QAE@XZ 100045ad f i mdump.obj
 0001:000035b2       ??1DumpData@@QAE@XZ        100045b2 f i mdump.obj
 0001:000035c6       ??1MiniDumper@@UAE@XZ      100045c6 f   mdump.obj
 0001:00003657       ??1ResourceSwitch@@QAE@XZ  10004657 f i mdump.obj
 0001:0000366a       ??1TotalUptimeAndCrashCalculator@@QAE@XZ 1000466a f i mdump.obj
 0001:000036b6       ??1_Generic_error_category@std@@UAE@XZ 100046b6 f i mdump.obj
 0001:000036bd       ??1_Iostream_error_category@std@@UAE@XZ 100046bd f i mdump.obj
 0001:000036c4       ??1_System_error_category@std@@UAE@XZ 100046c4 f i mdump.obj
 0001:000036cb       ??1error_category@std@@UAE@XZ 100046cb f i mdump.obj
 0001:000036d2       ??8error_category@std@@QBE_NABV01@@Z 100046d2 f i mdump.obj
 0001:000036e1       ??8error_condition@std@@QBE_NABV01@@Z 100046e1 f i mdump.obj
 0001:00003700       ??D?$_Vector_const_iterator@V?$_Vector_val@U?$_Simple_types@VCString@WTL@@@std@@@std@@@std@@QBEABVCString@WTL@@XZ 10004700 f i mdump.obj
 0001:00003703       ??D?$_Vector_iterator@V?$_Vector_val@U?$_Simple_types@VCString@WTL@@@std@@@std@@@std@@QBEAAVCString@WTL@@XZ 10004703 f i mdump.obj
 0001:00003706       ??E?$_Vector_const_iterator@V?$_Vector_val@U?$_Simple_types@VCString@WTL@@@std@@@std@@@std@@QAEAAV01@XZ 10004706 f i mdump.obj
 0001:0000370c       ??E?$_Vector_iterator@V?$_Vector_val@U?$_Simple_types@VCString@WTL@@@std@@@std@@@std@@QAEAAV01@XZ 1000470c f i mdump.obj
 0001:00003712       ??M?$_Vector_const_iterator@V?$_Vector_val@U?$_Simple_types@VCString@WTL@@@std@@@std@@@std@@QBE_NABV01@@Z 10004712 f i mdump.obj
 0001:00003724       ??YCString@WTL@@QAEAAV01@ABV01@@Z 10004724 f i mdump.obj
 0001:0000373f       ??_GCString@WTL@@QAEPAXI@Z 1000473f f i mdump.obj
 0001:0000375e       ??_GMiniDumper@@UAEPAXI@Z  1000475e f i mdump.obj
 0001:0000375e       ??_EMiniDumper@@UAEPAXI@Z  1000475e f i mdump.obj
 0001:0000377d       ??_GTotalUptimeAndCrashCalculator@@QAEPAXI@Z 1000477d f i mdump.obj
 0001:0000379c       ??_G_Generic_error_category@std@@UAEPAXI@Z 1000479c f i mdump.obj
 0001:0000379c       ??_E_Generic_error_category@std@@UAEPAXI@Z 1000479c f i mdump.obj
 0001:000037bc       ??_E_Iostream_error_category@std@@UAEPAXI@Z 100047bc f i mdump.obj
 0001:000037bc       ??_G_Iostream_error_category@std@@UAEPAXI@Z 100047bc f i mdump.obj
 0001:000037dc       ??_E_System_error_category@std@@UAEPAXI@Z 100047dc f i mdump.obj
 0001:000037dc       ??_G_System_error_category@std@@UAEPAXI@Z 100047dc f i mdump.obj
 0001:000037fc       ??_Eerror_category@std@@UAEPAXI@Z 100047fc f i mdump.obj
 0001:000037fc       ??_Gerror_category@std@@UAEPAXI@Z 100047fc f i mdump.obj
 0001:0000381c       ?AtlMessageBox@WTL@@YAHPAUHWND__@@V_U_STRINGorID@ATL@@1I@Z 1000481c f i mdump.obj
 0001:00003946       ?CreateReportThreaded@MiniDumper@@SGIPAX@Z 10004946 f   mdump.obj
 0001:00003b8a       ?ExceptionHandler@MiniDumper@@SGJPAU_EXCEPTION_POINTERS@@K@Z 10004b8a f   mdump.obj
 0001:00003e2f       ?Format@CString@WTL@@QAAHPBDZZ 10004e2f f i mdump.obj
 0001:00003e43       ?FormatMessageA@CString@WTL@@QAAHIZZ 10004e43 f i mdump.obj
 0001:00003ebb       ?FormatV@CString@WTL@@QAEHPBDPAD@Z 10004ebb f i mdump.obj
 0001:000041af       ?GetMFA@MiniDumper@@SA_NPAXPADH@Z 100051af f   mdump.obj
 0001:000042d1       ?GetModuleInstance@CComModule@ATL@@QAEPAUHINSTANCE__@@XZ 100052d1 f i mdump.obj
 0001:000042d7       ?GetResourceInstance@CComModule@ATL@@QAEPAUHINSTANCE__@@XZ 100052d7 f i mdump.obj
 0001:000042dd       ?InterlockedExchangePointer@@YGPAXPAPAXPAX@Z 100052dd f i mdump.obj
 0001:000042ec       ?IsEmpty@CString@WTL@@QBEHXZ 100052ec f i mdump.obj
 0001:000042f7       ?LaunchHangDetection@MiniDumper@@QAEXXZ 100052f7 f   mdump.obj
 0001:000043e2       ?MakeLower@CString@WTL@@QAEXXZ 100053e2 f i mdump.obj
 0001:000043f4       ?SendReportThreaded@MiniDumper@@SGIPAX@Z 100053f4 f   mdump.obj
 0001:00004775       ?SetResourceInstance@CAtlBaseModule@ATL@@QAEPAUHINSTANCE__@@PAU3@@Z 10005775 f i mdump.obj
 0001:00004784       ?SetResourceInstance@CComModule@ATL@@QAEPAUHINSTANCE__@@PAU3@@Z 10005784 f i mdump.obj
 0001:00004795       ?TerminateHangDetection@MiniDumper@@QAEXXZ 10005795 f   mdump.obj
 0001:000047c9       ?TopLevelUnhandledExceptionFilter@MiniDumper@@SGJPAU_EXCEPTION_POINTERS@@@Z 100057c9 f   mdump.obj
 0001:0000483d       ?TrimLeft@CString@WTL@@QAEXXZ 1000583d f i mdump.obj
 0001:00004886       ?TrimRight@CString@WTL@@QAEXXZ 10005886 f i mdump.obj
 0001:000048d2       ?WebVersionNewerThanLocal@MiniDumper@@KA_NPAUHINSTANCE__@@@Z 100058d2 f   mdump.obj
 0001:00004bab       ?_Compat@?$_Vector_const_iterator@V?$_Vector_val@U?$_Simple_types@VCString@WTL@@@std@@@std@@@std@@QBEXABV12@@Z 10005bab f i mdump.obj
 0001:00004bae       ?_Copy@?$basic_string@DU?$char_traits@D@std@@V?$allocator@D@2@@std@@QAEXII@Z 10005bae f i mdump.obj
 0001:00004ca5       ?_Destroy@?$vector@VCString@WTL@@V?$allocator@VCString@WTL@@@std@@@std@@IAEXPAVCString@WTL@@0@Z 10005ca5 f i mdump.obj
 0001:00004cc2       ?_Eos@?$basic_string@DU?$char_traits@D@std@@V?$allocator@D@2@@std@@QAEXI@Z 10005cc2 f i mdump.obj
 0001:00004cdb       ?_Getal@?$_String_alloc@$0A@U?$_String_base_types@DV?$allocator@D@std@@@std@@@std@@QBE?AU?$_Wrap_alloc@V?$allocator@D@std@@@2@XZ 10005cdb f i mdump.obj
 0001:00004ce5       ?_Getal@?$_Vector_alloc@$0A@U?$_Vec_base_types@VCString@WTL@@V?$allocator@VCString@WTL@@@std@@@std@@@std@@QBE?AU?$_Wrap_alloc@V?$allocator@VCString@WTL@@@std@@@2@XZ 10005ce5 f i mdump.obj
 0001:00004cef       ?_Grow@?$basic_string@DU?$char_traits@D@std@@V?$allocator@D@2@@std@@QAE_NI_N@Z 10005cef f i mdump.obj
 0001:00004d52       ?_Grow_to@?$vector@VCString@WTL@@V?$allocator@VCString@WTL@@@std@@@std@@IBEII@Z 10005d52 f i mdump.obj
 0001:00004d7f       ?_Inside@?$basic_string@DU?$char_traits@D@std@@V?$allocator@D@2@@std@@QAE_NPBD@Z 10005d7f f i mdump.obj
 0001:00004dba       ?_Inside@?$vector@VCString@WTL@@V?$allocator@VCString@WTL@@@std@@@std@@IBE_NPBVCString@WTL@@@Z 10005dba f i mdump.obj
 0001:00004dd4       ?_Myptr@?$_String_val@U?$_Simple_types@D@std@@@std@@QAEPADXZ 10005dd4 f i mdump.obj
 0001:00004ddf       ?_Myptr@?$_String_val@U?$_Simple_types@D@std@@@std@@QBEPBDXZ 10005ddf f i mdump.obj
 0001:00004dea       ?_Orphan_range@?$vector@VCString@WTL@@V?$allocator@VCString@WTL@@@std@@@std@@IBEXPAVCString@WTL@@0@Z 10005dea f i mdump.obj
 0001:00004ded       ?_Reallocate@?$vector@VCString@WTL@@V?$allocator@VCString@WTL@@@std@@@std@@IAEXI@Z 10005ded f i mdump.obj
 0001:00004e7d       ?_Reserve@?$vector@VCString@WTL@@V?$allocator@VCString@WTL@@@std@@@std@@IAEXI@Z 10005e7d f i mdump.obj
 0001:00004ec8       ?_Tidy@?$basic_string@DU?$char_traits@D@std@@V?$allocator@D@2@@std@@QAEX_NI@Z 10005ec8 f i mdump.obj
 0001:00004f0c       ?_Tidy@?$vector@VCString@WTL@@V?$allocator@VCString@WTL@@@std@@@std@@IAEXXZ 10005f0c f i mdump.obj
 0001:00004f40       ?_Unused_capacity@?$vector@VCString@WTL@@V?$allocator@VCString@WTL@@@std@@@std@@QBEIXZ 10005f40 f i mdump.obj
 0001:00004f4a       ?_Xlen@?$basic_string@DU?$char_traits@D@std@@V?$allocator@D@2@@std@@QBEXXZ 10005f4a f i mdump.obj
 0001:00004f55       ?_Xlen@?$vector@VCString@WTL@@V?$allocator@VCString@WTL@@@std@@@std@@IBEXXZ 10005f55 f i mdump.obj
 0001:00004f60       ?_Xran@?$basic_string@DU?$char_traits@D@std@@V?$allocator@D@2@@std@@QBEXXZ 10005f60 f i mdump.obj
 0001:00004f6b       ?_cstrisdigit@CString@WTL@@KAHD@Z 10005f6b f i mdump.obj
 0001:00004f7d       ?_cstrisspace@CString@WTL@@KAHD@Z 10005f7d f i mdump.obj
 0001:00004f8f       ?_cstrtoi@CString@WTL@@KAHPBD@Z 10005f8f f i mdump.obj
 0001:00004f98       ?_tcsrchr@@YAPADPADI@Z     10005f98 f i mdump.obj
 0001:00004fa1       ?allocate@?$_Wrap_alloc@V?$allocator@D@std@@@std@@QAEPADI@Z 10005fa1 f i mdump.obj
 0001:00004fb4       ?allocate@?$_Wrap_alloc@V?$allocator@VCString@WTL@@@std@@@std@@QAEPAVCString@WTL@@I@Z 10005fb4 f i mdump.obj
 0001:00004fc7       ?allocate@?$allocator@D@std@@QAEPADI@Z 10005fc7 f i mdump.obj
 0001:00004fda       ?allocate@?$allocator@VCString@WTL@@@std@@QAEPAVCString@WTL@@I@Z 10005fda f i mdump.obj
 0001:00004fed       ?assign@?$basic_string@DU?$char_traits@D@std@@V?$allocator@D@2@@std@@QAEAAV12@ABV12@II@Z 10005fed f i mdump.obj
 0001:00005081       ?assign@?$basic_string@DU?$char_traits@D@std@@V?$allocator@D@2@@std@@QAEAAV12@PBD@Z 10006081 f i mdump.obj
 0001:000050a0       ?assign@?$basic_string@DU?$char_traits@D@std@@V?$allocator@D@2@@std@@QAEAAV12@PBDI@Z 100060a0 f i mdump.obj
 0001:00005119       ?assign@?$char_traits@D@std@@SAXAADABD@Z 10006119 f i mdump.obj
 0001:00005128       ?begin@?$vector@VCString@WTL@@V?$allocator@VCString@WTL@@@std@@@std@@QAE?AV?$_Vector_iterator@V?$_Vector_val@U?$_Simple_types@VCString@WTL@@@std@@@std@@@2@XZ 10006128 f i mdump.obj
 0001:00005136       ?bugsplatMessage@MiniDumper@@SAIPBDII@Z 10006136 f   mdump.obj
 0001:00005173       ?capacity@?$vector@VCString@WTL@@V?$allocator@VCString@WTL@@@std@@@std@@QBEIXZ 10006173 f i mdump.obj
 0001:0000517c       ?capture@TotalUptimeAndCrashCalculator@@QAEX_N@Z 1000617c f i mdump.obj
 0001:000052a5       ?category@error_code@std@@QBEABVerror_category@2@XZ 100062a5 f i mdump.obj
 0001:000052a9       ?category@error_condition@std@@QBEABVerror_category@2@XZ 100062a9 f i mdump.obj
 0001:000052ad       ?copy@?$char_traits@D@std@@SAPADPADPBDI@Z 100062ad f i mdump.obj
 0001:000052c1       ?createReport@MiniDumper@@QAEXK@Z 100062c1 f   mdump.obj
 0001:000052e3       ?createReport@MiniDumper@@QAEXPAU_EXCEPTION_POINTERS@@@Z 100062e3 f   mdump.obj
 0001:00005305       ?createReport@MiniDumper@@QAEXPBD@Z 10006305 f   mdump.obj
 0001:00005332       ?deallocate@?$_Wrap_alloc@V?$allocator@D@std@@@std@@QAEXPADI@Z 10006332 f i mdump.obj
 0001:00005342       ?deallocate@?$_Wrap_alloc@V?$allocator@VCString@WTL@@@std@@@std@@QAEXPAVCString@WTL@@I@Z 10006342 f i mdump.obj
 0001:00005352       ?deallocate@?$allocator@D@std@@QAEXPADI@Z 10006352 f i mdump.obj
 0001:00005362       ?deallocate@?$allocator@VCString@WTL@@@std@@QAEXPAVCString@WTL@@I@Z 10006362 f i mdump.obj
 0001:00005372       ?debugMode@@YA_NXZ         10006372 f   mdump.obj
 0001:000053e3       ?default_error_condition@_System_error_category@std@@UBE?AVerror_condition@2@H@Z 100063e3 f i mdump.obj
 0001:0000540f       ?default_error_condition@error_category@std@@UBE?AVerror_condition@2@H@Z 1000640f f i mdump.obj
 0001:00005421       ?eatException@@YA_NK@Z     10006421 f i mdump.obj
 0001:00005487       ?enableExceptionFilter@MiniDumper@@QAE_N_N@Z 10006487 f   mdump.obj
 0001:000054a7       ?enableFullMemoryDumpAndExit@MiniDumper@@QAE_N_N@Z 100064a7 f   mdump.obj
 0001:000054b6       ?end@?$vector@VCString@WTL@@V?$allocator@VCString@WTL@@@std@@@std@@QAE?AV?$_Vector_iterator@V?$_Vector_val@U?$_Simple_types@VCString@WTL@@@std@@@std@@@2@XZ 100064b6 f i mdump.obj
 0001:000054c5       ?equivalent@error_category@std@@UBE_NABVerror_code@2@H@Z 100064c5 f i mdump.obj
 0001:000054e2       ?equivalent@error_category@std@@UBE_NHABVerror_condition@2@@Z 100064e2 f i mdump.obj
 0001:00005503       ?erase@?$basic_string@DU?$char_traits@D@std@@V?$allocator@D@2@@std@@QAEAAV12@I@Z 10006503 f i mdump.obj
 0001:00005532       ?erase@?$basic_string@DU?$char_traits@D@std@@V?$allocator@D@2@@std@@QAEAAV12@II@Z 10006532 f i mdump.obj
 0001:000055b4       ?fileVersionInfo@@YA_NPADAAK1@Z 100065b4 f   mdump.obj
 0001:00005626       ?foundResources@ResourceSwitch@@QAE_NXZ 10006626 f i mdump.obj
 0001:0000562f       ?generic_category@std@@YAABVerror_category@1@XZ 1000662f f i mdump.obj
 0001:00005635       ?getFlags@MiniDumper@@QBEKXZ 10006635 f i mdump.obj
 0001:00005639       ?getRegistryBase@@YAXAAVCString@WTL@@@Z 10006639 f   mdump.obj
 0001:0000564b       ?getRegistryRoot@@YAXAAVCString@WTL@@PBD11@Z 1000664b f   mdump.obj
 0001:000056ab       ?initExceptionHandler@MiniDumper@@QAEXPBD000K@Z 100066ab f   mdump.obj
 0001:000058ba       ?invalid_parameter_handler@@YAXPBG00II@Z 100068ba f i mdump.obj
 0001:000058c3       ?isExceptionFilterEnabled@MiniDumper@@QBE_NXZ 100068c3 f   mdump.obj
 0001:000058c9       ?isFullMemoryDumpAndExitEnabled@MiniDumper@@QBE_NXZ 100068c9 f   mdump.obj
 0001:000058cf       ?length@?$char_traits@D@std@@SAIPBD@Z 100068cf f i mdump.obj
 0001:000058e7       ?logOutput@@YAXIPBD_N@Z    100068e7 f   mdump.obj
 0001:00005af4       ?max_size@?$_Wrap_alloc@V?$allocator@D@std@@@std@@QBEIXZ 10006af4 f i mdump.obj
 0001:00005af8       ?max_size@?$_Wrap_alloc@V?$allocator@VCString@WTL@@@std@@@std@@QBEIXZ 10006af8 f i mdump.obj
 0001:00005afe       ?max_size@?$allocator@D@std@@QBEIXZ 10006afe f i mdump.obj
 0001:00005b02       ?max_size@?$allocator@VCString@WTL@@@std@@QBEIXZ 10006b02 f i mdump.obj
 0001:00005b08       ?max_size@?$allocator_traits@V?$allocator@D@std@@@std@@SAIABV?$allocator@D@2@@Z 10006b08 f i mdump.obj
 0001:00005b0c       ?max_size@?$allocator_traits@V?$allocator@VCString@WTL@@@std@@@std@@SAIABV?$allocator@VCString@WTL@@@2@@Z 10006b0c f i mdump.obj
 0001:00005b12       ?max_size@?$basic_string@DU?$char_traits@D@std@@V?$allocator@D@2@@std@@QBEIXZ 10006b12 f i mdump.obj
 0001:00005b16       ?max_size@?$vector@VCString@WTL@@V?$allocator@VCString@WTL@@@std@@@std@@QBEIXZ 10006b16 f i mdump.obj
 0001:00005b1c       ?message@_Generic_error_category@std@@UBE?AV?$basic_string@DU?$char_traits@D@std@@V?$allocator@D@2@@2@H@Z 10006b1c f i mdump.obj
 0001:00005b49       ?message@_Iostream_error_category@std@@UBE?AV?$basic_string@DU?$char_traits@D@std@@V?$allocator@D@2@@2@H@Z 10006b49 f i mdump.obj
 0001:00005b7a       ?message@_System_error_category@std@@UBE?AV?$basic_string@DU?$char_traits@D@std@@V?$allocator@D@2@@2@H@Z 10006b7a f i mdump.obj
 0001:00005ba7       ?move@?$char_traits@D@std@@SAPADPADPBDI@Z 10006ba7 f i mdump.obj
 0001:00005bbb       ?name@_Generic_error_category@std@@UBEPBDXZ 10006bbb f i mdump.obj
 0001:00005bc1       ?name@_Iostream_error_category@std@@UBEPBDXZ 10006bc1 f i mdump.obj
 0001:00005bc7       ?name@_System_error_category@std@@UBEPBDXZ 10006bc7 f i mdump.obj
 0001:00005bcd       ?push_back@?$vector@VCString@WTL@@V?$allocator@VCString@WTL@@@std@@@std@@QAEX$$QAVCString@WTL@@@Z 10006bcd f i mdump.obj
 0001:00005c45       ?resetDescriptionString@MiniDumper@@QAEXPBD@Z 10006c45 f   mdump.obj
 0001:00005c51       ?resetVersionString@MiniDumper@@QAEXPBD@Z 10006c51 f   mdump.obj
 0001:00005c5d       ?sendAdditionalFile@MiniDumper@@QAEXPBD@Z 10006c5d f   mdump.obj
 0001:00005c96       ?setCallback@MiniDumper@@QAEXP6A_NIPAX0@Z@Z 10006c96 f   mdump.obj
 0001:00005ca3       ?setDefaultUserEmail@MiniDumper@@QAEXPBD@Z 10006ca3 f   mdump.obj
 0001:00005caf       ?setDefaultUserName@MiniDumper@@QAEXPBD@Z 10006caf f   mdump.obj
 0001:00005cbb       ?setFlags@MiniDumper@@QAE_NK@Z 10006cbb f   mdump.obj
 0001:00005d16       ?setUserZipPath@MiniDumper@@QAEXPBD@Z 10006d16 f   mdump.obj
 0001:00005d22       ?signal_handler@@YAXH@Z    10006d22 f i mdump.obj
 0001:00005d2b       ?size@?$basic_string@DU?$char_traits@D@std@@V?$allocator@D@2@@std@@QBEIXZ 10006d2b f i mdump.obj
 0001:00005d2f       ?size@?$vector@VCString@WTL@@V?$allocator@VCString@WTL@@@std@@@std@@QBEIXZ 10006d2f f i mdump.obj
 0001:00005d38       ?system_category@std@@YAABVerror_category@1@XZ 10006d38 f i mdump.obj
 0001:00005d3e       ?terminator@@YAXXZ         10006d3e f i mdump.obj
 0001:00005d47       ?value@error_code@std@@QBEHXZ 10006d47 f i mdump.obj
 0001:00005d4a       ?value@error_condition@std@@QBEHXZ 10006d4a f i mdump.obj
 0001:00005d4d       __tcsicmp                  10006d4d f i mdump.obj
 0001:00005d56       __tcsrchr                  10006d56 f i mdump.obj
 0001:00005d71       ??0MiniDmpSender@@QAE@PBD000K@Z 10006d71 f   sbSender.obj
 0001:00005dcb       ??0MiniDmpSender@@QAE@PBG000K@Z 10006dcb f   sbSender.obj
 0001:00005f8f       ??0MiniDmpSender@@QAE@PB_W000K@Z 10006f8f f   sbSender.obj
 0001:00006153       ??1MiniDmpSender@@UAE@XZ   10007153 f   sbSender.obj
 0001:0000616f       ?createReport@MiniDmpSender@@QAEXPAU_EXCEPTION_POINTERS@@@Z 1000716f f   sbSender.obj
 0001:0000617b       ?createReport@MiniDmpSender@@QAEXPBD@Z 1000717b f   sbSender.obj
 0001:00006187       ?createReport@MiniDmpSender@@QAEXPB_W@Z 10007187 f   sbSender.obj
 0001:000061d0       ?createReport@MiniDmpSender@@QAEXXZ 100071d0 f   sbSender.obj
 0001:000061db       ?enableExceptionFilter@MiniDmpSender@@QAE_N_N@Z 100071db f   sbSender.obj
 0001:000061e7       ?enableFullMemoryDumpAndExit@MiniDmpSender@@QAE_N_N@Z 100071e7 f   sbSender.obj
 0001:000061f3       ?getFlags@MiniDmpSender@@QBEKXZ 100071f3 f   sbSender.obj
 0001:000061fa       ?imp@MiniDmpSender@@QAEPAXXZ 100071fa f   sbSender.obj
 0001:00006200       ?imp@MiniDumper@@QAEPAXXZ  10007200 f i sbSender.obj
 0001:00006206       ?isExceptionFilterEnabled@MiniDmpSender@@QBE_NXZ 10007206 f   sbSender.obj
 0001:0000620e       ?isFullMemoryDumpAndExitEnabled@MiniDmpSender@@QBE_NXZ 1000720e f   sbSender.obj
 0001:00006216       ?resetAppIdentifier@MiniDmpSender@@QAEXPBD@Z 10007216 f   sbSender.obj
 0001:00006222       ?resetAppIdentifier@MiniDmpSender@@QAEXPBG@Z 10007222 f   sbSender.obj
 0001:0000622b       ?resetAppIdentifier@MiniDmpSender@@QAEXPB_W@Z 1000722b f   sbSender.obj
 0001:00006274       ?resetVersionString@MiniDmpSender@@QAEXPBD@Z 10007274 f   sbSender.obj
 0001:00006280       ?resetVersionString@MiniDmpSender@@QAEXPBG@Z 10007280 f   sbSender.obj
 0001:00006289       ?resetVersionString@MiniDmpSender@@QAEXPB_W@Z 10007289 f   sbSender.obj
 0001:000062d2       ?sendAdditionalFile@MiniDmpSender@@QAEXPBD@Z 100072d2 f   sbSender.obj
 0001:000062de       ?sendAdditionalFile@MiniDmpSender@@QAEXPBG@Z 100072de f   sbSender.obj
 0001:000062e7       ?sendAdditionalFile@MiniDmpSender@@QAEXPB_W@Z 100072e7 f   sbSender.obj
 0001:00006330       ?setCallback@MiniDmpSender@@QAEXP6A_NIPAX0@Z@Z 10007330 f   sbSender.obj
 0001:0000633c       ?setDefaultUserEmail@MiniDmpSender@@QAEXPBD@Z 1000733c f   sbSender.obj
 0001:00006348       ?setDefaultUserEmail@MiniDmpSender@@QAEXPBG@Z 10007348 f   sbSender.obj
 0001:00006351       ?setDefaultUserEmail@MiniDmpSender@@QAEXPB_W@Z 10007351 f   sbSender.obj
 0001:0000639a       ?setDefaultUserName@MiniDmpSender@@QAEXPBD@Z 1000739a f   sbSender.obj
 0001:000063a6       ?setDefaultUserName@MiniDmpSender@@QAEXPBG@Z 100073a6 f   sbSender.obj
 0001:000063af       ?setDefaultUserName@MiniDmpSender@@QAEXPB_W@Z 100073af f   sbSender.obj
 0001:000063f8       ?setFlags@MiniDmpSender@@QAE_NK@Z 100073f8 f   sbSender.obj
 0001:00006404       ?setUserZipPath@MiniDmpSender@@QAEXPBD@Z 10007404 f   sbSender.obj
 0001:00006410       ?setUserZipPath@MiniDmpSender@@QAEXPBG@Z 10007410 f   sbSender.obj
 0001:00006419       ?setUserZipPath@MiniDmpSender@@QAEXPB_W@Z 10007419 f   sbSender.obj
 0001:00006462       ?unhandledExceptionHandler@MiniDmpSender@@QAEJPAU_EXCEPTION_POINTERS@@@Z 10007462 f   sbSender.obj
 0001:0000646b       ??$?2PAD@?$Wrapper@PAD@?$CSimpleMap@PADPAGVCExpansionVectorEqualHelper@ATL@@@ATL@@SAPAXIPAPAD@Z 1000746b f i sbSenderApp.obj
 0001:00006473       ??$?2PAG@?$Wrapper@PAG@?$CSimpleMap@PADPAGVCExpansionVectorEqualHelper@ATL@@@ATL@@SAPAXIPAPAG@Z 10007473 f i sbSenderApp.obj
 0001:0000647b       ??$?3PAD@?$Wrapper@PAD@?$CSimpleMap@PADPAGVCExpansionVectorEqualHelper@ATL@@@ATL@@SAXPAXPAPAD@Z 1000747b f i sbSenderApp.obj
 0001:0000647c       ??$?3PAG@?$Wrapper@PAG@?$CSimpleMap@PADPAGVCExpansionVectorEqualHelper@ATL@@@ATL@@SAXPAXPAPAG@Z 1000747c f i sbSenderApp.obj
 0001:0000647d       ??$AtlAdd@K@ATL@@YAJPAKKK@Z 1000747d f i sbSenderApp.obj
 0001:000064a1       ??$AtlAddThrow@K@ATL@@YAKKK@Z 100074a1 f i sbSenderApp.obj
 0001:000064c9       ??$AtlMultiply@H@ATL@@YAJPAHHH@Z 100074c9 f i sbSenderApp.obj
 0001:000064fc       ??$AtlMultiply@I@ATL@@YAJPAIII@Z 100074fc f i sbSenderApp.obj
 0001:0000651e       ??$AtlMultiply@K@ATL@@YAJPAKKK@Z 1000751e f i sbSenderApp.obj
 0001:00006540       ??$AtlMultiplyThrow@I@ATL@@YAIII@Z 10007540 f i sbSenderApp.obj
 0001:00006568       ??0?$CAtlModuleT@VCComModule@ATL@@@ATL@@QAE@XZ 10007568 f i sbSenderApp.obj
 0001:00006574       ??0?$CAtlSafeAllocBufferManager@VCCRTAllocator@ATL@@@_ATL_SAFE_ALLOCA_IMPL@ATL@@QAE@XZ 10007574 f i sbSenderApp.obj
 0001:0000657a       ??0?$CAutoVectorPtr@D@ATL@@QAE@XZ 1000757a f i sbSenderApp.obj
 0001:00006580       ??0?$CAutoVectorPtr@G@ATL@@QAE@XZ 10007580 f i sbSenderApp.obj
 0001:00006586       ??0?$CComCritSecLock@VCComCriticalSection@ATL@@@ATL@@QAE@AAVCComCriticalSection@1@_N@Z 10007586 f i sbSenderApp.obj
 0001:000065ad       ??0?$CSimpleMap@KPAVCMessageLoop@WTL@@V?$CSimpleMapEqualHelper@KPAVCMessageLoop@WTL@@@ATL@@@ATL@@QAE@XZ 100075ad f i sbSenderApp.obj
 0001:000065ba       ??0?$CSimpleMap@PADPAGVCExpansionVectorEqualHelper@ATL@@@ATL@@QAE@XZ 100075ba f i sbSenderApp.obj
 0001:000065c7       ??0?$CTempBuffer@D$0BAA@VCCRTAllocator@ATL@@@ATL@@QAE@XZ 100075c7 f i sbSenderApp.obj
 0001:000065cd       ??0?$CTempBuffer@D$0EAA@VCCRTAllocator@ATL@@@ATL@@QAE@XZ 100075cd f i sbSenderApp.obj
 0001:000065d3       ??0?$CTempBuffer@E$0BAA@VCCRTAllocator@ATL@@@ATL@@QAE@XZ 100075d3 f i sbSenderApp.obj
 0001:000065d9       ??0?$Wrapper@PAD@?$CSimpleMap@PADPAGVCExpansionVectorEqualHelper@ATL@@@ATL@@QAE@ABQAD@Z 100075d9 f i sbSenderApp.obj
 0001:000065e9       ??0?$Wrapper@PAG@?$CSimpleMap@PADPAGVCExpansionVectorEqualHelper@ATL@@@ATL@@QAE@ABQAG@Z 100075e9 f i sbSenderApp.obj
 0001:000065f9       ??0CAppModule@WTL@@QAE@XZ  100075f9 f i sbSenderApp.obj
 0001:0000660b       ??0CAtlException@ATL@@QAE@J@Z 1000760b f i sbSenderApp.obj
 0001:00006619       ??0CAtlModule@ATL@@QAE@XZ  10007619 f i sbSenderApp.obj
 0001:0000665a       ??0CComAutoDeleteCriticalSection@ATL@@QAE@XZ 1000765a f i sbSenderApp.obj
 0001:00006672       ??0CComModule@ATL@@QAE@XZ  10007672 f i sbSenderApp.obj
 0001:0000668a       ??0CComSafeDeleteCriticalSection@ATL@@QAE@XZ 1000768a f i sbSenderApp.obj
 0001:000066a2       ??0CExpansionVector@ATL@@QAE@XZ 100076a2 f i sbSenderApp.obj
 0001:000066af       ??0CParseBuffer@CRegParser@ATL@@QAE@H@Z 100076af f i sbSenderApp.obj
 0001:000066e4       ??0CRegKey@ATL@@QAE@PAVCAtlTransactionManager@1@@Z 100076e4 f i sbSenderApp.obj
 0001:000066fa       ??0CRegObject@ATL@@QAE@XZ  100076fa f i sbSenderApp.obj
 0001:00006728       ??0CRegParser@ATL@@QAE@PAVCRegObject@1@@Z 10007728 f i sbSenderApp.obj
 0001:0000673a       ??0CStaticDataInitCriticalSectionLock@WTL@@QAE@XZ 1000773a f i sbSenderApp.obj
 0001:0000674b       ??0IRegistrarBase@@QAE@XZ  1000774b f i sbSenderApp.obj
 0001:0000674e       ??0IUnknown@@QAE@XZ        1000774e f i sbSenderApp.obj
 0001:00006751       ??0_ATL_MODULE70@ATL@@QAE@XZ 10007751 f i sbSenderApp.obj
 0001:00006768       ??1?$CAtlModuleT@VCComModule@ATL@@@ATL@@UAE@XZ 10007768 f i sbSenderApp.obj
 0001:0000676d       ??1?$CAtlSafeAllocBufferManager@VCCRTAllocator@ATL@@@_ATL_SAFE_ALLOCA_IMPL@ATL@@QAE@XZ 1000776d f i sbSenderApp.obj
 0001:00006786       ??1?$CAutoVectorPtr@D@ATL@@QAE@XZ 10007786 f i sbSenderApp.obj
 0001:00006796       ??1?$CAutoVectorPtr@G@ATL@@QAE@XZ 10007796 f i sbSenderApp.obj
 0001:000067a6       ??1?$CComCritSecLock@VCComCriticalSection@ATL@@@ATL@@QAE@XZ 100077a6 f i sbSenderApp.obj
 0001:000067bd       ??1?$CSimpleArray@PAUHWND__@@V?$CSimpleArrayEqualHelper@PAUHWND__@@@ATL@@@ATL@@QAE@XZ 100077bd f i sbSenderApp.obj
 0001:000067c2       ??1?$CSimpleMap@KPAVCMessageLoop@WTL@@V?$CSimpleMapEqualHelper@KPAVCMessageLoop@WTL@@@ATL@@@ATL@@QAE@XZ 100077c2 f i sbSenderApp.obj
 0001:000067c7       ??1?$CSimpleMap@PADPAGVCExpansionVectorEqualHelper@ATL@@@ATL@@QAE@XZ 100077c7 f i sbSenderApp.obj
 0001:000067cc       ??1?$CTempBuffer@D$0BAA@VCCRTAllocator@ATL@@@ATL@@QAE@XZ 100077cc f i sbSenderApp.obj
 0001:000067d8       ??1?$CTempBuffer@D$0EAA@VCCRTAllocator@ATL@@@ATL@@QAE@XZ 100077d8 f i sbSenderApp.obj
 0001:000067e4       ??1?$CTempBuffer@E$0BAA@VCCRTAllocator@ATL@@@ATL@@QAE@XZ 100077e4 f i sbSenderApp.obj
 0001:000067f0       ??1CAppModule@WTL@@UAE@XZ  100077f0 f i sbSenderApp.obj
 0001:000067fb       ??1CAtlModule@ATL@@UAE@XZ  100077fb f i sbSenderApp.obj
 0001:00006800       ??1CComAutoDeleteCriticalSection@ATL@@QAE@XZ 10007800 f i sbSenderApp.obj
 0001:00006812       ??1CComModule@ATL@@UAE@XZ  10007812 f i sbSenderApp.obj
 0001:0000681d       ??1CComSafeDeleteCriticalSection@ATL@@QAE@XZ 1000781d f i sbSenderApp.obj
 0001:0000682f       ??1CExpansionVector@ATL@@QAE@XZ 1000782f f i sbSenderApp.obj
 0001:00006856       ??1CParseBuffer@CRegParser@ATL@@QAE@XZ 10007856 f i sbSenderApp.obj
 0001:00006860       ??1CRegKey@ATL@@QAE@XZ     10007860 f i sbSenderApp.obj
 0001:00006865       ??1CRegObject@ATL@@UAE@XZ  10007865 f i sbSenderApp.obj
 0001:000068be       ??1CStaticDataInitCriticalSectionLock@WTL@@QAE@XZ 100078be f i sbSenderApp.obj
 0001:000068c3       ??1_ATL_MODULE70@ATL@@QAE@XZ 100078c3 f i sbSenderApp.obj
 0001:000068c4       ??A?$CSimpleArray@PAUHWND__@@V?$CSimpleArrayEqualHelper@PAUHWND__@@@ATL@@@ATL@@QAEAAPAUHWND__@@H@Z 100078c4 f i sbSenderApp.obj
 0001:000068ee       ??B?$CTempBuffer@D$0BAA@VCCRTAllocator@ATL@@@ATL@@QBEPADXZ 100078ee f i sbSenderApp.obj
 0001:000068f1       ??B?$CTempBuffer@D$0EAA@VCCRTAllocator@ATL@@@ATL@@QBEPADXZ 100078f1 f i sbSenderApp.obj
 0001:000068f4       ??B?$CTempBuffer@E$0BAA@VCCRTAllocator@ATL@@@ATL@@QBEPAEXZ 100078f4 f i sbSenderApp.obj
 0001:000068f7       ??BCRegKey@ATL@@QBEPAUHKEY__@@XZ 100078f7 f i sbSenderApp.obj
 0001:000068fa       ??_G?$CSimpleArray@PAUHWND__@@V?$CSimpleArrayEqualHelper@PAUHWND__@@@ATL@@@ATL@@QAEPAXI@Z 100078fa f i sbSenderApp.obj
 0001:00006919       ??_G?$CSimpleMap@KPAVCMessageLoop@WTL@@V?$CSimpleMapEqualHelper@KPAVCMessageLoop@WTL@@@ATL@@@ATL@@QAEPAXI@Z 10007919 f i sbSenderApp.obj
 0001:00006938       ??_ECAppModule@WTL@@UAEPAXI@Z 10007938 f i sbSenderApp.obj
 0001:00006938       ??_GCAppModule@WTL@@UAEPAXI@Z 10007938 f i sbSenderApp.obj
 0001:0000695d       ??_ECComModule@ATL@@UAEPAXI@Z 1000795d f i sbSenderApp.obj
 0001:0000695d       ??_GCComModule@ATL@@UAEPAXI@Z 1000795d f i sbSenderApp.obj
 0001:00006982       ??_ECRegObject@ATL@@UAEPAXI@Z 10007982 f i sbSenderApp.obj
 0001:00006982       ??_GCRegObject@ATL@@UAEPAXI@Z 10007982 f i sbSenderApp.obj
 0001:000069a1       ?Add@?$CSimpleMap@PADPAGVCExpansionVectorEqualHelper@ATL@@@ATL@@QAEHABQADABQAG@Z 100079a1 f i sbSenderApp.obj
 0001:000069f6       ?Add@CExpansionVector@ATL@@QAEHPBDPBG@Z 100079f6 f i sbSenderApp.obj
 0001:00006aeb       ?AddChar@CParseBuffer@CRegParser@ATL@@QAEHPBD@Z 10007aeb f i sbSenderApp.obj
 0001:00006b0d       ?AddCommonRGSReplacements@?$CAtlModuleT@VCComModule@ATL@@@ATL@@UAEJPAUIRegistrarBase@@@Z 10007b0d f i sbSenderApp.obj
 0001:00006b27       ?AddRef@CRegObject@ATL@@UAGKXZ 10007b27 f i sbSenderApp.obj
 0001:00006b2d       ?AddReplacement@CRegObject@ATL@@UAGJPBG0@Z 10007b2d f i sbSenderApp.obj
 0001:00006c0e       ?AddString@CParseBuffer@CRegParser@ATL@@QAEHPBG@Z 10007c0e f i sbSenderApp.obj
 0001:00006cc5       ?AddValue@CRegParser@ATL@@IAEJAAVCRegKey@2@PBDPAD@Z 10007cc5 f i sbSenderApp.obj
 0001:00007135       ?Allocate@?$CAtlSafeAllocBufferManager@VCCRTAllocator@ATL@@@_ATL_SAFE_ALLOCA_IMPL@ATL@@QAEPAXK@Z 10008135 f i sbSenderApp.obj
 0001:00007162       ?Allocate@?$CTempBuffer@D$0BAA@VCCRTAllocator@ATL@@@ATL@@QAEPADI@Z 10008162 f i sbSenderApp.obj
 0001:00007191       ?Allocate@?$CTempBuffer@D$0EAA@VCCRTAllocator@ATL@@@ATL@@QAEPADI@Z 10008191 f i sbSenderApp.obj
 0001:000071c0       ?Allocate@?$CTempBuffer@E$0BAA@VCCRTAllocator@ATL@@@ATL@@QAEPAEI@Z 100081c0 f i sbSenderApp.obj
 0001:000071ef       ?Allocate@CCRTAllocator@ATL@@SAPAXI@Z 100081ef f i sbSenderApp.obj
 0001:000071f8       ?AllocateBytes@?$CTempBuffer@D$0BAA@VCCRTAllocator@ATL@@@ATL@@QAEPADI@Z 100081f8 f i sbSenderApp.obj
 0001:0000721d       ?AllocateBytes@?$CTempBuffer@D$0EAA@VCCRTAllocator@ATL@@@ATL@@QAEPADI@Z 1000821d f i sbSenderApp.obj
 0001:00007242       ?AllocateBytes@?$CTempBuffer@E$0BAA@VCCRTAllocator@ATL@@@ATL@@QAEPAEI@Z 10008242 f i sbSenderApp.obj
 0001:00007267       ?AllocateHeap@?$CTempBuffer@D$0BAA@VCCRTAllocator@ATL@@@ATL@@AAEXI@Z 10008267 f i sbSenderApp.obj
 0001:0000728c       ?AllocateHeap@?$CTempBuffer@D$0EAA@VCCRTAllocator@ATL@@@ATL@@AAEXI@Z 1000828c f i sbSenderApp.obj
 0001:000072b1       ?AllocateHeap@?$CTempBuffer@E$0BAA@VCCRTAllocator@ATL@@@ATL@@AAEXI@Z 100082b1 f i sbSenderApp.obj
 0001:000072d6       ?Append@CParseBuffer@CRegParser@ATL@@QAEHPBDH@Z 100082d6 f i sbSenderApp.obj
 0001:00007359       ?AtlA2WHelper@@YGPAGPAGPBDHI@Z 10008359 f i sbSenderApp.obj
 0001:00007391       ?AtlCallTermFunc@ATL@@YGXPAU_ATL_MODULE70@1@@Z 10008391 f i sbSenderApp.obj
 0001:000073d4       ?AtlCoTaskMemCAlloc@ATL@@YAPAXKK@Z 100083d4 f i sbSenderApp.obj
 0001:00007403       ?AtlCoTaskMemRecalloc@ATL@@YAPAXPAXKK@Z 10008403 f i sbSenderApp.obj
 0001:00007435       ?AtlCrtErrorCheck@ATL@@YAHH@Z 10008435 f i sbSenderApp.obj
 0001:00007470       ?AtlGetPerUserRegistration@ATL@@YGJPA_N@Z 10008470 f i sbSenderApp.obj
 0001:0000748e       ?AtlHresultFromLastError@ATL@@YAJXZ 1000848e f i sbSenderApp.obj
 0001:000074a5       ?AtlHresultFromWin32@ATL@@YAJK@Z 100084a5 f i sbSenderApp.obj
 0001:000074ba       ?AtlThrowImpl@ATL@@YGXJ@Z  100084ba f i sbSenderApp.obj
 0001:000074d2       ?AtlW2AHelper@@YGPADPADPBGHI@Z 100084d2 f i sbSenderApp.obj
 0001:0000750b       ?Attach@?$CAutoVectorPtr@D@ATL@@QAEXPAD@Z 1000850b f i sbSenderApp.obj
 0001:00007517       ?Attach@?$CAutoVectorPtr@G@ATL@@QAEXPAG@Z 10008517 f i sbSenderApp.obj
 0001:00007523       ?Attach@CRegKey@ATL@@QAEXPAUHKEY__@@@Z 10008523 f i sbSenderApp.obj
 0001:00007537       ?CanForceRemoveKey@CRegParser@ATL@@IAEHPBD@Z 10008537 f i sbSenderApp.obj
 0001:00007566       ?ChToByte@CRegParser@ATL@@KAED@Z 10008566 f i sbSenderApp.obj
 0001:000075a3       ?ClearReplacements@CExpansionVector@ATL@@QAEJXZ 100085a3 f i sbSenderApp.obj
 0001:000075e0       ?ClearReplacements@CRegObject@ATL@@UAGJXZ 100085e0 f i sbSenderApp.obj
 0001:0000760b       ?Close@CRegKey@ATL@@QAEJXZ 1000860b f i sbSenderApp.obj
 0001:00007625       ?Create@CRegKey@ATL@@QAEJPAUHKEY__@@PBDPADKKPAU_SECURITY_ATTRIBUTES@@PAK@Z 10008625 f i sbSenderApp.obj
 0001:00007696       ?Decrement@CComMultiThreadModel@ATL@@SGKPAJ@Z 10008696 f i sbSenderApp.obj
 0001:000076a8       ?DeleteSubKey@CRegKey@ATL@@QAEJPBD@Z 100086a8 f i sbSenderApp.obj
 0001:00007721       ?DeleteValue@CRegKey@ATL@@QAEJPBD@Z 10008721 f i sbSenderApp.obj
 0001:00007733       ?Detach@?$CAutoVectorPtr@D@ATL@@QAEPADXZ 10008733 f i sbSenderApp.obj
 0001:00007739       ?Detach@?$CAutoVectorPtr@G@ATL@@QAEPAGXZ 10008739 f i sbSenderApp.obj
 0001:0000773f       ?Detach@CParseBuffer@CRegParser@ATL@@QAEPADXZ 1000873f f i sbSenderApp.obj
 0001:0000774d       ?Detach@CRegKey@ATL@@QAEPAUHKEY__@@XZ 1000874d f i sbSenderApp.obj
 0001:0000775a       ?EndOfVar@CRegParser@ATL@@IAEHXZ 1000875a f i sbSenderApp.obj
 0001:00007774       ?EscapeSingleQuote@CAtlModule@ATL@@SAXPAGIPBG@Z 10008774 f i sbSenderApp.obj
 0001:000077c3       ?FinalConstruct@CRegObject@ATL@@QAEJXZ 100087c3 f i sbSenderApp.obj
 0001:000077d8       ?FindKey@?$CSimpleMap@PADPAGVCExpansionVectorEqualHelper@ATL@@@ATL@@QBEHABQAD@Z 100087d8 f i sbSenderApp.obj
 0001:0000780f       ?Free@?$CAutoVectorPtr@D@ATL@@QAEXXZ 1000880f f i sbSenderApp.obj
 0001:0000781f       ?Free@?$CAutoVectorPtr@G@ATL@@QAEXXZ 1000881f f i sbSenderApp.obj
 0001:0000782f       ?Free@CCRTAllocator@ATL@@SAXPAX@Z 1000882f f i sbSenderApp.obj
 0001:00007834       ?FreeHeap@?$CTempBuffer@D$0BAA@VCCRTAllocator@ATL@@@ATL@@AAEXXZ 10008834 f i sbSenderApp.obj
 0001:0000783d       ?FreeHeap@?$CTempBuffer@D$0EAA@VCCRTAllocator@ATL@@@ATL@@AAEXXZ 1000883d f i sbSenderApp.obj
 0001:00007846       ?FreeHeap@?$CTempBuffer@E$0BAA@VCCRTAllocator@ATL@@@ATL@@AAEXXZ 10008846 f i sbSenderApp.obj
 0001:0000784f       ?GenerateError@CRegParser@ATL@@IAEJI@Z 1000884f f i sbSenderApp.obj
 0001:00007857       ?GetAppId@?$CAtlModuleT@VCComModule@ATL@@@ATL@@SAPBGXZ 10008857 f i sbSenderApp.obj
 0001:0000785d       ?GetData@CAtlSafeAllocBufferNode@?$CAtlSafeAllocBufferManager@VCCRTAllocator@ATL@@@_ATL_SAFE_ALLOCA_IMPL@ATL@@QAEPAXXZ 1000885d f i sbSenderApp.obj
 0001:00007861       ?GetGITPtr@CAtlModule@ATL@@UAEJPAPAUIGlobalInterfaceTable@@@Z 10008861 f i sbSenderApp.obj
 0001:000078ad       ?GetKeyAt@?$CSimpleMap@PADPAGVCExpansionVectorEqualHelper@ATL@@@ATL@@QBEAAPADH@Z 100088ad f i sbSenderApp.obj
 0001:000078d7       ?GetLockCount@CAtlModule@ATL@@UAEJXZ 100088d7 f i sbSenderApp.obj
 0001:000078db       ?GetSize@?$CSimpleArray@PAUHWND__@@V?$CSimpleArrayEqualHelper@PAUHWND__@@@ATL@@@ATL@@QBEHXZ 100088db f i sbSenderApp.obj
 0001:000078df       ?GetSize@?$CSimpleMap@PADPAGVCExpansionVectorEqualHelper@ATL@@@ATL@@QBEHXZ 100088df f i sbSenderApp.obj
 0001:000078e3       ?GetValueAt@?$CSimpleMap@PADPAGVCExpansionVectorEqualHelper@ATL@@@ATL@@QBEAAPAGH@Z 100088e3 f i sbSenderApp.obj
 0001:0000790e       ?HKeyFromString@CRegParser@ATL@@KAPAUHKEY__@@PAD@Z 1000890e f i sbSenderApp.obj
 0001:0000793c       ?HasSubKeys@CRegParser@ATL@@IAEHPAUHKEY__@@@Z 1000893c f i sbSenderApp.obj
 0001:00007973       ?Increment@CComMultiThreadModel@ATL@@SGKPAJ@Z 10008973 f i sbSenderApp.obj
 0001:00007985       ?Init@CAppModule@WTL@@QAEJPAU_ATL_OBJMAP_ENTRY30@ATL@@PAUHINSTANCE__@@PBU_GUID@@@Z 10008985 f i sbSenderApp.obj
 0001:00007a02       ?Init@CComModule@ATL@@QAEJPAU_ATL_OBJMAP_ENTRY30@2@PAUHINSTANCE__@@PBU_GUID@@@Z 10008a02 f i sbSenderApp.obj
 0001:00007a61       ?Init@CComSafeDeleteCriticalSection@ATL@@QAEJXZ 10008a61 f i sbSenderApp.obj
 0001:00007a73       ?InitLibId@?$CAtlModuleT@VCComModule@ATL@@@ATL@@SAXXZ 10008a73 f i sbSenderApp.obj
 0001:00007a74       ?InternalSetAtIndex@?$CSimpleMap@PADPAGVCExpansionVectorEqualHelper@ATL@@@ATL@@QAEXHABQADABQAG@Z 10008a74 f i sbSenderApp.obj
 0001:00007a9e       ?IsEqualKey@CExpansionVectorEqualHelper@ATL@@SA_NQAD0@Z 10008a9e f i sbSenderApp.obj
 0001:00007ab5       ?IsSpace@CRegParser@ATL@@IAEHD@Z 10008ab5 f i sbSenderApp.obj
 0001:00007ad6       ?Lock@?$CComCritSecLock@VCComCriticalSection@ATL@@@ATL@@QAEJXZ 10008ad6 f i sbSenderApp.obj
 0001:00007ae9       ?Lock@CAtlModule@ATL@@UAEJXZ 10008ae9 f i sbSenderApp.obj
 0001:00007af5       ?Lock@CComCriticalSection@ATL@@QAEJXZ 10008af5 f i sbSenderApp.obj
 0001:00007aff       ?Lock@CComSafeDeleteCriticalSection@ATL@@QAEJXZ 10008aff f i sbSenderApp.obj
 0001:00007b09       ?Lock@CStaticDataInitCriticalSectionLock@WTL@@QAEJXZ 10008b09 f i sbSenderApp.obj
 0001:00007b1c       ?Lookup@?$CSimpleMap@PADPAGVCExpansionVectorEqualHelper@ATL@@@ATL@@QBEPAGABQAD@Z 10008b1c f i sbSenderApp.obj
 0001:00007b42       ?NextToken@CRegParser@ATL@@IAEJPAD@Z 10008b42 f i sbSenderApp.obj
 0001:00007c53       ?Open@CRegKey@ATL@@QAEJPAUHKEY__@@PBDK@Z 10008c53 f i sbSenderApp.obj
 0001:00007caa       ?PreProcessBuffer@CRegParser@ATL@@QAEJPADPAPAD@Z 10008caa f i sbSenderApp.obj
 0001:00007f34       ?QueryInterface@CRegObject@ATL@@UAGJABU_GUID@@PAPAX@Z 10008f34 f i sbSenderApp.obj
 0001:00007f3c       ?RecurseDeleteKey@CRegKey@ATL@@QAEJPBD@Z 10008f3c f i sbSenderApp.obj
 0001:00008000       ?RegCreateKeyExA@CAtlTransactionManager@ATL@@QAEJPAUHKEY__@@PBDKPADKKQAU_SECURITY_ATTRIBUTES@@PAPAU3@PAK@Z 10009000 f i sbSenderApp.obj
 0001:00008063       ?RegDeleteKeyA@CAtlTransactionManager@ATL@@QAEJPAUHKEY__@@PBD@Z 10009063 f i sbSenderApp.obj
 0001:000080b5       ?RegOpenKeyExA@CAtlTransactionManager@ATL@@QAEJPAUHKEY__@@PBDKKPAPAU3@@Z 100090b5 f i sbSenderApp.obj
 0001:0000810c       ?RegisterBuffer@CRegParser@ATL@@QAEJPADH@Z 1000910c f i sbSenderApp.obj
 0001:0000824e       ?RegisterFromResource@CRegObject@ATL@@IAEJPBGPBD1H@Z 1000924e f i sbSenderApp.obj
 0001:000084a2       ?RegisterSubkeys@CRegParser@ATL@@IAEJPADPAUHKEY__@@HH@Z 100094a2 f i sbSenderApp.obj
 0001:00008a86       ?Release@CRegObject@ATL@@UAGKXZ 10009a86 f i sbSenderApp.obj
 0001:00008a8b       ?RemoveAll@?$CSimpleArray@PAUHWND__@@V?$CSimpleArrayEqualHelper@PAUHWND__@@@ATL@@@ATL@@QAEXXZ 10009a8b f i sbSenderApp.obj
 0001:00008aa8       ?RemoveAll@?$CSimpleMap@KPAVCMessageLoop@WTL@@V?$CSimpleMapEqualHelper@KPAVCMessageLoop@WTL@@@ATL@@@ATL@@QAEXXZ 10009aa8 f i sbSenderApp.obj
 0001:00008ad4       ?RemoveAll@?$CSimpleMap@PADPAGVCExpansionVectorEqualHelper@ATL@@@ATL@@QAEXXZ 10009ad4 f i sbSenderApp.obj
 0001:00008b00       ?ResourceRegister@CRegObject@ATL@@QAGJPBGI0@Z 10009b00 f i sbSenderApp.obj
 0001:00008baf       ?ResourceRegisterSz@CRegObject@ATL@@QAGJPBG00@Z 10009baf f i sbSenderApp.obj
 0001:00008cd2       ?ResourceUnregister@CRegObject@ATL@@QAGJPBGI0@Z 10009cd2 f i sbSenderApp.obj
 0001:00008d81       ?ResourceUnregisterSz@CRegObject@ATL@@QAGJPBG00@Z 10009d81 f i sbSenderApp.obj
 0001:00008ea2       ?SetDWORDValue@CRegKey@ATL@@QAEJPBDK@Z 10009ea2 f i sbSenderApp.obj
 0001:00008ebe       ?SetMultiStringValue@CRegKey@ATL@@QAEJPBD0@Z 10009ebe f i sbSenderApp.obj
 0001:00008f06       ?SetStringValue@CRegKey@ATL@@QAEJPBD0K@Z 10009f06 f i sbSenderApp.obj
 0001:00008f3a       ?SkipAssignment@CRegParser@ATL@@IAEJPAD@Z 10009f3a f i sbSenderApp.obj
 0001:00008fa0       ?SkipWhiteSpace@CRegParser@ATL@@IAEXXZ 10009fa0 f i sbSenderApp.obj
 0001:00008fc2       ?StrChrA@CRegParser@ATL@@KAPADPADD@Z 10009fc2 f i sbSenderApp.obj
 0001:00008ff4       ?StrFromMap@CRegObject@ATL@@QAEPBGPAD@Z 10009ff4 f i sbSenderApp.obj
 0001:00009022       ?Term@CAppModule@WTL@@QAEXXZ 1000a022 f i sbSenderApp.obj
 0001:00009049       ?Term@CAtlModule@ATL@@QAEXXZ 1000a049 f i sbSenderApp.obj
 0001:00009082       ?Term@CComModule@ATL@@QAEXXZ 1000a082 f i sbSenderApp.obj
 0001:000090da       ?TermSettingChangeNotify@CAppModule@WTL@@QAEXXZ 1000a0da f i sbSenderApp.obj
 0001:00009146       ?Unlock@?$CComCritSecLock@VCComCriticalSection@ATL@@@ATL@@QAEXXZ 1000a146 f i sbSenderApp.obj
 0001:00009157       ?Unlock@CAtlModule@ATL@@UAEJXZ 1000a157 f i sbSenderApp.obj
 0001:00009163       ?Unlock@CComCriticalSection@ATL@@QAEJXZ 1000a163 f i sbSenderApp.obj
 0001:0000916d       ?Unlock@CStaticDataInitCriticalSectionLock@WTL@@QAEXXZ 1000a16d f i sbSenderApp.obj
 0001:0000917e       ?UpdateRegistryFromResource@CAtlModule@ATL@@QAGJIHPAU_ATL_REGMAP_ENTRY@2@@Z 1000a17e f i sbSenderApp.obj
 0001:00009435       ?UpdateRegistryFromResource@CAtlModule@ATL@@QAGJPBDHPAU_ATL_REGMAP_ENTRY@2@@Z 1000a435 f i sbSenderApp.obj
 0001:00009786       ?UpdateRegistryFromResource@CComModule@ATL@@UAGJIHPAU_ATL_REGMAP_ENTRY@2@@Z 1000a786 f i sbSenderApp.obj
 0001:0000978f       ?UpdateRegistryFromResource@CComModule@ATL@@UAGJPBDHPAU_ATL_REGMAP_ENTRY@2@@Z 1000a78f f i sbSenderApp.obj
 0001:00009798       ?UpdateRegistryFromResourceD@CComModule@ATL@@UAGJIHPAU_ATL_REGMAP_ENTRY@2@@Z 1000a798 f i sbSenderApp.obj
 0001:000097a0       ?UpdateRegistryFromResourceD@CComModule@ATL@@UAGJPBDHPAU_ATL_REGMAP_ENTRY@2@@Z 1000a7a0 f i sbSenderApp.obj
 0001:000097a8       ?VTFromRegType@CRegParser@ATL@@KAHPBDAAG@Z 1000a7a8 f i sbSenderApp.obj
 0001:0000983f       ?_AtlGetConversionACP@ATL@@YGIXZ 1000a83f f i sbSenderApp.obj
 0001:00009843       ?_AtlVerifyStackAvailable@_ATL_SAFE_ALLOCA_IMPL@ATL@@YA_NK@Z 1000a843 f i sbSenderApp.obj
 0001:000098b7       ?_tcsstr@@YAPADPADPBD@Z    1000a8b7 f i sbSenderApp.obj
 0001:000098c0       ?memcpy_s@Checked@ATL@@YAXPAXIPBXI@Z 1000a8c0 f i sbSenderApp.obj
 0001:000098df       ?ocscpy_s@@YA_NPAGIPBG@Z   1000a8df f i sbSenderApp.obj
 0001:00009918       ?ocslen@@YAHPBG@Z          1000a918 f i sbSenderApp.obj
 0001:0000992b       ?tcsncpy_s@Checked@ATL@@YAHPADIPBDI@Z 1000a92b f i sbSenderApp.obj
 0001:0000994a       _DllMain@12                1000a94a f   sbSenderApp.obj
 0001:0000997b       _CreateMiniDmpSender       1000a97b f   sbSenderCFns.obj
 0001:000099b1       _DestroyMiniDmpSender      1000a9b1 f   sbSenderCFns.obj
 0001:000099c7       _MDSGetFlags               1000a9c7 f   sbSenderCFns.obj
 0001:000099df       _MDSResetAppIdentifier     1000a9df f   sbSenderCFns.obj
 0001:000099f7       _MDSResetVersionString     1000a9f7 f   sbSenderCFns.obj
 0001:00009a0f       _MDSSetFlags               1000aa0f f   sbSenderCFns.obj
 0001:00009a28       _InternetOpenA@20          1000aa28 f   wininet:WININET.dll
 0001:00009a2e       _InternetCloseHandle@4     1000aa2e f   wininet:WININET.dll
 0001:00009a34       _InternetConnectA@32       1000aa34 f   wininet:WININET.dll
 0001:00009a3a       _InternetReadFile@16       1000aa3a f   wininet:WININET.dll
 0001:00009a40       _InternetWriteFile@16      1000aa40 f   wininet:WININET.dll
 0001:00009a46       _HttpOpenRequestA@32       1000aa46 f   wininet:WININET.dll
 0001:00009a4c       _HttpAddRequestHeadersA@16 1000aa4c f   wininet:WININET.dll
 0001:00009a52       _HttpSendRequestA@20       1000aa52 f   wininet:WININET.dll
 0001:00009a58       _HttpSendRequestExA@20     1000aa58 f   wininet:WININET.dll
 0001:00009a5e       _HttpEndRequestA@16        1000aa5e f   wininet:WININET.dll
 0001:00009a64       _HttpQueryInfoA@20         1000aa64 f   wininet:WININET.dll
 0001:00009a6a       _InternetAttemptConnect@4  1000aa6a f   wininet:WININET.dll
 0001:00009a70       _PathFileExistsA@4         1000aa70 f   shlwapi:SHLWAPI.dll
 0001:00009a76       _PathAppendA@8             1000aa76 f   shlwapi:SHLWAPI.dll
 0001:00009a7c       _PathRemoveExtensionA@4    1000aa7c f   shlwapi:SHLWAPI.dll
 0001:00009a82       _PathStripPathA@4          1000aa82 f   shlwapi:SHLWAPI.dll
 0001:00009a88       _CreateFileA@28            1000aa88 f   kernel32:KERNEL32.dll
 0001:00009a8e       _DeleteFileA@4             1000aa8e f   kernel32:KERNEL32.dll
 0001:00009a94       _GetTempPathA@8            1000aa94 f   kernel32:KERNEL32.dll
 0001:00009a9a       _DecodePointer@4           1000aa9a f   kernel32:KERNEL32.dll
 0001:00009aa0       _CloseHandle@4             1000aaa0 f   kernel32:KERNEL32.dll
 0001:00009aa6       _RaiseException@16         1000aaa6 f   kernel32:KERNEL32.dll
 0001:00009aac       _GetLastError@0            1000aaac f   kernel32:KERNEL32.dll
 0001:00009ab2       _InitializeCriticalSectionAndSpinCount@8 1000aab2 f   kernel32:KERNEL32.dll
 0001:00009ab8       _DeleteCriticalSection@4   1000aab8 f   kernel32:KERNEL32.dll
 0001:00009abe       _GetCurrentProcess@0       1000aabe f   kernel32:KERNEL32.dll
 0001:00009ac4       _GetCurrentProcessId@0     1000aac4 f   kernel32:KERNEL32.dll
 0001:00009aca       _GetCurrentThreadId@0      1000aaca f   kernel32:KERNEL32.dll
 0001:00009ad0       _OpenThread@12             1000aad0 f   kernel32:KERNEL32.dll
 0001:00009ad6       _SuspendThread@4           1000aad6 f   kernel32:KERNEL32.dll
 0001:00009adc       _ResumeThread@4            1000aadc f   kernel32:KERNEL32.dll
 0001:00009ae2       _GetProcessId@4            1000aae2 f   kernel32:KERNEL32.dll
 0001:00009ae8       _GetThreadContext@8        1000aae8 f   kernel32:KERNEL32.dll
 0001:00009aee       _GetProcAddress@8          1000aaee f   kernel32:KERNEL32.dll
 0001:00009af4       _LoadLibraryA@4            1000aaf4 f   kernel32:KERNEL32.dll
 0001:00009afa       _LocalFree@4               1000aafa f   kernel32:KERNEL32.dll
 0001:00009b00       _FormatMessageA@28         1000ab00 f   kernel32:KERNEL32.dll
 0001:00009b06       _lstrlenA@4                1000ab06 f   kernel32:KERNEL32.dll
 0001:00009b0c       _CreateToolhelp32Snapshot@8 1000ab0c f   kernel32:KERNEL32.dll
 0001:00009b12       _Thread32First@8           1000ab12 f   kernel32:KERNEL32.dll
 0001:00009b18       _Thread32Next@8            1000ab18 f   kernel32:KERNEL32.dll
 0001:00009b1e       _GetFileSize@8             1000ab1e f   kernel32:KERNEL32.dll
 0001:00009b24       _ReadFile@20               1000ab24 f   kernel32:KERNEL32.dll
 0001:00009b2a       _LocalAlloc@8              1000ab2a f   kernel32:KERNEL32.dll
 0001:00009b30       _DebugBreak@0              1000ab30 f   kernel32:KERNEL32.dll
 0001:00009b36       _OutputDebugStringA@4      1000ab36 f   kernel32:KERNEL32.dll
 0001:00009b3c       _SetUnhandledExceptionFilter@4 1000ab3c f   kernel32:KERNEL32.dll
 0001:00009b42       _SetErrorMode@4            1000ab42 f   kernel32:KERNEL32.dll
 0001:00009b48       _WaitForSingleObject@8     1000ab48 f   kernel32:KERNEL32.dll
 0001:00009b4e       _TerminateProcess@8        1000ab4e f   kernel32:KERNEL32.dll
 0001:00009b54       _CreateProcessA@40         1000ab54 f   kernel32:KERNEL32.dll
 0001:00009b5a       _FlushInstructionCache@12  1000ab5a f   kernel32:KERNEL32.dll
 0001:00009b60       _OpenProcess@12            1000ab60 f   kernel32:KERNEL32.dll
 0001:00009b66       _GetSystemTime@4           1000ab66 f   kernel32:KERNEL32.dll
 0001:00009b6c       _VirtualProtect@16         1000ab6c f   kernel32:KERNEL32.dll
 0001:00009b72       _VirtualQuery@12           1000ab72 f   kernel32:KERNEL32.dll
 0001:00009b78       _FreeLibrary@4             1000ab78 f   kernel32:KERNEL32.dll
 0001:00009b7e       _GetModuleFileNameA@12     1000ab7e f   kernel32:KERNEL32.dll
 0001:00009b84       _GetModuleHandleA@4        1000ab84 f   kernel32:KERNEL32.dll
 0001:00009b8a       _WritePrivateProfileStringA@16 1000ab8a f   kernel32:KERNEL32.dll
 0001:00009b90       _SystemTimeToFileTime@8    1000ab90 f   kernel32:KERNEL32.dll
 0001:00009b96       _WideCharToMultiByte@32    1000ab96 f   kernel32:KERNEL32.dll
 0001:00009b9c       _EnterCriticalSection@4    1000ab9c f   kernel32:KERNEL32.dll
 0001:00009ba2       _LeaveCriticalSection@4    1000aba2 f   kernel32:KERNEL32.dll
 0001:00009ba8       _LoadLibraryExA@12         1000aba8 f   kernel32:KERNEL32.dll
 0001:00009bae       _LoadResource@8            1000abae f   kernel32:KERNEL32.dll
 0001:00009bb4       _SizeofResource@8          1000abb4 f   kernel32:KERNEL32.dll
 0001:00009bba       _lstrcmpiA@8               1000abba f   kernel32:KERNEL32.dll
 0001:00009bc0       _FindResourceA@12          1000abc0 f   kernel32:KERNEL32.dll
 0001:00009bc6       _MultiByteToWideChar@24    1000abc6 f   kernel32:KERNEL32.dll
 0001:00009bcc       _IsDBCSLeadByte@4          1000abcc f   kernel32:KERNEL32.dll
 0001:00009bd2       _LoadStringA@16            1000abd2 f   user32:USER32.dll
 0001:00009bd8       _UnregisterClassA@8        1000abd8 f   user32:USER32.dll
 0001:00009bde       _CharUpperA@4              1000abde f   user32:USER32.dll
 0001:00009be4       _MessageBoxA@16            1000abe4 f   user32:USER32.dll
 0001:00009bea       _wvsprintfA@12             1000abea f   user32:USER32.dll
 0001:00009bf0       _CharLowerA@4              1000abf0 f   user32:USER32.dll
 0001:00009bf6       _CharNextA@4               1000abf6 f   user32:USER32.dll
 0001:00009bfc       _DestroyWindow@4           1000abfc f   user32:USER32.dll
 0001:00009c02       _RegCloseKey@4             1000ac02 f   advapi32:ADVAPI32.dll
 0001:00009c08       _RegOpenKeyExA@20          1000ac08 f   advapi32:ADVAPI32.dll
 0001:00009c0e       _RegQueryValueExA@24       1000ac0e f   advapi32:ADVAPI32.dll
 0001:00009c14       _RegCreateKeyA@12          1000ac14 f   advapi32:ADVAPI32.dll
 0001:00009c1a       _RegOpenKeyA@12            1000ac1a f   advapi32:ADVAPI32.dll
 0001:00009c20       _RegSetValueExA@24         1000ac20 f   advapi32:ADVAPI32.dll
 0001:00009c26       _RegCreateKeyExA@36        1000ac26 f   advapi32:ADVAPI32.dll
 0001:00009c2c       _RegDeleteKeyA@8           1000ac2c f   advapi32:ADVAPI32.dll
 0001:00009c32       _RegDeleteValueA@8         1000ac32 f   advapi32:ADVAPI32.dll
 0001:00009c38       _RegEnumKeyExA@32          1000ac38 f   advapi32:ADVAPI32.dll
 0001:00009c3e       _RegQueryInfoKeyW@48       1000ac3e f   advapi32:ADVAPI32.dll
 0001:00009c44       _CoCreateGuid@4            1000ac44 f   ole32:ole32.dll
 0001:00009c4a       _CoCreateInstance@20       1000ac4a f   ole32:ole32.dll
 0001:00009c50       _CoTaskMemAlloc@4          1000ac50 f   ole32:ole32.dll
 0001:00009c56       _CoTaskMemRealloc@8        1000ac56 f   ole32:ole32.dll
 0001:00009c5c       _CoTaskMemFree@4           1000ac5c f   ole32:ole32.dll
 0001:00009c62       _SysFreeString@4           1000ac62 f   oleaut32:OLEAUT32.dll
 0001:00009c68       _VarUI4FromStr@16          1000ac68 f   oleaut32:OLEAUT32.dll
 0001:00009c6e       ??$?2PAUHINSTANCE__@@@Wrapper@?$CSimpleArray@PAUHINSTANCE__@@V?$CSimpleArrayEqualHelper@PAUHINSTANCE__@@@ATL@@@ATL@@SAPAXIPAPAUHINSTANCE__@@@Z 1000ac6e f i atls:atlbase.obj
 0001:00009c76       ??0?$CSimpleArray@PAUHINSTANCE__@@V?$CSimpleArrayEqualHelper@PAUHINSTANCE__@@@ATL@@@ATL@@QAE@XZ 1000ac76 f i atls:atlbase.obj
 0001:00009c83       ??0CAtlBaseModule@ATL@@QAE@XZ 1000ac83 f   atls:atlbase.obj
 0001:00009cd6       ??0Wrapper@?$CSimpleArray@PAUHINSTANCE__@@V?$CSimpleArrayEqualHelper@PAUHINSTANCE__@@@ATL@@@ATL@@QAE@ABQAUHINSTANCE__@@@Z 1000acd6 f i atls:atlbase.obj
 0001:00009ce6       ??0_ATL_BASE_MODULE70@ATL@@QAE@XZ 1000ace6 f i atls:atlbase.obj
 0001:00009d09       ??1?$CSimpleArray@PAUHINSTANCE__@@V?$CSimpleArrayEqualHelper@PAUHINSTANCE__@@@ATL@@@ATL@@QAE@XZ 1000ad09 f i atls:atlbase.obj
 0001:00009d0e       ??1CAtlBaseModule@ATL@@QAE@XZ 1000ad0e f   atls:atlbase.obj
 0001:00009d24       ??1_ATL_BASE_MODULE70@ATL@@QAE@XZ 1000ad24 f i atls:atlbase.obj
 0001:00009d2c       ??A?$CSimpleArray@PAUHINSTANCE__@@V?$CSimpleArrayEqualHelper@PAUHINSTANCE__@@@ATL@@@ATL@@QAEAAPAUHINSTANCE__@@H@Z 1000ad2c f i atls:atlbase.obj
 0001:00009d56       ?Add@?$CSimpleArray@PAUHINSTANCE__@@V?$CSimpleArrayEqualHelper@PAUHINSTANCE__@@@ATL@@@ATL@@QAEHABQAUHINSTANCE__@@@Z 1000ad56 f i atls:atlbase.obj
 0001:00009dce       ?AddResourceInstance@CAtlBaseModule@ATL@@QAE_NPAUHINSTANCE__@@@Z 1000adce f   atls:atlbase.obj
 0001:00009e01       ?GetHInstanceAt@CAtlBaseModule@ATL@@QAEPAUHINSTANCE__@@H@Z 1000ae01 f   atls:atlbase.obj
 0001:00009e46       ?GetSize@?$CSimpleArray@PAUHINSTANCE__@@V?$CSimpleArrayEqualHelper@PAUHINSTANCE__@@@ATL@@@ATL@@QBEHXZ 1000ae46 f i atls:atlbase.obj
 0001:00009e4a       ?InternalSetAtIndex@?$CSimpleArray@PAUHINSTANCE__@@V?$CSimpleArrayEqualHelper@PAUHINSTANCE__@@@ATL@@@ATL@@QAEXHABQAUHINSTANCE__@@@Z 1000ae4a f i atls:atlbase.obj
 0001:00009e64       ?RemoveAll@?$CSimpleArray@PAUHINSTANCE__@@V?$CSimpleArrayEqualHelper@PAUHINSTANCE__@@@ATL@@@ATL@@QAEXXZ 1000ae64 f i atls:atlbase.obj
 0001:00009e81       ?RemoveAt@?$CSimpleArray@PAUHINSTANCE__@@V?$CSimpleArrayEqualHelper@PAUHINSTANCE__@@@ATL@@@ATL@@QAEHH@Z 1000ae81 f i atls:atlbase.obj
 0001:00009ec9       ?RemoveResourceInstance@CAtlBaseModule@ATL@@QAE_NPAUHINSTANCE__@@@Z 1000aec9 f   atls:atlbase.obj
 0001:00009f28       ?memmove_s@Checked@ATL@@YAXPAXIPBXI@Z 1000af28 f i atls:atlbase.obj
 0001:00009f47       ??0?$CTraceCategoryEx@$00$0A@@ATL@@QAE@PB_W@Z 1000af47 f i atls:stdafx.obj
 0001:00009f4c       ??0?$CTraceCategoryEx@$01$0A@@ATL@@QAE@PB_W@Z 1000af4c f i atls:stdafx.obj
 0001:00009f51       ??0?$CTraceCategoryEx@$03$0A@@ATL@@QAE@PB_W@Z 1000af51 f i atls:stdafx.obj
 0001:00009f56       ??0?$CTraceCategoryEx@$07$0A@@ATL@@QAE@PB_W@Z 1000af56 f i atls:stdafx.obj
 0001:00009f5b       ??0?$CTraceCategoryEx@$0BA@$0A@@ATL@@QAE@PB_W@Z 1000af5b f i atls:stdafx.obj
 0001:00009f60       ??0?$CTraceCategoryEx@$0BAA@$0A@@ATL@@QAE@PB_W@Z 1000af60 f i atls:stdafx.obj
 0001:00009f65       ??0?$CTraceCategoryEx@$0BAAA@$0A@@ATL@@QAE@PB_W@Z 1000af65 f i atls:stdafx.obj
 0001:00009f6a       ??0?$CTraceCategoryEx@$0BAAAA@$0A@@ATL@@QAE@PB_W@Z 1000af6a f i atls:stdafx.obj
 0001:00009f6f       ??0?$CTraceCategoryEx@$0BAAAAA@$0A@@ATL@@QAE@PB_W@Z 1000af6f f i atls:stdafx.obj
 0001:00009f74       ??0?$CTraceCategoryEx@$0CA@$0A@@ATL@@QAE@PB_W@Z 1000af74 f i atls:stdafx.obj
 0001:00009f79       ??0?$CTraceCategoryEx@$0CAA@$0A@@ATL@@QAE@PB_W@Z 1000af79 f i atls:stdafx.obj
 0001:00009f7e       ??0?$CTraceCategoryEx@$0CAAA@$0A@@ATL@@QAE@PB_W@Z 1000af7e f i atls:stdafx.obj
 0001:00009f83       ??0?$CTraceCategoryEx@$0CAAAA@$0A@@ATL@@QAE@PB_W@Z 1000af83 f i atls:stdafx.obj
 0001:00009f88       ??0?$CTraceCategoryEx@$0CAAAAA@$0A@@ATL@@QAE@PB_W@Z 1000af88 f i atls:stdafx.obj
 0001:00009f8d       ??0?$CTraceCategoryEx@$0EA@$0A@@ATL@@QAE@PB_W@Z 1000af8d f i atls:stdafx.obj
 0001:00009f92       ??0?$CTraceCategoryEx@$0EAA@$0A@@ATL@@QAE@PB_W@Z 1000af92 f i atls:stdafx.obj
 0001:00009f97       ??0?$CTraceCategoryEx@$0EAAA@$0A@@ATL@@QAE@PB_W@Z 1000af97 f i atls:stdafx.obj
 0001:00009f9c       ??0?$CTraceCategoryEx@$0EAAAA@$0A@@ATL@@QAE@PB_W@Z 1000af9c f i atls:stdafx.obj
 0001:00009fa1       ??0?$CTraceCategoryEx@$0EAAAAA@$0A@@ATL@@QAE@PB_W@Z 1000afa1 f i atls:stdafx.obj
 0001:00009fa6       ??0?$CTraceCategoryEx@$0IA@$0A@@ATL@@QAE@PB_W@Z 1000afa6 f i atls:stdafx.obj
 0001:00009fab       ??0?$CTraceCategoryEx@$0IAA@$0A@@ATL@@QAE@PB_W@Z 1000afab f i atls:stdafx.obj
 0001:00009fb0       ??0?$CTraceCategoryEx@$0IAAA@$0A@@ATL@@QAE@PB_W@Z 1000afb0 f i atls:stdafx.obj
 0001:00009fb5       ??0?$CTraceCategoryEx@$0IAAAA@$0A@@ATL@@QAE@PB_W@Z 1000afb5 f i atls:stdafx.obj
 0001:00009fba       ??_I@YGXPAXIHP6EX0@Z@Z     1000afba f i atls:stdafx.obj
 0001:00009fe0       ??3@YAXPAX@Z               1000afe0 f   LIBCMT:delete.obj
 0001:00009fe5       ??_M@YGXPAXIHP6EX0@Z@Z     1000afe5 f   LIBCMT:ehvecdtr.obj
 0001:0000a06d       ?__ArrayUnwind@@YGXPAXIHP6EX0@Z@Z 1000b06d f   LIBCMT:ehvecdtr.obj
 0001:0000a0cb       ___onexitinit              1000b0cb f   LIBCMT:onexit.obj
 0001:0000a0fa       __onexit                   1000b0fa f   LIBCMT:onexit.obj
 0001:0000a1f6       _atexit                    1000b1f6 f   LIBCMT:onexit.obj
 0001:0000a20b       ___copy_path_to_wide_string 1000b20b f   LIBCMT:crt0dat.obj
 0001:0000a2bd       ___copy_to_char            1000b2bd f   LIBCMT:crt0dat.obj
 0001:0000a372       ___crtCorExitProcess       1000b372 f   LIBCMT:crt0dat.obj
 0001:0000a3a6       ___crtExitProcess          1000b3a6 f   LIBCMT:crt0dat.obj
 0001:0000a3bc       ___freeCrtMemory           1000b3bc f   LIBCMT:crt0dat.obj
 0001:0000a4c9       __amsg_exit                1000b4c9 f   LIBCMT:crt0dat.obj
 0001:0000a4e5       __c_exit                   1000b4e5 f   LIBCMT:crt0dat.obj
 0001:0000a4f4       __cexit                    1000b4f4 f   LIBCMT:crt0dat.obj
 0001:0000a503       __cinit                    1000b503 f   LIBCMT:crt0dat.obj
 0001:0000a587       __exit                     1000b587 f   LIBCMT:crt0dat.obj
 0001:0000a59b       __exit_app                 1000b59b f   LIBCMT:crt0dat.obj
 0001:0000a5a9       __get_pgmptr               1000b5a9 f   LIBCMT:crt0dat.obj
 0001:0000a5d8       __get_wpgmptr              1000b5d8 f   LIBCMT:crt0dat.obj
 0001:0000a607       __init_pointers            1000b607 f   LIBCMT:crt0dat.obj
 0001:0000a675       __initterm_e               1000b675 f   LIBCMT:crt0dat.obj
 0001:0000a697       __lockexit                 1000b697 f   LIBCMT:crt0dat.obj
 0001:0000a6a0       __unlockexit               1000b6a0 f   LIBCMT:crt0dat.obj
 0001:0000a7d8       _exit                      1000b7d8 f   LIBCMT:crt0dat.obj
 0001:0000a7ec       _free                      1000b7ec f   LIBCMT:free.obj
 0001:0000a824       ??_U@YAPAXI@Z              1000b824 f   LIBCMT:new2.obj
 0001:0000a82d       ??_V@YAXPAX@Z              1000b82d f   LIBCMT:delete2.obj
 0001:0000a840       _memcpy                    1000b840 f   LIBCMT:memcpy.obj
 0001:0000ae90       _memset                    1000be90 f   LIBCMT:memset.obj
 0001:0000af20       _strcpy_s                  1000bf20 f   LIBCMT:strcpy_s.obj
 0001:0000af75       ??0_LocaleUpdate@@QAE@PAUlocaleinfo_struct@@@Z 1000bf75 f i LIBCMT:mbsstr.obj
 0001:0000affd       ??1_LocaleUpdate@@QAE@XZ   1000bffd f i LIBCMT:mbsstr.obj
 0001:0000b00b       ?GetLocaleT@_LocaleUpdate@@QAEPAUlocaleinfo_struct@@XZ 1000c00b f i LIBCMT:mbsstr.obj
 0001:0000b00e       __mbsstr                   1000c00e f   LIBCMT:mbsstr.obj
 0001:0000b023       __mbsstr_l                 1000c023 f   LIBCMT:mbsstr.obj
 0001:0000b105       __scprintf                 1000c105 f   LIBCMT:sprintf.obj
 0001:0000b118       __scprintf_l               1000c118 f   LIBCMT:sprintf.obj
 0001:0000b12f       __scprintf_p               1000c12f f   LIBCMT:sprintf.obj
 0001:0000b142       __scprintf_p_l             1000c142 f   LIBCMT:sprintf.obj
 0001:0000b159       __snprintf_s               1000c159 f   LIBCMT:sprintf.obj
 0001:0000b178       __snprintf_s_l             1000c178 f   LIBCMT:sprintf.obj
 0001:0000b198       __sprintf_l                1000c198 f   LIBCMT:sprintf.obj
 0001:0000b1b2       __sprintf_p                1000c1b2 f   LIBCMT:sprintf.obj
 0001:0000b1ce       __sprintf_p_l              1000c1ce f   LIBCMT:sprintf.obj
 0001:0000b1eb       __sprintf_s_l              1000c1eb f   LIBCMT:sprintf.obj
 0001:0000b208       _sprintf                   1000c208 f   LIBCMT:sprintf.obj
 0001:0000b28c       _sprintf_s                 1000c28c f   LIBCMT:sprintf.obj
 0001:0000b2a8       @__security_check_cookie@4 1000c2a8 f   LIBCMT:secchk.obj
 0001:0000b2b7       __CxxThrowException@8      1000c2b7 f   LIBCMT:throw.obj
 0001:0000b31a       __EH_epilog3               1000c31a f   LIBCMT:ehprolg3.obj
 0001:0000b32e       __EH_epilog3_GS            1000c32e f   LIBCMT:ehprolg3.obj
 0001:0000b33d       __EH_epilog3_catch_GS      1000c33d f   LIBCMT:ehprolg3.obj
 0001:0000b34c       __EH_prolog3               1000c34c f   LIBCMT:ehprolg3.obj
 0001:0000b37f       __EH_prolog3_GS            1000c37f f   LIBCMT:ehprolg3.obj
 0001:0000b3b5       __EH_prolog3_catch         1000c3b5 f   LIBCMT:ehprolg3.obj
 0001:0000b3eb       __EH_prolog3_catch_GS      1000c3eb f   LIBCMT:ehprolg3.obj
 0001:0000b430       __SEH_prolog4              1000c430 f   LIBCMT:sehprolg4.obj
 0001:0000b475       __SEH_epilog4              1000c475 f   LIBCMT:sehprolg4.obj
 0001:0000b559       ?_CallCatchBlock2@@YAPAXPAUEHRegistrationNode@@PBU_s_FuncInfo@@PAXHK@Z 1000c559 f   LIBCMT:_trnsctrl_.obj
 0001:0000b5b9       ?_CallMemberFunction0@@YGXPAX0@Z 1000c5b9 f   LIBCMT:_trnsctrl_.obj
 0001:0000b5c0       ?_CallMemberFunction1@@YGXPAX00@Z 1000c5c0 f   LIBCMT:_trnsctrl_.obj
 0001:0000b5c7       ?_CallMemberFunction2@@YGXPAX00H@Z 1000c5c7 f   LIBCMT:_trnsctrl_.obj
 0001:0000b5ce       ?_CallSETranslator@@YAHPAUEHExceptionRecord@@PAUEHRegistrationNode@@PAX2PBU_s_FuncInfo@@H1@Z 1000c5ce f   LIBCMT:_trnsctrl_.obj
 0001:0000b6a5       ?_GetRangeOfTrysToCheck@@YAPBU_s_TryBlockMapEntry@@PBU_s_FuncInfo@@HHPAI1@Z 1000c6a5 f   LIBCMT:_trnsctrl_.obj
 0001:0000b723       ?_JumpToContinuation@@YGXPAXPAUEHRegistrationNode@@@Z 1000c723 f   LIBCMT:_trnsctrl_.obj
 0001:0000b755       ?_UnwindNestedFrames@@YGXPAUEHRegistrationNode@@PAUEHExceptionRecord@@@Z 1000c755 f   LIBCMT:_trnsctrl_.obj
 0001:0000b7aa       __CreateFrameInfo          1000c7aa f   LIBCMT:_trnsctrl_.obj
 0001:0000b7d4       __FindAndUnlinkFrame       1000c7d4 f   LIBCMT:_trnsctrl_.obj
 0001:0000b824       __IsExceptionObjectToBeDestroyed 1000c824 f   LIBCMT:_trnsctrl_.obj
 0001:0000b84d       ___CxxFrameHandler         1000c84d f   LIBCMT:_trnsctrl_.obj
 0001:0000b883       ___CxxFrameHandler2        1000c883 f   LIBCMT:_trnsctrl_.obj
 0001:0000b8b9       ___CxxFrameHandler3        1000c8b9 f   LIBCMT:_trnsctrl_.obj
 0001:0000b8ef       ___CxxLongjmpUnwind@4      1000c8ef f   LIBCMT:_trnsctrl_.obj
 0001:0000b950       __except_handler4          1000c950 f   LIBCMT:chandler4.obj
 0001:0000bae4       ??0type_info@@AAE@ABV0@@Z  1000cae4 f   LIBCMT:typinfo.obj
 0001:0000baef       ??1type_info@@UAE@XZ       1000caef f   LIBCMT:typinfo.obj
 0001:0000bafd       ??4type_info@@AAEAAV0@ABV0@@Z 1000cafd f   LIBCMT:typinfo.obj
 0001:0000bb02       ??8type_info@@QBE_NABV0@@Z 1000cb02 f   LIBCMT:typinfo.obj
 0001:0000bb20       ??9type_info@@QBE_NABV0@@Z 1000cb20 f   LIBCMT:typinfo.obj
 0001:0000bb3f       ??_Etype_info@@UAEPAXI@Z   1000cb3f f i LIBCMT:typinfo.obj
 0001:0000bb3f       ??_Gtype_info@@UAEPAXI@Z   1000cb3f f i LIBCMT:typinfo.obj
 0001:0000bb5e       ?_name_internal_method@type_info@@QBEPBDPAU__type_info_node@@@Z 1000cb5e f   LIBCMT:typinfo.obj
 0001:0000bb70       ?_type_info_dtor_internal_method@type_info@@QAEXXZ 1000cb70 f   LIBCMT:typinfo.obj
 0001:0000bb78       ?before@type_info@@QBE_NABV1@@Z 1000cb78 f   LIBCMT:typinfo.obj
 0001:0000bb98       ?name@type_info@@QBEPBDPAU__type_info_node@@@Z 1000cb98 f   LIBCMT:typinfo.obj
 0001:0000bbaa       ?raw_name@type_info@@QBEPBDXZ 1000cbaa f   LIBCMT:typinfo.obj
 0001:0000bbae       ??0bad_alloc@std@@QAE@ABV01@@Z 1000cbae f i LIBCMT:new.obj
 0001:0000bbc9       ??0bad_alloc@std@@QAE@XZ   1000cbc9 f i LIBCMT:new.obj
 0001:0000bbef       ??1bad_alloc@std@@UAE@XZ   1000cbef f i LIBCMT:new.obj
 0001:0000bbfa       ??2@YAPAXI@Z               1000cbfa f   LIBCMT:new.obj
 0001:0000bc4b       ??_Ebad_alloc@std@@UAEPAXI@Z 1000cc4b f i LIBCMT:new.obj
 0001:0000bc4b       ??_Gbad_alloc@std@@UAEPAXI@Z 1000cc4b f i LIBCMT:new.obj
 0001:0000bc70       _strcat_s                  1000cc70 f   LIBCMT:strcat_s.obj
 0001:0000bce0       _strlen                    1000cce0 f   LIBCMT:strlen.obj
 0001:0000bd6b       __atoi64                   1000cd6b f   LIBCMT:atox.obj
 0001:0000bd7f       __atoi64_l                 1000cd7f f   LIBCMT:atox.obj
 0001:0000bd96       __atoi_l                   1000cd96 f   LIBCMT:atox.obj
 0001:0000bd9f       __atol_l                   1000cd9f f   LIBCMT:atox.obj
 0001:0000bdb6       __atoll_l                  1000cdb6 f   LIBCMT:atox.obj
 0001:0000bdcd       _atoi                      1000cdcd f   LIBCMT:atox.obj
 0001:0000bdd6       _atol                      1000cdd6 f   LIBCMT:atox.obj
 0001:0000bdea       _atoll                     1000cdea f   LIBCMT:atox.obj
 0001:0000bdfe       __mbscmp                   1000cdfe f   LIBCMT:mbscmp.obj
 0001:0000be13       __mbscmp_l                 1000ce13 f   LIBCMT:mbscmp.obj
 0001:0000bedc       __mbsnbcmp                 1000cedc f   LIBCMT:mbsnbcmp.obj
 0001:0000bef4       __mbsnbcmp_l               1000cef4 f   LIBCMT:mbsnbcmp.obj
 0001:0000c00b       __mbsnbcpy_s               1000d00b f   LIBCMT:mbsnbcpy_s.obj
 0001:0000c026       __cabs                     1000d026 f   LIBCMT:hypot.obj
 0001:0000c045       __hypot                    1000d045 f   LIBCMT:hypot.obj
 0001:0000c2b0       __fpmath                   1000d2b0 f   LIBCMT:fpinit.obj
 0001:0000c2c7       ___setfflag                1000d2c7 f   LIBCMT:fpinit.obj
 0001:0000c2da       __cfltcvt_init             1000d2da f   LIBCMT:fpinit.obj
 0001:0000c33a       __get_purecall_handler     1000d33a f   LIBCMT:purevirt.obj
 0001:0000c347       __purecall                 1000d347 f   LIBCMT:purevirt.obj
 0001:0000c369       __set_purecall_handler     1000d369 f   LIBCMT:purevirt.obj
 0001:0000c38e       ?_invalid_parameter@@YAXPBG00II@Z 1000d38e f   LIBCMT:invarg.obj
 0001:0000c393       ?_invoke_watson@@YAXPBG00II@Z 1000d393 f   LIBCMT:invarg.obj
 0001:0000c3ab       __call_reportfault         1000d3ab f   LIBCMT:invarg.obj
 0001:0000c4d0       __get_invalid_parameter_handler 1000d4d0 f   LIBCMT:invarg.obj
 0001:0000c4dd       __initp_misc_invarg        1000d4dd f   LIBCMT:invarg.obj
 0001:0000c4ea       __invalid_parameter        1000d4ea f   LIBCMT:invarg.obj
 0001:0000c515       __invalid_parameter_noinfo 1000d515 f   LIBCMT:invarg.obj
 0001:0000c525       __invalid_parameter_noinfo_noreturn 1000d525 f   LIBCMT:invarg.obj
 0001:0000c540       __invoke_watson            1000d540 f   LIBCMT:invarg.obj
 0001:0000c56b       __set_invalid_parameter_handler 1000d56b f   LIBCMT:invarg.obj
 0001:0000c590       __set_abort_behavior       1000d590 f   LIBCMT:abort.obj
 0001:0000c5af       _abort                     1000d5af f   LIBCMT:abort.obj
 0001:0000c600       _memmove                   1000d600 f   LIBCMT:memmove.obj
 0001:0000cc44       _wcslen                    1000dc44 f   LIBCMT:wcslen.obj
 0001:0000cc5d       __mbsicmp                  1000dc5d f   LIBCMT:mbsicmp.obj
 0001:0000cc72       __mbsicmp_l                1000dc72 f   LIBCMT:mbsicmp.obj
 0001:0000ce1f       __mbsrchr                  1000de1f f   LIBCMT:mbsrchr.obj
 0001:0000ce34       __mbsrchr_l                1000de34 f   LIBCMT:mbsrchr.obj
 0001:0000cec5       __ismbcdigit               1000dec5 f   LIBCMT:ismbdgt.obj
 0001:0000ced6       __ismbcdigit_l             1000ded6 f   LIBCMT:ismbdgt.obj
 0001:0000cf7c       __ismbcspace               1000df7c f   LIBCMT:ismbspc.obj
 0001:0000cf8d       __ismbcspace_l             1000df8d f   LIBCMT:ismbspc.obj
 0001:0000d031       __fclose_nolock            1000e031 f   LIBCMT:fclose.obj
 0001:0000d09d       _fclose                    1000e09d f   LIBCMT:fclose.obj
 0001:0000d114       __fsopen                   1000e114 f   LIBCMT:fopen.obj
 0001:0000d1d8       _fopen                     1000e1d8 f   LIBCMT:fopen.obj
 0001:0000d1ed       _fopen_s                   1000e1ed f   LIBCMT:fopen.obj
 0001:0000d232       __fprintf_l                1000e232 f   LIBCMT:fprintf.obj
 0001:0000d24c       __fprintf_p                1000e24c f   LIBCMT:fprintf.obj
 0001:0000d265       __fprintf_p_l              1000e265 f   LIBCMT:fprintf.obj
 0001:0000d27f       __fprintf_s_l              1000e27f f   LIBCMT:fprintf.obj
 0001:0000d299       _fprintf                   1000e299 f   LIBCMT:fprintf.obj
 0001:0000d3ab       _fprintf_s                 1000e3ab f   LIBCMT:fprintf.obj
 0001:0000d3c4       __get_printf_count_output  1000e3c4 f   LIBCMT:printf.obj
 0001:0000d3d9       __printf_l                 1000e3d9 f   LIBCMT:printf.obj
 0001:0000d3f0       __printf_p                 1000e3f0 f   LIBCMT:printf.obj
 0001:0000d406       __printf_p_l               1000e406 f   LIBCMT:printf.obj
 0001:0000d41d       __printf_s_l               1000e41d f   LIBCMT:printf.obj
 0001:0000d434       __set_printf_count_output  1000e434 f   LIBCMT:printf.obj
 0001:0000d45c       _printf                    1000e45c f   LIBCMT:printf.obj
 0001:0000d50b       _printf_s                  1000e50b f   LIBCMT:printf.obj
 0001:0000d521       __unlink                   1000e521 f   LIBCMT:unlink.obj
 0001:0000d52a       _remove                    1000e52a f   LIBCMT:unlink.obj
 0001:0000d56c       __beginthreadex            1000e56c f   LIBCMT:threadex.obj
 0001:0000d665       __endthreadex              1000e665 f   LIBCMT:threadex.obj
 0001:0000d7b8       ___fpecode                 1000e7b8 f   LIBCMT:winsig.obj
 0001:0000d7c1       ___get_sigabrt             1000e7c1 f   LIBCMT:winsig.obj
 0001:0000d7ce       ___pxcptinfoptrs           1000e7ce f   LIBCMT:winsig.obj
 0001:0000d7d7       __initp_misc_winsig        1000e7d7 f   LIBCMT:winsig.obj
 0001:0000d898       _raise                     1000e898 f   LIBCMT:winsig.obj
 0001:0000da8d       _signal                    1000ea8d f   LIBCMT:winsig.obj
 0001:0000dce4       __Getdays                  1000ece4 f   LIBCMT:strftime.obj
 0001:0000dced       __Getdays_l                1000eced f   LIBCMT:strftime.obj
 0001:0000ddd4       __Getmonths                1000edd4 f   LIBCMT:strftime.obj
 0001:0000dddd       __Getmonths_l              1000eddd f   LIBCMT:strftime.obj
 0001:0000ded0       __Gettnames                1000eed0 f   LIBCMT:strftime.obj
 0001:0000ded9       __Strftime                 1000eed9 f   LIBCMT:strftime.obj
 0001:0000def7       __Strftime_l               1000eef7 f   LIBCMT:strftime.obj
 0001:0000e01a       __invoke_watson_if_error   1000f01a f i LIBCMT:strftime.obj
 0001:0000e03a       __strftime_l               1000f03a f   LIBCMT:strftime.obj
 0001:0000e058       _strftime                  1000f058 f   LIBCMT:strftime.obj
 0001:0000e075       __localtime64              1000f075 f   LIBCMT:loctim64.obj
 0001:0000e09a       __localtime64_s            1000f09a f   LIBCMT:loctim64.obj
 0001:0000e314       __time64                   1000f314 f   LIBCMT:time64.obj
 0001:0000e365       ?__set_inconsistency@@YAP6AXXZP6AXXZ@Z 1000f365 f   LIBCMT:user.obj
 0001:0000e38a       ?_set_se_translator@@YAP6AXIPAU_EXCEPTION_POINTERS@@@ZH@Z 1000f38a f   LIBCMT:user.obj
 0001:0000e3a1       ?_set_se_translator@@YAP6AXIPAU_EXCEPTION_POINTERS@@@ZP6AXI0@Z@Z 1000f3a1 f   LIBCMT:user.obj
 0001:0000e3c3       ?set_terminate@@YAP6AXXZH@Z 1000f3c3 f   LIBCMT:user.obj
 0001:0000e3da       ?set_terminate@@YAP6AXXZP6AXXZ@Z 1000f3da f   LIBCMT:user.obj
 0001:0000e408       ?set_unexpected@@YAP6AXXZH@Z 1000f408 f   LIBCMT:user.obj
 0001:0000e41f       ?set_unexpected@@YAP6AXXZP6AXXZ@Z 1000f41f f   LIBCMT:user.obj
 0001:0000e44d       __get_terminate            1000f44d f   LIBCMT:user.obj
 0001:0000e456       __get_unexpected           1000f456 f   LIBCMT:user.obj
 0001:0000e460       __alldiv                   1000f460 f   LIBCMT:lldiv.obj
 0001:0000e50a       ___raise_securityfailure   1000f50a f   LIBCMT:gs_report.obj
 0001:0000e547       ___report_gsfailure        1000f547 f   LIBCMT:gs_report.obj
 0001:0000e642       ___report_rangecheckfailure 1000f642 f   LIBCMT:gs_report.obj
 0001:0000e64e       ___report_securityfailure  1000f64e f   LIBCMT:gs_report.obj
 0001:0000e71e       ___report_securityfailureEx 1000f71e f   LIBCMT:gs_report.obj
 0001:0000e834       __heap_alloc               1000f834 f i LIBCMT:malloc.obj
 0001:0000e871       _malloc                    1000f871 f   LIBCMT:malloc.obj
 0001:0000e903       __recalloc                 1000f903 f   LIBCMT:recalloc.obj
 0001:0000e96c       ??_U@YAPAXIABUnothrow_t@std@@@Z 1000f96c f   LIBCMT:newaopnt.obj
 0001:0000e975       __resetstkoflw             1000f975 f   LIBCMT:resetstk.obj
 0001:0000ea45       _memcpy_s                  1000fa45 f   LIBCMT:memcpy_s.obj
 0001:0000ead0       __SEH_prolog4_GS           1000fad0 f   LIBCMT:sehprolg4gs.obj
 0001:0000eb18       __SEH_epilog4_GS           1000fb18 f   LIBCMT:sehprolg4gs.obj
 0001:0000eb30       __alloca_probe_16          1000fb30 f   LIBCMT:alloca16.obj
 0001:0000eb46       __alloca_probe_8           1000fb46     LIBCMT:alloca16.obj
 0001:0000eb60       __chkstk                   1000fb60 f   LIBCMT:chkstk.obj
 0001:0000eb60       __alloca_probe             1000fb60 f   LIBCMT:chkstk.obj
 0001:0000eb8b       __CRT_INIT@12              1000fb8b f   LIBCMT:dllcrt0.obj
 0001:0000ecfd       __DllMainCRTStartup@12     1000fcfd f   LIBCMT:dllcrt0.obj
 0001:0000ee2e       ___DllXcptFilter           1000fe2e f   LIBCMT:dllcrt0.obj
 0001:0000ee53       _memmove_s                 1000fe53 f   LIBCMT:memmove_s.obj
 0001:0000ee9f       ?_inconsistency@@YAXXZ     1000fe9f f   LIBCMT:hooks.obj
 0001:0000eed7       ?terminate@@YAXXZ          1000fed7 f   LIBCMT:hooks.obj
 0001:0000ef0b       ?unexpected@@YAXXZ         1000ff0b f   LIBCMT:hooks.obj
 0001:0000ef1e       __initp_eh_hooks           1000ff1e f   LIBCMT:hooks.obj
 0001:0000ef2f       __msize                    1000ff2f f   LIBCMT:msize.obj
 0001:0000ef60       __calloc_crt               1000ff60 f   LIBCMT:crtheap.obj
 0001:0000efa8       __malloc_crt               1000ffa8 f   LIBCMT:crtheap.obj
 0001:0000efef       __realloc_crt              1000ffef f   LIBCMT:crtheap.obj
 0001:0000f039       __recalloc_crt             10010039 f   LIBCMT:crtheap.obj
 0001:0000f087       __set_malloc_crt_max_wait  10010087 f   LIBCMT:crtheap.obj
 0001:0000f09a       _wait_a_bit                1001009a f i LIBCMT:crtheap.obj
 0001:0000f0be       __RTC_Initialize           100100be f   LIBCMT:initsect.obj
 0001:0000f0de       __RTC_Terminate            100100de f   LIBCMT:initsect.obj
 0001:0000f0fe       __lock                     100100fe f   LIBCMT:mlock.obj
 0001:0000f132       __lockerr_exit             10010132 f   LIBCMT:mlock.obj
 0001:0000f152       __mtdeletelocks            10010152 f   LIBCMT:mlock.obj
 0001:0000f1a6       __mtinitlocknum            100101a6 f   LIBCMT:mlock.obj
 0001:0000f24f       __mtinitlocks              1001024f f   LIBCMT:mlock.obj
 0001:0000f288       __unlock                   10010288 f   LIBCMT:mlock.obj
 0001:0000f2ca       ___crtCloseThreadpoolTimer 100102ca f   LIBCMT:winapisupp.obj
 0001:0000f2e1       ___crtCloseThreadpoolWait  100102e1 f   LIBCMT:winapisupp.obj
 0001:0000f2f8       ___crtCreateEventExW       100102f8 f   LIBCMT:winapisupp.obj
 0001:0000f333       ___crtCreateSemaphoreExW   10010333 f   LIBCMT:winapisupp.obj
 0001:0000f36d       ___crtCreateSymbolicLinkW  1001036d f   LIBCMT:winapisupp.obj
 0001:0000f396       ___crtCreateThreadpoolTimer 10010396 f   LIBCMT:winapisupp.obj
 0001:0000f3b7       ___crtCreateThreadpoolWait 100103b7 f   LIBCMT:winapisupp.obj
 0001:0000f3d8       ___crtFlsAlloc             100103d8 f   LIBCMT:winapisupp.obj
 0001:0000f3f6       ___crtFlsFree              100103f6 f   LIBCMT:winapisupp.obj
 0001:0000f415       ___crtFlsGetValue          10010415 f   LIBCMT:winapisupp.obj
 0001:0000f434       ___crtFlsSetValue          10010434 f   LIBCMT:winapisupp.obj
 0001:0000f456       ___crtFlushProcessWriteBuffers 10010456 f   LIBCMT:winapisupp.obj
 0001:0000f466       ___crtFreeLibraryWhenCallbackReturns 10010466 f   LIBCMT:winapisupp.obj
 0001:0000f480       ___crtGetCurrentProcessorNumber 10010480 f   LIBCMT:winapisupp.obj
 0001:0000f492       ___crtGetFileInformationByHandleEx 10010492 f   LIBCMT:winapisupp.obj
 0001:0000f4be       ___crtGetLogicalProcessorInformation 100104be f   LIBCMT:winapisupp.obj
 0001:0000f4e4       ___crtGetShowWindowMode    100104e4 f   LIBCMT:winapisupp.obj
 0001:0000f507       ___crtGetTickCount64       10010507 f   LIBCMT:winapisupp.obj
 0001:0000f51f       ___crtInitializeCriticalSectionEx 1001051f f   LIBCMT:winapisupp.obj
 0001:0000f54d       ___crtIsPackagedApp        1001054d f   LIBCMT:winapisupp.obj
 0001:0000f58d       ___crtLoadWinApiPointers   1001058d f   LIBCMT:winapisupp.obj
 0001:0000f818       ___crtSetFileInformationByHandle 10010818 f   LIBCMT:winapisupp.obj
 0001:0000f844       ___crtSetThreadStackGuarantee 10010844 f   LIBCMT:winapisupp.obj
 0001:0000f85f       ___crtSetThreadpoolTimer   1001085f f   LIBCMT:winapisupp.obj
 0001:0000f87f       ___crtSetThreadpoolWait    1001087f f   LIBCMT:winapisupp.obj
 0001:0000f89c       ___crtSetUnhandledExceptionFilter 1001089c f   LIBCMT:winapisupp.obj
 0001:0000f8aa       ___crtSleep                100108aa f   LIBCMT:winapisupp.obj
 0001:0000f8b8       ___crtTerminateProcess     100108b8 f   LIBCMT:winapisupp.obj
 0001:0000f8cd       ___crtUnhandledException   100108cd f   LIBCMT:winapisupp.obj
 0001:0000f8e3       ___crtWaitForThreadpoolTimerCallbacks 100108e3 f   LIBCMT:winapisupp.obj
 0001:0000f8fd       __FF_MSGBANNER             100108fd f   LIBCMT:crt0msg.obj
 0001:0000f936       __GET_RTERRMSG             10010936 f   LIBCMT:crt0msg.obj
 0001:0000f95a       __NMSG_WRITE               1001095a f   LIBCMT:crt0msg.obj
 0001:0000fb17       ___doserrno                10010b17 f   LIBCMT:dosmap.obj
 0001:0000fb2a       __dosmaperr                10010b2a f   LIBCMT:dosmap.obj
 0001:0000fb4b       __errno                    10010b4b f   LIBCMT:dosmap.obj
 0001:0000fb5e       __get_doserrno             10010b5e f   LIBCMT:dosmap.obj
 0001:0000fb81       __get_errno                10010b81 f   LIBCMT:dosmap.obj
 0001:0000fba4       __get_errno_from_oserr     10010ba4 f   LIBCMT:dosmap.obj
 0001:0000fbe5       __set_doserrno             10010be5 f   LIBCMT:dosmap.obj
 0001:0000fc04       __set_errno                10010c04 f   LIBCMT:dosmap.obj
 0001:0000fc30       __FindPESection            10010c30 f   LIBCMT:pesect.obj
 0001:0000fc80       __IsNonwritableInCurrentImage 10010c80 f   LIBCMT:pesect.obj
 0001:0000fd40       __ValidateImageBase        10010d40 f   LIBCMT:pesect.obj
 0001:0000fd71       __initp_misc_cfltcvt_tab   10010d71 f   LIBCMT:cmiscdat.obj
 0001:0000fd90       ?_query_new_handler@@YAP6AHI@ZXZ 10010d90 f   LIBCMT:handler.obj
 0001:0000fd9d       ?_set_new_handler@@YAP6AHI@ZH@Z 10010d9d f   LIBCMT:handler.obj
 0001:0000fda6       ?_set_new_handler@@YAP6AHI@ZP6AHI@Z@Z 10010da6 f   LIBCMT:handler.obj
 0001:0000fddb       __callnewh                 10010ddb f   LIBCMT:handler.obj
 0001:0000fe01       __initp_heap_handler       10010e01 f   LIBCMT:handler.obj
 0001:0000fe0e       ___getlocaleinfo           10010e0e f   LIBCMT:inithelp.obj
 0001:0000ffe7       __initp_misc_purevirt      10010fe7 f   LIBCMT:inithelp.obj
 0001:0000fff4       __initp_misc_rand_s        10010ff4 f   LIBCMT:rand_s.obj
 0001:00010001       _rand_s                    10011001 f   LIBCMT:rand_s.obj
 0001:00010107       ___initmbctable            10011107 f   LIBCMT:mbctype.obj
 0001:000103be       ___updatetmbcinfo          100113be f   LIBCMT:mbctype.obj
 0001:00010464       __getmbcp                  10011464 f   LIBCMT:mbctype.obj
 0001:00010495       __setmbcp                  10011495 f   LIBCMT:mbctype.obj
 0001:0001063d       __setmbcp_nolock           1001163d f   LIBCMT:mbctype.obj
 0001:00010828       __ftbuf                    10011828 f   LIBCMT:_sftbuf.obj
 0001:00010859       __stbuf                    10011859 f   LIBCMT:_sftbuf.obj
 0001:000108ff       __get_heap_handle          100118ff f   LIBCMT:heapinit.obj
 0001:00010905       __heap_init                10011905 f   LIBCMT:heapinit.obj
 0001:0001091a       __heap_term                1001191a f   LIBCMT:heapinit.obj
 0001:00010922       ___isa_available_init      10011922 f   LIBCMT:cpu_disp.obj
 0001:00010a9b       __VEC_memset               10011a9b f   LIBCMT:p4_memset.obj
 0001:00010b63       ___addlocaleref            10011b63 f   LIBCMT:localref.obj
 0001:00010bf8       ___freetlocinfo            10011bf8 f   LIBCMT:localref.obj
 0001:00010d52       ___removelocaleref         10011d52 f   LIBCMT:localref.obj
 0001:00010df2       ___updatetlocinfo          10011df2 f   LIBCMT:localref.obj
 0001:00010e72       __updatetlocinfoEx_nolock  10011e72 f   LIBCMT:localref.obj
 0001:00010ec0       _strstr                    10011ec0 f   LIBCMT:strstr.obj
 0001:00011123       ___get_flsindex            10012123 f   LIBCMT:tidtable.obj
 0001:00011129       ___threadhandle            10012129 f   LIBCMT:tidtable.obj
 0001:0001112f       ___threadid                1001212f f   LIBCMT:tidtable.obj
 0001:00011135       __freefls@4                10012135 f   LIBCMT:tidtable.obj
 0001:0001126a       __freeptd                  1001226a f   LIBCMT:tidtable.obj
 0001:000112a0       __getptd                   100122a0 f   LIBCMT:tidtable.obj
 0001:000112b8       __getptd_noexit            100122b8 f   LIBCMT:tidtable.obj
 0001:00011327       __initptd                  10012327 f   LIBCMT:tidtable.obj
 0001:000113da       __mtinit                   100123da f   LIBCMT:tidtable.obj
 0001:00011450       __mtterm                   10012450 f   LIBCMT:tidtable.obj
 0001:0001146d       __flsbuf                   1001246d f   LIBCMT:_flsbuf.obj
 0001:000115bc       __vscprintf                100125bc f   LIBCMT:vsprintf.obj
 0001:000115d6       __vscprintf_helper         100125d6 f   LIBCMT:vsprintf.obj
 0001:00011632       __vscprintf_l              10012632 f   LIBCMT:vsprintf.obj
 0001:0001164d       __vscprintf_p              1001264d f   LIBCMT:vsprintf.obj
 0001:00011667       __vscprintf_p_l            10012667 f   LIBCMT:vsprintf.obj
 0001:00011682       __vsprintf_l               10012682 f   LIBCMT:vsprintf.obj
 0001:00011706       _vsprintf                  10012706 f   LIBCMT:vsprintf.obj
 0001:0001171e       __vsnprintf_c              1001271e f   LIBCMT:vsnprnc.obj
 0001:00011745       __vsnprintf_c_l            10012745 f   LIBCMT:vsnprnc.obj
 0001:0001176d       __vsnprintf_helper         1001276d f   LIBCMT:vsnprnc.obj
 0001:00011837       __vsnprintf_s              10012837 f   LIBCMT:vsnprnc.obj
 0001:00011855       __vsnprintf_s_l            10012855 f   LIBCMT:vsnprnc.obj
 0001:00011955       __vsprintf_p               10012955 f   LIBCMT:vsnprnc.obj
 0001:0001197c       __vsprintf_p_l             1001297c f   LIBCMT:vsnprnc.obj
 0001:000119a4       __vsprintf_s_l             100129a4 f   LIBCMT:vsnprnc.obj
 0001:00011a19       _vsprintf_s                10012a19 f   LIBCMT:vsnprnc.obj
 0001:00011a34       __output_l                 10012a34 f   LIBCMT:output.obj
 0001:000125b4       _get_int64_arg             100135b4 f i LIBCMT:output.obj
 0001:000125c7       _get_int_arg               100135c7 f i LIBCMT:output.obj
 0001:000125d7       _get_short_arg             100135d7 f i LIBCMT:output.obj
 0001:000126e0       __CallSettingFrame@12      100136e0 f   LIBCMT:lowhelpr.obj
 0001:00012707       __NLG_Return               10013707     LIBCMT:lowhelpr.obj
 0001:0001272c       ___DestructExceptionObject 1001372c f   LIBCMT:frame.obj
 0001:000127b7       ??0bad_exception@std@@QAE@ABV01@@Z 100137b7 f i LIBCMT:frame.obj
 0001:000127d2       ??0bad_exception@std@@QAE@PBD@Z 100137d2 f i LIBCMT:frame.obj
 0001:000127ee       ??1bad_exception@std@@UAE@XZ 100137ee f i LIBCMT:frame.obj
 0001:000127f9       ??_Gbad_exception@std@@UAEPAXI@Z 100137f9 f i LIBCMT:frame.obj
 0001:000127f9       ??_Ebad_exception@std@@UAEPAXI@Z 100137f9 f i LIBCMT:frame.obj
 0001:00013066       ?__uncaught_exception@@YA_NXZ 10014066 f   LIBCMT:frame.obj
 0001:00013077       ?_is_exception_typeof@@YAHABVtype_info@@PAU_EXCEPTION_POINTERS@@@Z 10014077 f   LIBCMT:frame.obj
 0001:000130fe       __SetWinRTOutOfMemoryExceptionCallback 100140fe f   LIBCMT:frame.obj
 0001:0001310b       ___AdjustPointer           1001410b f   LIBCMT:frame.obj
 0001:00013130       ___BuildCatchObject        10014130 f   LIBCMT:frame.obj
 0001:000131be       ___BuildCatchObjectHelper  100141be f   LIBCMT:frame.obj
 0001:00013380       ___CxxDetectRethrow        10014380 f   LIBCMT:frame.obj
 0001:000133cf       ___CxxExceptionFilter      100143cf f   LIBCMT:frame.obj
 0001:00013529       ___CxxQueryExceptionSize   10014529 f   LIBCMT:frame.obj
 0001:0001352d       ___CxxRegisterExceptionObject 1001452d f   LIBCMT:frame.obj
 0001:000135e4       ___CxxUnregisterExceptionObject 100145e4 f   LIBCMT:frame.obj
 0001:00013721       ___FrameUnwindFilter       10014721 f   LIBCMT:frame.obj
 0001:0001376f       ___FrameUnwindToState      1001476f f   LIBCMT:frame.obj
 0001:00013848       ___GetPlatformExceptionInfo 10014848 f   LIBCMT:frame.obj
 0001:0001389d       ___InternalCxxFrameHandler 1001489d f   LIBCMT:frame.obj
 0001:0001397e       ___TypeMatch               1001497e f   LIBCMT:frame.obj
 0001:000139f0       __local_unwind4            100149f0 f   LIBCMT:exsup4.obj
 0001:00013ac6       __seh_longjmp_unwind4@4    10014ac6 f   LIBCMT:exsup4.obj
 0001:00013ae2       @_EH4_CallFilterFunc@8     10014ae2 f   LIBCMT:exsup4.obj
 0001:00013af9       @_EH4_TransferToHandler@8  10014af9 f   LIBCMT:exsup4.obj
 0001:00013b12       @_EH4_GlobalUnwind2@8      10014b12 f   LIBCMT:exsup4.obj
 0001:00013b2b       @_EH4_LocalUnwind@16       10014b2b f   LIBCMT:exsup4.obj
 0001:00013b50       _strcmp                    10014b50 f   LIBCMT:strcmp.obj
 0001:00013bdc       ?_Name_base@type_info@@CAPBDPBV1@PAU__type_info_node@@@Z 10014bdc f   LIBCMT:typname.obj
 0001:00013ccd       ?_Name_base_internal@type_info@@CAPBDPBV1@PAU__type_info_node@@@Z 10014ccd f   LIBCMT:typname.obj
 0001:00013dd7       ?_Type_info_dtor@type_info@@CAXPAV1@@Z 10014dd7 f   LIBCMT:typname.obj
 0001:00013e48       ?_Type_info_dtor_internal@type_info@@CAXPAV1@@Z 10014e48 f   LIBCMT:typname.obj
 0001:00013eb9       ___clean_type_info_names_internal 10014eb9 f   LIBCMT:typname.obj
 0001:00013f0c       ___unDNameHelper           10014f0c f   LIBCMT:typname.obj
 0001:00013f3a       ??0__non_rtti_object@std@@QAE@ABV01@@Z 10014f3a f   LIBCMT:stdexcpt.obj
 0001:00013f55       ??0__non_rtti_object@std@@QAE@PBD@Z 10014f55 f   LIBCMT:stdexcpt.obj
 0001:00013f70       ??0bad_cast@std@@QAE@ABV01@@Z 10014f70 f   LIBCMT:stdexcpt.obj
 0001:00013f8b       ??0bad_cast@std@@QAE@PBD@Z 10014f8b f   LIBCMT:stdexcpt.obj
 0001:00013fa7       ??0bad_typeid@std@@QAE@ABV01@@Z 10014fa7 f   LIBCMT:stdexcpt.obj
 0001:00013fc2       ??0bad_typeid@std@@QAE@PBD@Z 10014fc2 f   LIBCMT:stdexcpt.obj
 0001:00013fde       ??0exception@std@@QAE@ABQBD@Z 10014fde f   LIBCMT:stdexcpt.obj
 0001:00014003       ??0exception@std@@QAE@ABQBDH@Z 10015003 f   LIBCMT:stdexcpt.obj
 0001:0001401e       ??0exception@std@@QAE@ABV01@@Z 1001501e f   LIBCMT:stdexcpt.obj
 0001:00014041       ??0exception@std@@QAE@XZ   10015041 f   LIBCMT:stdexcpt.obj
 0001:00014052       ??1__non_rtti_object@std@@UAE@XZ 10015052 f   LIBCMT:stdexcpt.obj
 0001:0001405d       ??1bad_cast@std@@UAE@XZ    1001505d f   LIBCMT:stdexcpt.obj
 0001:00014068       ??1bad_typeid@std@@UAE@XZ  10015068 f   LIBCMT:stdexcpt.obj
 0001:00014073       ??1exception@std@@UAE@XZ   10015073 f   LIBCMT:stdexcpt.obj
 0001:0001407e       ??4exception@std@@QAEAAV01@ABV01@@Z 1001507e f   LIBCMT:stdexcpt.obj
 0001:000140b1       ??_G__non_rtti_object@std@@UAEPAXI@Z 100150b1 f i LIBCMT:stdexcpt.obj
 0001:000140b1       ??_E__non_rtti_object@std@@UAEPAXI@Z 100150b1 f i LIBCMT:stdexcpt.obj
 0001:000140d6       ??_Ebad_cast@std@@UAEPAXI@Z 100150d6 f i LIBCMT:stdexcpt.obj
 0001:000140d6       ??_Gbad_cast@std@@UAEPAXI@Z 100150d6 f i LIBCMT:stdexcpt.obj
 0001:000140fb       ??_Ebad_typeid@std@@UAEPAXI@Z 100150fb f i LIBCMT:stdexcpt.obj
 0001:000140fb       ??_Gbad_typeid@std@@UAEPAXI@Z 100150fb f i LIBCMT:stdexcpt.obj
 0001:00014120       ??_Gexception@std@@UAEPAXI@Z 10015120 f i LIBCMT:stdexcpt.obj
 0001:00014120       ??_Eexception@std@@UAEPAXI@Z 10015120 f i LIBCMT:stdexcpt.obj
 0001:00014145       ?_Copy_str@exception@std@@AAEXPBD@Z 10015145 f   LIBCMT:stdexcpt.obj
 0001:00014183       ?_Tidy@exception@std@@AAEXXZ 10015183 f   LIBCMT:stdexcpt.obj
 0001:0001419f       ?what@exception@std@@UBEPBDXZ 1001519f f   LIBCMT:stdexcpt.obj
 0001:0001441c       __strtof_l                 1001541c f   LIBCMT:strtoq.obj
 0001:0001443c       __strtoi64                 1001543c f   LIBCMT:strtoq.obj
 0001:00014466       __strtoi64_l               10015466 f   LIBCMT:strtoq.obj
 0001:00014481       __strtoimax_l              10015481 f   LIBCMT:strtoq.obj
 0001:0001448a       __strtold_l                1001548a f   LIBCMT:strtoq.obj
 0001:00014493       __strtoll_l                10015493 f   LIBCMT:strtoq.obj
 0001:0001449c       __strtoui64                1001549c f   LIBCMT:strtoq.obj
 0001:000144c6       __strtoui64_l              100154c6 f   LIBCMT:strtoq.obj
 0001:000144e1       __strtoull_l               100154e1 f   LIBCMT:strtoq.obj
 0001:000144ea       __strtoumax_l              100154ea f   LIBCMT:strtoq.obj
 0001:000144f3       _strtof                    100154f3 f   LIBCMT:strtoq.obj
 0001:00014512       _strtoimax                 10015512 f   LIBCMT:strtoq.obj
 0001:0001451b       _strtold                   1001551b f   LIBCMT:strtoq.obj
 0001:00014524       _strtoll                   10015524 f   LIBCMT:strtoq.obj
 0001:0001452d       _strtoull                  1001552d f   LIBCMT:strtoq.obj
 0001:00014536       _strtoumax                 10015536 f   LIBCMT:strtoq.obj
 0001:00014765       __strtol_l                 10015765 f   LIBCMT:strtol.obj
 0001:00014780       __strtoul_l                10015780 f   LIBCMT:strtol.obj
 0001:0001479b       _strtol                    1001579b f   LIBCMT:strtol.obj
 0001:000147c5       _strtoul                   100157c5 f   LIBCMT:strtol.obj
 0001:000147f0       _strncmp                   100157f0 f   LIBCMT:strncmp.obj
 0001:00014868       __mbsnbcpy_s_l             10015868 f   LIBCMT:mbsnbcpy_s_l.obj
 0001:00014a40       __CIsqrt                   10015a40 f   LIBCMT:sqrt.obj
 0001:00014a54       _sqrt                      10015a54     LIBCMT:sqrt.obj
 0001:00014afa       __add_exp                  10015afa f   LIBCMT:util.obj
 0001:00014b29       __decomp                   10015b29 f   LIBCMT:util.obj
 0001:00014bfb       __get_exp                  10015bfb f   LIBCMT:util.obj
 0001:00014c14       __set_bexp                 10015c14 f   LIBCMT:util.obj
 0001:00014c3d       __set_exp                  10015c3d f   LIBCMT:util.obj
 0001:00014c6c       __sptype                   10015c6c f   LIBCMT:util.obj
 0001:00014cc7       __errcode                  10015cc7 f   LIBCMT:fpexcept.obj
 0001:00014cf9       __except1                  10015cf9 f   LIBCMT:fpexcept.obj
 0001:00014dc1       __except2                  10015dc1 f   LIBCMT:fpexcept.obj
 0001:00014ec1       __handle_exc               10015ec1 f   LIBCMT:fpexcept.obj
 0001:0001509f       __handle_qnan1             1001609f f   LIBCMT:fpexcept.obj
 0001:000150ef       __handle_qnan2             100160ef f   LIBCMT:fpexcept.obj
 0001:0001514f       __raise_exc                1001614f f   LIBCMT:fpexcept.obj
 0001:00015170       __raise_exc_ex             10016170 f   LIBCMT:fpexcept.obj
 0001:00015455       __raise_excf               10016455 f   LIBCMT:fpexcept.obj
 0001:00015476       __set_errno_from_matherr   10016476 f   LIBCMT:fpexcept.obj
 0001:000154a3       __umatherr                 100164a3 f   LIBCMT:fpexcept.obj
 0001:00015543       ___clrfp_sse2              10016543 f   LIBCMT:fpctrl.obj
 0001:00015564       ___ctrlfp_sse2             10016564 f   LIBCMT:fpctrl.obj
 0001:0001559d       ___fclrf_sse2              1001659d f   LIBCMT:fpctrl.obj
 0001:000155ba       ___get_fpsr_sse2           100165ba f   LIBCMT:fpctrl.obj
 0001:000155d6       ___set_fpsr_sse2           100165d6 f   LIBCMT:fpctrl.obj
 0001:0001564c       ___set_statfp_sse2         1001664c f   LIBCMT:fpctrl.obj
 0001:00015665       ___statfp_sse2             10016665 f   LIBCMT:fpctrl.obj
 0001:0001567a       __clrfp                    1001667a f   LIBCMT:fpctrl.obj
 0001:0001568b       __ctrlfp                   1001668b f   LIBCMT:fpctrl.obj
 0001:000156b6       __set_statfp               100166b6 f   LIBCMT:fpctrl.obj
 0001:0001570e       __statfp                   1001670e f   LIBCMT:fpctrl.obj
 0001:0001571e       ?strrchr@@YAPADPADH@Z      1001671e f i LIBCMT:cvt.obj
 0001:00015727       __cfltcvt                  10016727 f   LIBCMT:cvt.obj
 0001:00015748       __cfltcvt_l                10016748 f   LIBCMT:cvt.obj
 0001:000157ce       __cftoa                    100167ce f   LIBCMT:cvt.obj
 0001:000157ec       __cftoa_l                  100167ec f   LIBCMT:cvt.obj
 0001:00015b48       __cftoe                    10016b48 f   LIBCMT:cvt.obj
 0001:00015cb7       __cftoe_l                  10016cb7 f   LIBCMT:cvt.obj
 0001:00015d85       __cftof                    10016d85 f   LIBCMT:cvt.obj
 0001:00015e8c       __cftof_l                  10016e8c f   LIBCMT:cvt.obj
 0001:00015f4d       __cftog                    10016f4d f   LIBCMT:cvt.obj
 0001:00015f6b       __cftog_l                  10016f6b f   LIBCMT:cvt.obj
 0001:0001606a       __cropzeros                1001706a f   LIBCMT:cvt.obj
 0001:0001607b       __cropzeros_l              1001707b f   LIBCMT:cvt.obj
 0001:000160fb       __fassign                  100170fb f   LIBCMT:cvt.obj
 0001:00016113       __fassign_l                10017113 f   LIBCMT:cvt.obj
 0001:00016155       __forcdecpt                10017155 f   LIBCMT:cvt.obj
 0001:00016166       __forcdecpt_l              10017166 f   LIBCMT:cvt.obj
 0001:000161da       __positive                 100171da f   LIBCMT:cvt.obj
 0001:0001621c       __setdefaultprecision      1001721c f   LIBCMT:fp8.obj
 0001:00016243       __crt_debugger_hook        10017243 f   LIBCMT:dbghook.obj
 0001:0001624b       ___ascii_stricmp           1001724b f   LIBCMT:stricmp.obj
 0001:00016284       __stricmp                  10017284 f   LIBCMT:stricmp.obj
 0001:000162cb       __stricmp_l                100172cb f   LIBCMT:stricmp.obj
 0001:00016584       __MallocaIsSizeInRange     10017584 f i LIBCMT:a_map.obj
 0001:00016595       __MarkAllocaS              10017595 f i LIBCMT:a_map.obj
 0001:000165a9       ___crtLCMapStringA         100175a9 f   LIBCMT:a_map.obj
 0001:000165ef       __freea                    100175ef f i LIBCMT:a_map.obj
 0001:00016610       _strrchr                   10017610 f   LIBCMT:strrchr.obj
 0001:00016747       __isctype                  10017747 f   LIBCMT:isctype.obj
 0001:00016776       __isctype_l                10017776 f   LIBCMT:isctype.obj
 0001:0001691f       ___crtGetStringTypeA       1001791f f   LIBCMT:a_str.obj
 0001:0001695f       __fileno                   1001795f f   LIBCMT:fileno.obj
 0001:00016983       ___initstdio               10017983 f   LIBCMT:_file.obj
 0001:000169f6       ___endstdio                100179f6 f   LIBCMT:_file.obj
 0001:00016a1d       ___iob_func                10017a1d f   LIBCMT:_file.obj
 0001:00016a23       __lock_file                10017a23 f   LIBCMT:_file.obj
 0001:00016a62       __lock_file2               10017a62 f   LIBCMT:_file.obj
 0001:00016a92       __unlock_file              10017a92 f   LIBCMT:_file.obj
 0001:00016acc       __unlock_file2             10017acc f   LIBCMT:_file.obj
 0001:00016af9       __close                    10017af9 f   LIBCMT:close.obj
 0001:00016bd4       __close_nolock             10017bd4 f   LIBCMT:close.obj
 0001:00016c6e       __freebuf                  10017c6e f   LIBCMT:_freebuf.obj
 0001:00016c9e       __fflush_nolock            10017c9e f   LIBCMT:fflush.obj
 0001:00016ce4       __flush                    10017ce4 f   LIBCMT:fflush.obj
 0001:00016d48       __flushall                 10017d48 f   LIBCMT:fflush.obj
 0001:00016d51       _fflush                    10017d51 f   LIBCMT:fflush.obj
 0001:00016e8e       __getstream                10017e8e f   LIBCMT:stream.obj
 0001:00016fad       __openfile                 10017fad f   LIBCMT:_open.obj
 0001:00017227       __vfprintf_l               10018227 f   LIBCMT:vfprintf.obj
 0001:00017245       __vfprintf_p               10018245 f   LIBCMT:vfprintf.obj
 0001:00017262       __vfprintf_p_l             10018262 f   LIBCMT:vfprintf.obj
 0001:00017280       __vfprintf_s_l             10018280 f   LIBCMT:vfprintf.obj
 0001:0001729e       _vfprintf                  1001829e f   LIBCMT:vfprintf.obj
 0001:000172bb       _vfprintf_helper           100182bb f   LIBCMT:vfprintf.obj
 0001:000173cc       _vfprintf_s                100183cc f   LIBCMT:vfprintf.obj
 0001:000173e9       __ioinit                   100183e9 f   LIBCMT:ioinit.obj
 0001:0001769d       __ioterm                   1001869d f   LIBCMT:ioinit.obj
 0001:000176ef       __vprintf_l                100186ef f   LIBCMT:vprintf.obj
 0001:0001770a       __vprintf_p                1001870a f   LIBCMT:vprintf.obj
 0001:00017724       __vprintf_p_l              10018724 f   LIBCMT:vprintf.obj
 0001:0001773f       __vprintf_s_l              1001873f f   LIBCMT:vprintf.obj
 0001:0001775a       _vprintf                   1001875a f   LIBCMT:vprintf.obj
 0001:00017774       _vprintf_helper            10018774 f   LIBCMT:vprintf.obj
 0001:00017801       _vprintf_s                 10018801 f   LIBCMT:vprintf.obj
 0001:0001781b       __wremove                  1001881b f   LIBCMT:wunlink.obj
 0001:00017849       __wunlink                  10018849 f   LIBCMT:wunlink.obj
 0001:00017852       __XcptFilter               10018852 f   LIBCMT:winxfltr.obj
 0001:000179ad       ___CppXcptFilter           100189ad f   LIBCMT:winxfltr.obj
 0001:00018418       __W_Getdays                10019418 f   LIBCMT:wcsftime.obj
 0001:00018421       __W_Getdays_l              10019421 f   LIBCMT:wcsftime.obj
 0001:0001853a       __W_Getmonths              1001953a f   LIBCMT:wcsftime.obj
 0001:00018543       __W_Getmonths_l            10019543 f   LIBCMT:wcsftime.obj
 0001:0001865c       __W_Gettnames              1001965c f   LIBCMT:wcsftime.obj
 0001:00018665       __W_Gettnames_l            10019665 f   LIBCMT:wcsftime.obj
 0001:00018d14       __Wcsftime                 10019d14 f   LIBCMT:wcsftime.obj
 0001:00018d32       __Wcsftime_l               10019d32 f   LIBCMT:wcsftime.obj
 0001:00018e75       __invoke_watson_if_oneof   10019e75 f i LIBCMT:wcsftime.obj
 0001:00018ea0       __wcsftime_l               10019ea0 f   LIBCMT:wcsftime.obj
 0001:00018ebe       _wcsftime                  10019ebe f   LIBCMT:wcsftime.obj
 0001:00018edb       ___daylight                10019edb f   LIBCMT:timeset.obj
 0001:00018ee1       ___dstbias                 10019ee1 f   LIBCMT:timeset.obj
 0001:00018ee7       ___timezone                10019ee7 f   LIBCMT:timeset.obj
 0001:00018eed       ___tzname                  10019eed f   LIBCMT:timeset.obj
 0001:00018ef3       __get_daylight             10019ef3 f   LIBCMT:timeset.obj
 0001:00018f1d       __get_dstbias              10019f1d f   LIBCMT:timeset.obj
 0001:00018f47       __get_timezone             10019f47 f   LIBCMT:timeset.obj
 0001:00018f71       __get_tzname               10019f71 f   LIBCMT:timeset.obj
 0001:00019004       __gmtime64                 1001a004 f   LIBCMT:gmtime64.obj
 0001:00019029       __gmtime64_s               1001a029 f   LIBCMT:gmtime64.obj
 0001:00019254       ___tzset                   1001a254 f   LIBCMT:tzset.obj
 0001:000192a4       __isindst                  1001a2a4 f   LIBCMT:tzset.obj
 0001:000194d2       __set_daylight             1001a4d2 f i LIBCMT:tzset.obj
 0001:000194e1       __set_dstbias              1001a4e1 f i LIBCMT:tzset.obj
 0001:000194f0       __set_timezone             1001a4f0 f i LIBCMT:tzset.obj
 0001:000194ff       __tzset                    1001a4ff f   LIBCMT:tzset.obj
 0001:00019a4d       ___getgmtimebuf            1001aa4d f   LIBCMT:gmtime.obj
 0001:00019a82       __gmtime32                 1001aa82 f   LIBCMT:gmtime.obj
 0001:00019aa7       __gmtime32_s               1001aaa7 f   LIBCMT:gmtime.obj
 0001:00019be0       __allrem                   1001abe0 f   LIBCMT:llrem.obj
 0001:00019ca0       __aulldiv                  1001aca0 f   LIBCMT:ulldiv.obj
 0001:00019d08       _realloc                   1001ad08 f   LIBCMT:realloc.obj
 0001:00019db3       ??2@YAPAXIABUnothrow_t@std@@@Z 1001adb3 f   LIBCMT:newopnt.obj
 0001:00019de1       __set_pgmptr               1001ade1 f i LIBCMT:stdargv.obj
 0001:00019dee       __setargv                  1001adee f   LIBCMT:stdargv.obj
 0001:0001a01d       __setenvp                  1001b01d f   LIBCMT:stdenvp.obj
 0001:0001a0fe       ___security_init_cookie    1001b0fe f   LIBCMT:gs_support.obj
 0001:0001a19a       ___crtGetEnvironmentStringsA 1001b19a f   LIBCMT:a_env.obj
 0001:0001a227       __calloc_impl              1001b227 f   LIBCMT:calloc_impl.obj
 0001:0001a2a1       _wcscat_s                  1001b2a1 f   LIBCMT:wcscat_s.obj
 0001:0001a30d       _wcscpy_s                  1001b30d f   LIBCMT:wcscpy_s.obj
 0001:0001a369       _wcsncpy_s                 1001b369 f   LIBCMT:wcsncpy_s.obj
 0001:0001a427       ___set_app_type            1001b427 f   LIBCMT:errmode.obj
 0001:0001a434       __set_error_mode           1001b434 f   LIBCMT:errmode.obj
 0001:0001a474       ___crtMessageBoxW          1001b474 f   LIBCMT:crtmboxw.obj
 0001:0001a65a       ___crtMessageBoxWaitThreadW@4 1001b65a f   LIBCMT:crtmboxw.obj
 0001:0001a678       __fptrap                   1001b678 f   LIBCMT:crt0fp.obj
 0001:0001a681       _strncpy_s                 1001b681 f   LIBCMT:strncpy_s.obj
 0001:0001a809       ___crtGetLocaleInfoA       1001b809 f   LIBCMT:a_loc.obj
 0001:0001a843       _GetTableIndexFromLcid     1001b843 f   LIBCMT:winapinls.obj
 0001:0001a878       _GetTableIndexFromLocaleName 1001b878 f   LIBCMT:winapinls.obj
 0001:0001a8c6       ___crtCompareStringEx      1001b8c6 f   LIBCMT:winapinls.obj
 0001:0001a912       ___crtDownlevelLCIDToLocaleName 1001b912 f   LIBCMT:winapinls.obj
 0001:0001a98e       ___crtDownlevelLocaleNameToLCID 1001b98e f   LIBCMT:winapinls.obj
 0001:0001a9cc       ___crtEnumSystemLocalesEx  1001b9cc f   LIBCMT:winapinls.obj
 0001:0001aa09       ___crtGetDateFormatEx      1001ba09 f   LIBCMT:winapinls.obj
 0001:0001aa52       ___crtGetLocaleInfoEx      1001ba52 f   LIBCMT:winapinls.obj
 0001:0001aa81       ___crtGetTimeFormatEx      1001ba81 f   LIBCMT:winapinls.obj
 0001:0001aab6       ___crtGetUserDefaultLocaleName 1001bab6 f   LIBCMT:winapinls.obj
 0001:0001aae1       ___crtIsValidLocaleName    1001bae1 f   LIBCMT:winapinls.obj
 0001:0001ab0c       ___crtLCMapStringEx        1001bb0c f   LIBCMT:winapinls.obj
 0001:0001ab58       ___wcsnicmp_ascii          1001bb58 f   LIBCMT:winapinls.obj
 0001:0001abc6       __isatty                   1001bbc6 f   LIBCMT:isatty.obj
 0001:0001ac1a       ___free_lconv_mon          1001bc1a f   LIBCMT:initmon.obj
 0001:0001ad16       ___init_monetary           1001bd16 f   LIBCMT:initmon.obj
 0001:0001b0ef       ___free_lconv_num          1001c0ef f   LIBCMT:initnum.obj
 0001:0001b156       ___init_numeric            1001c156 f   LIBCMT:initnum.obj
 0001:0001b394       ___free_lc_time            1001c394 f   LIBCMT:inittime.obj
 0001:0001b714       ___init_time               1001c714 f   LIBCMT:inittime.obj
 0001:0001bf83       _localeconv                1001cf83 f   LIBCMT:lconv.obj
 0001:0001bfb0       _strchr                    1001cfb0 f   LIBCMT:strchr.obj
 0001:0001c01e       ___from_strstr_to_strchr   1001d01e     LIBCMT:strchr.obj
 0001:0001c0db       ___pctype_func             1001d0db f   LIBCMT:ctype.obj
 0001:0001c104       ___pwctype_func            1001d104 f   LIBCMT:ctype.obj
 0001:0001c10a       __write                    1001d10a f   LIBCMT:write.obj
 0001:0001c1f9       __write_nolock             1001d1f9 f   LIBCMT:write.obj
 0001:0001ca5e       __lseeki64                 1001da5e f   LIBCMT:lseeki64.obj
 0001:0001cb5a       __lseeki64_nolock          1001db5a f   LIBCMT:lseeki64.obj
 0001:0001cbcd       __getbuf                   1001dbcd f   LIBCMT:_getbuf.obj
 0001:0001cc13       __output_p_l               1001dc13 f   LIBCMT:outputp.obj
 0001:0001df4b       __validate_param_reuseA    1001ef4b f   LIBCMT:outputp.obj
 0001:0001e081       _get_crtdouble_arg         1001f081 f i LIBCMT:outputp.obj
 0001:0001e180       __output_s_l               1001f180 f   LIBCMT:outputs.obj
 0001:0001ee08       ___iswcsym                 1001fe08 f i LIBCMT:_wctype.obj
 0001:0001ee2c       ___iswcsymf                1001fe2c f i LIBCMT:_wctype.obj
 0001:0001ee50       __isleadbyte_l             1001fe50 f i LIBCMT:_wctype.obj
 0001:0001ee8a       __iswalnum_l               1001fe8a f i LIBCMT:_wctype.obj
 0001:0001ee9e       __iswalpha_l               1001fe9e f i LIBCMT:_wctype.obj
 0001:0001eeb2       __iswblank_l               1001feb2 f i LIBCMT:_wctype.obj
 0001:0001eecd       __iswcntrl_l               1001fecd f i LIBCMT:_wctype.obj
 0001:0001eede       __iswcsym_l                1001fede f i LIBCMT:_wctype.obj
 0001:0001ef02       __iswcsymf_l               1001ff02 f i LIBCMT:_wctype.obj
 0001:0001ef26       __iswdigit_l               1001ff26 f i LIBCMT:_wctype.obj
 0001:0001ef37       __iswgraph_l               1001ff37 f i LIBCMT:_wctype.obj
 0001:0001ef4b       __iswlower_l               1001ff4b f i LIBCMT:_wctype.obj
 0001:0001ef5c       __iswprint_l               1001ff5c f i LIBCMT:_wctype.obj
 0001:0001ef70       __iswpunct_l               1001ff70 f i LIBCMT:_wctype.obj
 0001:0001ef81       __iswspace_l               1001ff81 f i LIBCMT:_wctype.obj
 0001:0001ef92       __iswupper_l               1001ff92 f i LIBCMT:_wctype.obj
 0001:0001efa3       __iswxdigit_l              1001ffa3 f i LIBCMT:_wctype.obj
 0001:0001efb7       _isleadbyte                1001ffb7 f i LIBCMT:_wctype.obj
 0001:0001efc8       _iswalnum                  1001ffc8 f i LIBCMT:_wctype.obj
 0001:0001efdc       _iswalpha                  1001ffdc f i LIBCMT:_wctype.obj
 0001:0001eff0       _iswascii                  1001fff0 f i LIBCMT:_wctype.obj
 0001:0001f002       _iswblank                  10020002 f i LIBCMT:_wctype.obj
 0001:0001f01d       _iswcntrl                  1002001d f i LIBCMT:_wctype.obj
 0001:0001f02e       _iswdigit                  1002002e f i LIBCMT:_wctype.obj
 0001:0001f03f       _iswgraph                  1002003f f i LIBCMT:_wctype.obj
 0001:0001f053       _iswlower                  10020053 f i LIBCMT:_wctype.obj
 0001:0001f064       _iswprint                  10020064 f i LIBCMT:_wctype.obj
 0001:0001f078       _iswpunct                  10020078 f i LIBCMT:_wctype.obj
 0001:0001f089       _iswspace                  10020089 f i LIBCMT:_wctype.obj
 0001:0001f09a       _iswupper                  1002009a f i LIBCMT:_wctype.obj
 0001:0001f0ab       _iswxdigit                 100200ab f i LIBCMT:_wctype.obj
 0001:0001f0bf       __wctomb_l                 100200bf f   LIBCMT:wctomb.obj
 0001:0001f10e       __wctomb_s_l               1002010e f   LIBCMT:wctomb.obj
 0001:0001f232       _wctomb                    10020232 f   LIBCMT:wctomb.obj
 0001:0001f265       _wctomb_s                  10020265 f   LIBCMT:wctomb.obj
 0001:0001f280       __aulldvrm                 10020280 f   LIBCMT:ulldvrm.obj
 0001:0001f320       __global_unwind2           10020320 f   LIBCMT:exsup.obj
 0001:0001f385       __local_unwind2            10020385 f   LIBCMT:exsup.obj
 0001:0001f409       __abnormal_termination     10020409 f   LIBCMT:exsup.obj
 0001:0001f42c       __NLG_Notify1              1002042c f   LIBCMT:exsup.obj
 0001:0001f435       __NLG_Notify               10020435 f   LIBCMT:exsup.obj
 0001:0001f44c       __NLG_Dispatch             1002044c     LIBCMT:exsup.obj
 0001:0001f44c       __NLG_Dispatch2            1002044c     LIBCMT:exsup.obj
 0001:0001f454       __NLG_Call                 10020454 f   LIBCMT:exsup.obj
 0001:0001f456       __NLG_Return2              10020456     LIBCMT:exsup.obj
 0001:0001f457       ?_ValidateExecute@@YAHP6GHXZ@Z 10020457 f   LIBCMT:validate.obj
 0001:0001f466       ?_ValidateRead@@YAHPBXI@Z  10020466 f   LIBCMT:validate.obj
 0001:0001f475       ?_ValidateWrite@@YAHPAXI@Z 10020475 f   LIBCMT:validate.obj
 0001:0001f484       ??0Block@_HeapManager@@QAE@XZ 10020484 f i LIBCMT:undname.obj
 0001:0001f48a       ??0DName@@QAE@AAPBDD@Z     1002048a f   LIBCMT:undname.obj
 0001:0001f543       ??0DName@@QAE@ABV0@@Z      10020543 f i LIBCMT:undname.obj
 0001:0001f559       ??0DName@@QAE@D@Z          10020559 f   LIBCMT:undname.obj
 0001:0001f585       ??0DName@@QAE@PAV0@@Z      10020585 f   LIBCMT:undname.obj
 0001:0001f5d2       ??0DName@@QAE@PBD@Z        100205d2 f   LIBCMT:undname.obj
 0001:0001f60c       ??0DName@@QAE@W4DNameStatus@@@Z 1002060c f   LIBCMT:undname.obj
 0001:0001f64f       ??0DName@@QAE@XZ           1002064f f i LIBCMT:undname.obj
 0001:0001f660       ??0DName@@QAE@_J@Z         10020660 f   LIBCMT:undname.obj
 0001:0001f6f3       ??0DName@@QAE@_K@Z         100206f3 f   LIBCMT:undname.obj
 0001:0001f760       ??0DNameNode@@IAE@XZ       10020760 f   LIBCMT:undname.obj
 0001:0001f769       ??0DNameStatusNode@@AAE@W4DNameStatus@@@Z 10020769 f   LIBCMT:undname.obj
 0001:0001f78c       ??0Replicator@@QAE@XZ      1002078c f i LIBCMT:undname.obj
 0001:0001f792       ??0UnDecorator@@QAE@PADPBDHP6APADJ@ZK@Z 10020792 f i LIBCMT:undname.obj
 0001:0001f7fb       ??0charNode@@QAE@D@Z       100207fb f   LIBCMT:undname.obj
 0001:0001f810       ??0pDNameNode@@QAE@PAVDName@@@Z 10020810 f   LIBCMT:undname.obj
 0001:0001f838       ??0pairNode@@QAE@PAVDNameNode@@0@Z 10020838 f   LIBCMT:undname.obj
 0001:0001f857       ??0pcharNode@@QAE@PBDH@Z   10020857 f   LIBCMT:undname.obj
 0001:0001f8ae       ??2@YAPAXIAAV_HeapManager@@H@Z 100208ae f i LIBCMT:undname.obj
 0001:0001f8c3       ??4DName@@QAEAAV0@ABV0@@Z  100208c3 f   LIBCMT:undname.obj
 0001:0001f8d9       ??4DName@@QAEAAV0@D@Z      100208d9 f i LIBCMT:undname.obj
 0001:0001f905       ??4DName@@QAEAAV0@PAV0@@Z  10020905 f   LIBCMT:undname.obj
 0001:0001f94e       ??4DName@@QAEAAV0@PBD@Z    1002094e f   LIBCMT:undname.obj
 0001:0001f980       ??4DName@@QAEAAV0@W4DNameStatus@@@Z 10020980 f   LIBCMT:undname.obj
 0001:0001f9b5       ??AReplicator@@QBE?AVDName@@H@Z 100209b5 f   LIBCMT:undname.obj
 0001:0001f9f1       ??BUnDecorator@@QAEPADXZ   100209f1 f i LIBCMT:undname.obj
 0001:0001fb70       ??H@YA?AVDName@@DABV0@@Z   10020b70 f i LIBCMT:undname.obj
 0001:0001fb94       ??H@YA?AVDName@@PBDABV0@@Z 10020b94 f i LIBCMT:undname.obj
 0001:0001fbb8       ??H@YA?AVDName@@W4DNameStatus@@ABV0@@Z 10020bb8 f i LIBCMT:undname.obj
 0001:0001fbdc       ??HDName@@QBE?AV0@ABV0@@Z  10020bdc f   LIBCMT:undname.obj
 0001:0001fbfe       ??HDName@@QBE?AV0@D@Z      10020bfe f   LIBCMT:undname.obj
 0001:0001fc20       ??HDName@@QBE?AV0@PAV0@@Z  10020c20 f   LIBCMT:undname.obj
 0001:0001fc42       ??HDName@@QBE?AV0@PBD@Z    10020c42 f   LIBCMT:undname.obj
 0001:0001fc64       ??HDName@@QBE?AV0@W4DNameStatus@@@Z 10020c64 f   LIBCMT:undname.obj
 0001:0001fc86       ??YDName@@QAEAAV0@ABV0@@Z  10020c86 f   LIBCMT:undname.obj
 0001:0001fcc9       ??YDName@@QAEAAV0@D@Z      10020cc9 f   LIBCMT:undname.obj
 0001:0001fd19       ??YDName@@QAEAAV0@PAV0@@Z  10020d19 f   LIBCMT:undname.obj
 0001:0001fd7e       ??YDName@@QAEAAV0@PBD@Z    10020d7e f   LIBCMT:undname.obj
 0001:0001fddf       ??YDName@@QAEAAV0@W4DNameStatus@@@Z 10020ddf f   LIBCMT:undname.obj
 0001:0001fe1f       ??YReplicator@@QAEAAV0@ABVDName@@@Z 10020e1f f   LIBCMT:undname.obj
 0001:0001fe69       ??_5DName@@QAEAAV0@ABV0@@Z 10020e69 f   LIBCMT:undname.obj
 0001:0001fe85       ?Constructor@_HeapManager@@QAEXP6APAXI@ZP6AXPAX@Z@Z 10020e85 f i LIBCMT:undname.obj
 0001:0001fea2       ?Destructor@_HeapManager@@QAEXXZ 10020ea2 f i LIBCMT:undname.obj
 0001:0001fec8       ?UScore@UnDecorator@@SAPBDW4Tokens@@@Z 10020ec8 f   LIBCMT:undname.obj
 0001:0001fee5       ?append@DName@@AAEXPAVDNameNode@@@Z 10020ee5 f   LIBCMT:undname.obj
 0001:0001ff2b       ?composeDeclaration@UnDecorator@@CA?AVDName@@ABV2@@Z 10020f2b f i LIBCMT:undname.obj
 0001:00020c61       ?doAccessSpecifiers@UnDecorator@@SAHXZ 10021c61 f i LIBCMT:undname.obj
 0001:00020c6f       ?doAllocationLanguage@UnDecorator@@SAHXZ 10021c6f f i LIBCMT:undname.obj
 0001:00020c7d       ?doAllocationModel@UnDecorator@@SAHXZ 10021c7d f i LIBCMT:undname.obj
 0001:00020c8b       ?doEcsu@UnDecorator@@SAHXZ 10021c8b f i LIBCMT:undname.obj
 0001:00020c99       ?doEllipsis@UnDecorator@@SAHXZ 10021c99 f i LIBCMT:undname.obj
 0001:00020ca7       ?doFunctionReturns@UnDecorator@@SAHXZ 10021ca7 f i LIBCMT:undname.obj
 0001:00020cb5       ?doMSKeywords@UnDecorator@@SAHXZ 10021cb5 f i LIBCMT:undname.obj
 0001:00020cc2       ?doMemberTypes@UnDecorator@@SAHXZ 10021cc2 f i LIBCMT:undname.obj
 0001:00020cd0       ?doNameOnly@UnDecorator@@SAHXZ 10021cd0 f i LIBCMT:undname.obj
 0001:00020cdb       ?doNoIdentCharCheck@UnDecorator@@SAHXZ 10021cdb f i LIBCMT:undname.obj
 0001:00020ce6       ?doPchar@DName@@AAEXPBDH@Z 10021ce6 f   LIBCMT:undname.obj
 0001:00020d6e       ?doPtr64@UnDecorator@@SAHXZ 10021d6e f i LIBCMT:undname.obj
 0001:00020d7c       ?doRestrictionSpec@UnDecorator@@SAHXZ 10021d7c f i LIBCMT:undname.obj
 0001:00020d8a       ?doThisTypes@UnDecorator@@SAHXZ 10021d8a f i LIBCMT:undname.obj
 0001:00020d9c       ?doThrowTypes@UnDecorator@@SAHXZ 10021d9c f i LIBCMT:undname.obj
 0001:00020daa       ?doTypeOnly@UnDecorator@@SAHXZ 10021daa f i LIBCMT:undname.obj
 0001:00020db5       ?doUnderScore@UnDecorator@@SAHXZ 10021db5 f i LIBCMT:undname.obj
 0001:00020dc0       ?getArgumentList@UnDecorator@@CA?AVDName@@XZ 10021dc0 f   LIBCMT:undname.obj
 0001:00020ecc       ?getArgumentTypes@UnDecorator@@CA?AVDName@@XZ 10021ecc f   LIBCMT:undname.obj
 0001:00020faa       ?getArrayType@UnDecorator@@CA?AVDName@@ABV2@@Z 10021faa f i LIBCMT:undname.obj
 0001:000211ac       ?getBasedType@UnDecorator@@CA?AVDName@@XZ 100221ac f   LIBCMT:undname.obj
 0001:00021243       ?getBasicDataType@UnDecorator@@CA?AVDName@@ABV2@@Z 10022243 f   LIBCMT:undname.obj
 0001:0002161a       ?getCallIndex@UnDecorator@@CA?AVDName@@XZ 1002261a f i LIBCMT:undname.obj
 0001:0002162e       ?getCallingConvention@UnDecorator@@CA?AVDName@@XZ 1002262e f   LIBCMT:undname.obj
 0001:000216ed       ?getDataIndirectType@UnDecorator@@CA?AVDName@@ABV2@PBD0H@Z 100226ed f   LIBCMT:undname.obj
 0001:00021c8a       ?getDataIndirectType@UnDecorator@@CA?AVDName@@XZ 10022c8a f i LIBCMT:undname.obj
 0001:00021cc3       ?getDataType@UnDecorator@@CA?AVDName@@PAV2@@Z 10022cc3 f   LIBCMT:undname.obj
 0001:00021d95       ?getDecoratedName@UnDecorator@@CA?AVDName@@XZ 10022d95 f   LIBCMT:undname.obj
 0001:00021fe1       ?getDimension@UnDecorator@@CA?AVDName@@_N@Z 10022fe1 f   LIBCMT:undname.obj
 0001:00022118       ?getDispatchTarget@UnDecorator@@CA?AVDName@@XZ 10023118 f   LIBCMT:undname.obj
 0001:00022173       ?getDisplacement@UnDecorator@@CA?AVDName@@XZ 10023173 f i LIBCMT:undname.obj
 0001:00022187       ?getECSUDataType@UnDecorator@@CA?AVDName@@XZ 10023187 f   LIBCMT:undname.obj
 0001:0002229a       ?getECSUName@UnDecorator@@CA?AVDName@@XZ 1002329a f i LIBCMT:undname.obj
 0001:000222ab       ?getEnumType@UnDecorator@@CA?AVDName@@XZ 100232ab f i LIBCMT:undname.obj
 0001:0002238f       ?getExtendedDataIndirectType@UnDecorator@@CA?AVDName@@AAPBDAA_NH@Z 1002338f f   LIBCMT:undname.obj
 0001:00022534       ?getExternalDataType@UnDecorator@@CA?AVDName@@ABV2@@Z 10023534 f i LIBCMT:undname.obj
 0001:000225ad       ?getFunctionIndirectType@UnDecorator@@CA?AVDName@@ABV2@@Z 100235ad f   LIBCMT:undname.obj
 0001:000229a3       ?getGuardNumber@UnDecorator@@CA?AVDName@@XZ 100239a3 f i LIBCMT:undname.obj
 0001:000229b7       ?getLastChar@DName@@QBEDXZ 100239b7 f i LIBCMT:undname.obj
 0001:000229c5       ?getLastChar@DNameStatusNode@@UBEDXZ 100239c5 f i LIBCMT:undname.obj
 0001:000229d1       ?getLastChar@charNode@@UBEDXZ 100239d1 f i LIBCMT:undname.obj
 0001:000229d5       ?getLastChar@pDNameNode@@UBEDXZ 100239d5 f i LIBCMT:undname.obj
 0001:000229ea       ?getLastChar@pairNode@@UBEDXZ 100239ea f i LIBCMT:undname.obj
 0001:00022a04       ?getLastChar@pcharNode@@UBEDXZ 10023a04 f i LIBCMT:undname.obj
 0001:00022a16       ?getLexicalFrame@UnDecorator@@CA?AVDName@@XZ 10023a16 f i LIBCMT:undname.obj
 0001:00022a53       ?getMemory@_HeapManager@@QAEPAXIH@Z 10023a53 f   LIBCMT:undname.obj
 0001:00022ad8       ?getNumberOfDimensions@UnDecorator@@CAHXZ 10023ad8 f   LIBCMT:undname.obj
 0001:00022b39       ?getOperatorName@UnDecorator@@CA?AVDName@@_NPA_N@Z 10023b39 f i LIBCMT:undname.obj
 0001:00023113       ?getPointerType@UnDecorator@@CA?AVDName@@ABV2@0@Z 10024113 f i LIBCMT:undname.obj
 0001:00023131       ?getPointerTypeArray@UnDecorator@@CA?AVDName@@ABV2@0@Z 10024131 f i LIBCMT:undname.obj
 0001:0002314f       ?getPrimaryDataType@UnDecorator@@CA?AVDName@@ABV2@@Z 1002414f f   LIBCMT:undname.obj
 0001:00023307       ?getPtrRefDataType@UnDecorator@@CA?AVDName@@ABV2@H@Z 10024307 f i LIBCMT:undname.obj
 0001:000233f1       ?getPtrRefType@UnDecorator@@CA?AVDName@@ABV2@0PBD@Z 100243f1 f   LIBCMT:undname.obj
 0001:000234ed       ?getReferenceType@UnDecorator@@CA?AVDName@@ABV2@0PBD@Z 100244ed f i LIBCMT:undname.obj
 0001:00023509       ?getRestrictionSpec@UnDecorator@@CA?AVDName@@XZ 10024509 f   LIBCMT:undname.obj
 0001:000235f7       ?getReturnType@UnDecorator@@CA?AVDName@@PAV2@@Z 100245f7 f   LIBCMT:undname.obj
 0001:00023626       ?getScope@UnDecorator@@CA?AVDName@@XZ 10024626 f   LIBCMT:undname.obj
 0001:000239fd       ?getScopedName@UnDecorator@@CA?AVDName@@XZ 100249fd f   LIBCMT:undname.obj
 0001:00023af8       ?getSignedDimension@UnDecorator@@CA?AVDName@@XZ 10024af8 f   LIBCMT:undname.obj
 0001:00023b4b       ?getStorageConvention@UnDecorator@@CA?AVDName@@XZ 10024b4b f i LIBCMT:undname.obj
 0001:00023b5c       ?getString@DName@@QBEPADPAD0@Z 10024b5c f i LIBCMT:undname.obj
 0001:00023b72       ?getString@DName@@QBEPADPADH@Z 10024b72 f i LIBCMT:undname.obj
 0001:00023bd0       ?getString@DNameStatusNode@@UBEPADPAD0@Z 10024bd0 f i LIBCMT:undname.obj
 0001:00023bf7       ?getString@charNode@@UBEPADPAD0@Z 10024bf7 f i LIBCMT:undname.obj
 0001:00023c0c       ?getString@pDNameNode@@UBEPADPAD0@Z 10024c0c f i LIBCMT:undname.obj
 0001:00023c29       ?getString@pairNode@@UBEPADPAD0@Z 10024c29 f i LIBCMT:undname.obj
 0001:00023c53       ?getString@pcharNode@@UBEPADPAD0@Z 10024c53 f i LIBCMT:undname.obj
 0001:00023c6e       ?getStringEncoding@UnDecorator@@CA?AVDName@@PADH@Z 10024c6e f   LIBCMT:undname.obj
 0001:00023d11       ?getStringHelper@@YAPADPAD00H@Z 10024d11 f i LIBCMT:undname.obj
 0001:00023d46       ?getSymbolName@UnDecorator@@CA?AVDName@@XZ 10024d46 f i LIBCMT:undname.obj
 0001:00023d8e       ?getTemplateArgumentList@UnDecorator@@CA?AVDName@@XZ 10024d8e f   LIBCMT:undname.obj
 0001:00024007       ?getTemplateConstant@UnDecorator@@CA?AVDName@@XZ 10025007 f   LIBCMT:undname.obj
 0001:00024307       ?getTemplateName@UnDecorator@@CA?AVDName@@_N@Z 10025307 f   LIBCMT:undname.obj
 0001:00024461       ?getThisType@UnDecorator@@CA?AVDName@@XZ 10025461 f i LIBCMT:undname.obj
 0001:0002449b       ?getThrowTypes@UnDecorator@@CA?AVDName@@XZ 1002549b f   LIBCMT:undname.obj
 0001:00024525       ?getTypeEncoding@UnDecorator@@CAHXZ 10025525 f i LIBCMT:undname.obj
 0001:00024a15       ?getVCallThunkType@UnDecorator@@CA?AVDName@@XZ 10025a15 f i LIBCMT:undname.obj
 0001:00024a50       ?getVbTableType@UnDecorator@@CA?AVDName@@ABV2@@Z 10025a50 f i LIBCMT:undname.obj
 0001:00024a65       ?getVdispMapType@UnDecorator@@CA?AVDName@@ABV2@@Z 10025a65 f i LIBCMT:undname.obj
 0001:00024abb       ?getVfTableType@UnDecorator@@CA?AVDName@@ABV2@@Z 10025abb f i LIBCMT:undname.obj
 0001:00024c20       ?getZName@UnDecorator@@CA?AVDName@@_N0@Z 10025c20 f   LIBCMT:undname.obj
 0001:00024e4a       ?haveTemplateParameters@UnDecorator@@SAHXZ 10025e4a f i LIBCMT:undname.obj
 0001:00024e55       ?isArray@DName@@QBEHXZ     10025e55 f i LIBCMT:undname.obj
 0001:00024e5f       ?isComArray@DName@@QBEHXZ  10025e5f f i LIBCMT:undname.obj
 0001:00024e69       ?isEmpty@DName@@QBEHXZ     10025e69 f i LIBCMT:undname.obj
 0001:00024e71       ?isFull@Replicator@@QBEHXZ 10025e71 f i LIBCMT:undname.obj
 0001:00024e7a       ?isNoTE@DName@@QBEHXZ      10025e7a f i LIBCMT:undname.obj
 0001:00024e84       ?isPinPtr@DName@@QBEHXZ    10025e84 f i LIBCMT:undname.obj
 0001:00024e8e       ?isPtrRef@DName@@QBEHXZ    10025e8e f i LIBCMT:undname.obj
 0001:00024e98       ?isUDC@DName@@QBEHXZ       10025e98 f i LIBCMT:undname.obj
 0001:00024ea9       ?isUDTThunk@DName@@QBEHXZ  10025ea9 f i LIBCMT:undname.obj
 0001:00024eba       ?isVCallThunk@DName@@QBEHXZ 10025eba f i LIBCMT:undname.obj
 0001:00024ec4       ?isValid@DName@@QBEHXZ     10025ec4 f i LIBCMT:undname.obj
 0001:00024ece       ?length@DName@@QBEHXZ      10025ece f i LIBCMT:undname.obj
 0001:00024edb       ?length@DNameStatusNode@@UBEHXZ 10025edb f i LIBCMT:undname.obj
 0001:00024edf       ?length@charNode@@UBEHXZ   10025edf f i LIBCMT:undname.obj
 0001:00024ee3       ?length@pDNameNode@@UBEHXZ 10025ee3 f i LIBCMT:undname.obj
 0001:00024ef7       ?length@pairNode@@UBEHXZ   10025ef7 f i LIBCMT:undname.obj
 0001:00024f20       ?length@pcharNode@@UBEHXZ  10025f20 f i LIBCMT:undname.obj
 0001:00024f24       ?make@DNameStatusNode@@SAPAV1@W4DNameStatus@@@Z 10025f24 f i LIBCMT:undname.obj
 0001:00024faa       ?setIsArray@DName@@QAEXXZ  10025faa f i LIBCMT:undname.obj
 0001:00024fb2       ?setIsComArray@DName@@QAEXXZ 10025fb2 f i LIBCMT:undname.obj
 0001:00024fba       ?setIsNoTE@DName@@QAEXXZ   10025fba f i LIBCMT:undname.obj
 0001:00024fc2       ?setIsPinPtr@DName@@QAEXXZ 10025fc2 f i LIBCMT:undname.obj
 0001:00024fca       ?setIsUDC@DName@@QAEXXZ    10025fca f i LIBCMT:undname.obj
 0001:00024fd7       ?setIsVCallThunk@DName@@QAEXXZ 10025fd7 f i LIBCMT:undname.obj
 0001:00024fdf       ?setPtrRef@DName@@QAEAAV1@XZ 10025fdf f i LIBCMT:undname.obj
 0001:00024fe9       ?status@DName@@QBE?AW4DNameStatus@@XZ 10025fe9 f i LIBCMT:undname.obj
 0001:00025051       ___unDName                 10026051 f   LIBCMT:undname.obj
 0001:000250f4       ___unDNameEx               100260f4 f   LIBCMT:undname.obj
 0001:00025195       __strtod_l                 10026195 f   LIBCMT:strtod.obj
 0001:000252ac       _strtod                    100262ac f   LIBCMT:strtod.obj
 0001:000252c1       ___crt_atoflt_l            100262c1 f   LIBCMT:atodbl.obj
 0001:00025365       __atodbl                   10026365 f   LIBCMT:atodbl.obj
 0001:0002537a       __atodbl_l                 1002637a f   LIBCMT:atodbl.obj
 0001:00025408       __atoflt                   10026408 f   LIBCMT:atodbl.obj
 0001:0002541d       __atoflt_l                 1002641d f   LIBCMT:atodbl.obj
 0001:00025435       __atoldbl                  10026435 f   LIBCMT:atodbl.obj
 0001:0002544a       __atoldbl_l                1002644a f   LIBCMT:atodbl.obj
 0001:000254e0       __allmul                   100264e0 f   LIBCMT:llmul.obj
 0001:00025514       ___init_dummy              10026514 f   LIBCMT:wsetloca.obj
 0001:00025517       __locterm                  10026517 f   LIBCMT:wsetloca.obj
 0001:00025569       ____setlc_active_func      10026569 f   LIBCMT:wsetloca.obj
 0001:0002556f       ____unguarded_readlc_active_add_func 1002656f f   LIBCMT:wsetloca.obj
 0001:00025575       ___copy_locale_name        10026575 f   LIBCMT:wsetloca.obj
 0001:000255d9       ___create_locale           100265d9 f   LIBCMT:wsetloca.obj
 0001:000255e2       ___free_locale             100265e2 f   LIBCMT:wsetloca.obj
 0001:000255e7       ___get_current_locale      100265e7 f   LIBCMT:wsetloca.obj
 0001:000255ec       ___lc_lctowcs              100265ec f   LIBCMT:wsetloca.obj
 0001:0002565a       ___lc_wcstolc              1002665a f   LIBCMT:wsetloca.obj
 0001:00025786       __configthreadlocale       10026786 f   LIBCMT:wsetloca.obj
 0001:0002580c       __create_locale            1002680c f   LIBCMT:wsetloca.obj
 0001:0002586e       __expandlocale             1002686e f   LIBCMT:wsetloca.obj
 0001:00025b65       __free_locale              10026b65 f   LIBCMT:wsetloca.obj
 0001:00025c1c       __get_current_locale       10026c1c f   LIBCMT:wsetloca.obj
 0001:00025ccb       __wcreate_locale           10026ccb f   LIBCMT:wsetloca.obj
 0001:00025da2       __wcscats                  10026da2 f   LIBCMT:wsetloca.obj
 0001:00025de1       __wsetlocale               10026de1 f   LIBCMT:wsetloca.obj
 0001:0002677d       __ismbbalnum               1002777d f   LIBCMT:ismbbyte.obj
 0001:00026796       __ismbbalnum_l             10027796 f   LIBCMT:ismbbyte.obj
 0001:000267b0       __ismbbalpha               100277b0 f   LIBCMT:ismbbyte.obj
 0001:000267c9       __ismbbalpha_l             100277c9 f   LIBCMT:ismbbyte.obj
 0001:000267e3       __ismbbblank               100277e3 f   LIBCMT:ismbbyte.obj
 0001:00026804       __ismbbblank_l             10027804 f   LIBCMT:ismbbyte.obj
 0001:00026826       __ismbbgraph               10027826 f   LIBCMT:ismbbyte.obj
 0001:0002683f       __ismbbgraph_l             1002783f f   LIBCMT:ismbbyte.obj
 0001:00026859       __ismbbkalnum              10027859 f   LIBCMT:ismbbyte.obj
 0001:0002686f       __ismbbkalnum_l            1002786f f   LIBCMT:ismbbyte.obj
 0001:00026886       __ismbbkana                10027886 f   LIBCMT:ismbbyte.obj
 0001:00026897       __ismbbkana_l              10027897 f   LIBCMT:ismbbyte.obj
 0001:000268e3       __ismbbkprint              100278e3 f   LIBCMT:ismbbyte.obj
 0001:000268f9       __ismbbkprint_l            100278f9 f   LIBCMT:ismbbyte.obj
 0001:00026910       __ismbbkpunct              10027910 f   LIBCMT:ismbbyte.obj
 0001:00026926       __ismbbkpunct_l            10027926 f   LIBCMT:ismbbyte.obj
 0001:0002693d       __ismbblead                1002793d f   LIBCMT:ismbbyte.obj
 0001:00026953       __ismbblead_l              10027953 f   LIBCMT:ismbbyte.obj
 0001:0002696a       __ismbbprint               1002796a f   LIBCMT:ismbbyte.obj
 0001:00026983       __ismbbprint_l             10027983 f   LIBCMT:ismbbyte.obj
 0001:0002699d       __ismbbpunct               1002799d f   LIBCMT:ismbbyte.obj
 0001:000269b3       __ismbbpunct_l             100279b3 f   LIBCMT:ismbbyte.obj
 0001:000269ca       __ismbbtrail               100279ca f   LIBCMT:ismbbyte.obj
 0001:000269e0       __ismbbtrail_l             100279e0 f   LIBCMT:ismbbyte.obj
 0001:00026a00       __trandisp1                10027a00 f   LIBCMT:87disp.obj
 0001:00026a67       __trandisp2                10027a67 f   LIBCMT:87disp.obj
 0001:00026af3       __rttospopde               10027af3     LIBCMT:87disp.obj
 0001:00026af8       __rttospop                 10027af8     LIBCMT:87disp.obj
 0001:00026afa       __rtnospop                 10027afa     LIBCMT:87disp.obj
 0001:00026afc       __rttosnpop                10027afc     LIBCMT:87disp.obj
 0001:00026afd       __rtnospopde               10027afd     LIBCMT:87disp.obj
 0001:00026b04       __rtzeropop                10027b04     LIBCMT:87disp.obj
 0001:00026b06       __rtzeronpop               10027b06     LIBCMT:87disp.obj
 0001:00026b0b       __rtonepop                 10027b0b     LIBCMT:87disp.obj
 0001:00026b0d       __rtonenpop                10027b0d     LIBCMT:87disp.obj
 0001:00026b12       __tosnan1                  10027b12     LIBCMT:87disp.obj
 0001:00026b3d       __nosnan2                  10027b3d     LIBCMT:87disp.obj
 0001:00026b3f       __tosnan2                  10027b3f     LIBCMT:87disp.obj
 0001:00026b67       __nan2                     10027b67     LIBCMT:87disp.obj
 0001:00026ba6       __rtindfpop                10027ba6     LIBCMT:87disp.obj
 0001:00026ba8       __rtindfnpop               10027ba8     LIBCMT:87disp.obj
 0001:00026bb9       __rttosnpopde              10027bb9     LIBCMT:87disp.obj
 0001:00026bc3       __rtchsifneg               10027bc3     LIBCMT:87disp.obj
 0001:00026bd0       __startTwoArgErrorHandling 10027bd0 f   LIBCMT:genexcep.obj
 0001:00026be7       __startOneArgErrorHandling 10027be7 f   LIBCMT:genexcep.obj
 0001:00026c30       __twoToTOS                 10027c30 f   LIBCMT:common.obj
 0001:00026c45       __load_CW                  10027c45 f   LIBCMT:common.obj
 0001:00026c5c       __convertTOStoQNaN         10027c5c f   LIBCMT:common.obj
 0001:00026c75       __fload_withFB             10027c75 f   LIBCMT:common.obj
 0001:00026cb8       __checkTOS_withFB          10027cb8 f   LIBCMT:common.obj
 0001:00026cce       __fast_exit                10027cce f   LIBCMT:common.obj
 0001:00026cdb       __math_exit                10027cdb f   LIBCMT:common.obj
 0001:00026d05       __check_overflow_exit      10027d05 f   LIBCMT:common.obj
 0001:00026d19       __check_range_exit         10027d19 f   LIBCMT:common.obj
 0001:00026dbc       __matherr                  10027dbc f   LIBCMT:matherr.obj
 0001:00026dbf       ___isascii                 10027dbf f i LIBCMT:_ctype.obj
 0001:00026dcf       ___iscsym                  10027dcf f i LIBCMT:_ctype.obj
 0001:00026def       ___iscsymf                 10027def f i LIBCMT:_ctype.obj
 0001:00026e0c       ___toascii                 10027e0c f i LIBCMT:_ctype.obj
 0001:00026e17       __isalnum_l                10027e17 f i LIBCMT:_ctype.obj
 0001:00026e6f       __isalpha_l                10027e6f f i LIBCMT:_ctype.obj
 0001:00026ec7       __isblank_l                10027ec7 f i LIBCMT:_ctype.obj
 0001:00026f21       __iscntrl_l                10027f21 f i LIBCMT:_ctype.obj
 0001:00026f73       __iscsym_l                 10027f73 f i LIBCMT:_ctype.obj
 0001:00026f94       __iscsymf_l                10027f94 f i LIBCMT:_ctype.obj
 0001:00026fb5       __isdigit_l                10027fb5 f i LIBCMT:_ctype.obj
 0001:00027007       __isgraph_l                10028007 f i LIBCMT:_ctype.obj
 0001:0002705f       __islower_l                1002805f f i LIBCMT:_ctype.obj
 0001:000270b1       __isprint_l                100280b1 f i LIBCMT:_ctype.obj
 0001:00027109       __ispunct_l                10028109 f i LIBCMT:_ctype.obj
 0001:0002715b       __isspace_l                1002815b f i LIBCMT:_ctype.obj
 0001:000271ad       __isupper_l                100281ad f i LIBCMT:_ctype.obj
 0001:000271ff       __isxdigit_l               100281ff f i LIBCMT:_ctype.obj
 0001:00027257       _isalnum                   10028257 f i LIBCMT:_ctype.obj
 0001:00027284       _isalpha                   10028284 f i LIBCMT:_ctype.obj
 0001:000272b1       _isblank                   100282b1 f i LIBCMT:_ctype.obj
 0001:000272e6       _iscntrl                   100282e6 f i LIBCMT:_ctype.obj
 0001:00027311       _isdigit                   10028311 f i LIBCMT:_ctype.obj
 0001:0002733c       _isgraph                   1002833c f i LIBCMT:_ctype.obj
 0001:00027369       _islower                   10028369 f i LIBCMT:_ctype.obj
 0001:00027394       _isprint                   10028394 f i LIBCMT:_ctype.obj
 0001:000273c1       _ispunct                   100283c1 f i LIBCMT:_ctype.obj
 0001:000273ec       _isspace                   100283ec f i LIBCMT:_ctype.obj
 0001:00027417       _isupper                   10028417 f i LIBCMT:_ctype.obj
 0001:00027442       _isxdigit                  10028442 f i LIBCMT:_ctype.obj
 0001:0002746f       __tolower                  1002846f f   LIBCMT:tolower.obj
 0001:0002747a       __tolower_l                1002847a f   LIBCMT:tolower.obj
 0001:000275bd       _tolower                   100285bd f   LIBCMT:tolower.obj
 0001:000275e9       __fptostr                  100285e9 f   LIBCMT:_fptostr.obj
 0001:00027699       ___dtold                   10028699 f   LIBCMT:cfout.obj
 0001:00027761       __fltout2                  10028761 f   LIBCMT:cfout.obj
 0001:000277f0       __alldvrm                  100287f0 f   LIBCMT:lldvrm.obj
 0001:000278d0       __aullshr                  100288d0 f   LIBCMT:ullshr.obj
 0001:000278ef       __get_output_format        100288ef f   LIBCMT:outputformat.obj
 0001:000278f5       __set_output_format        100288f5 f   LIBCMT:outputformat.obj
 0001:00027927       __controlfp_s              10028927 f   LIBCMT:contrlfp.obj
 0001:00027984       __fcloseall                10028984 f   LIBCMT:closeall.obj
 0001:00027a21       ___lock_fhandle            10028a21 f   LIBCMT:osfinfo.obj
 0001:00027aaf       __alloc_osfhnd             10028aaf f   LIBCMT:osfinfo.obj
 0001:00027c58       __free_osfhnd              10028c58 f   LIBCMT:osfinfo.obj
 0001:00027cde       __get_osfhandle            10028cde f   LIBCMT:osfinfo.obj
 0001:00027d45       __open_osfhandle           10028d45 f   LIBCMT:osfinfo.obj
 0001:00027e5b       __set_osfhnd               10028e5b f   LIBCMT:osfinfo.obj
 0001:00027edd       __unlock_fhandle           10028edd f   LIBCMT:osfinfo.obj
 0001:00027f03       __commit                   10028f03 f   LIBCMT:commit.obj
 0001:00027fec       __open                     10028fec f   LIBCMT:open.obj
 0001:0002809c       __sopen                    1002909c f   LIBCMT:open.obj
 0001:000280cf       __sopen_helper             100290cf f   LIBCMT:open.obj
 0001:00028198       __sopen_nolock             10029198 f   LIBCMT:open.obj
 0001:000281e6       __sopen_s                  100291e6 f   LIBCMT:open.obj
 0001:00028204       __mbsnbicmp                10029204 f   LIBCMT:mbsnbicm.obj
 0001:0002821c       __mbsnbicmp_l              1002921c f   LIBCMT:mbsnbicm.obj
 0001:000283d7       __wcsicmp                  100293d7 f   LIBCMT:wcsicmp.obj
 0001:0002846a       __wcsicmp_l                1002946a f   LIBCMT:wcsicmp.obj
 0001:00028545       __mbstowcs_l               10029545 f   LIBCMT:mbstowcs.obj
 0001:0002854e       __mbstowcs_l_helper        1002954e f   LIBCMT:mbstowcs.obj
 0001:000286af       __mbstowcs_s_l             100296af f   LIBCMT:mbstowcs.obj
 0001:0002878d       _mbstowcs                  1002978d f   LIBCMT:mbstowcs.obj
 0001:000287b5       _mbstowcs_s                100297b5 f   LIBCMT:mbstowcs.obj
 0001:000287d3       __dupenv_s                 100297d3 f   LIBCMT:getenv.obj
 0001:00028946       __getenv_helper_nolock     10029946 f   LIBCMT:getenv.obj
 0001:00028a65       _getenv                    10029a65 f   LIBCMT:getenv.obj
 0001:00028ae5       _getenv_s                  10029ae5 f   LIBCMT:getenv.obj
 0001:00028bb6       ____lc_codepage_func       10029bb6 f   LIBCMT:initctyp.obj
 0001:00028bdc       ____lc_collate_cp_func     10029bdc f   LIBCMT:initctyp.obj
 0001:00028c02       ____lc_locale_name_func    10029c02 f   LIBCMT:initctyp.obj
 0001:00028c2a       ____mb_cur_max_func        10029c2a f   LIBCMT:initctyp.obj
 0001:00028c50       ____mb_cur_max_l_func      10029c50 f   LIBCMT:initctyp.obj
 0001:00028c67       ___init_ctype              10029c67 f   LIBCMT:initctyp.obj
 0001:00028fff       _wcsnlen                   10029fff f   LIBCMT:wcslen_s.obj
 0001:0002901e       __mbtowc_l                 1002a01e f   LIBCMT:mbtowc.obj
 0001:00029113       _mbtowc                    1002a113 f   LIBCMT:mbtowc.obj
 0001:0002912b       __putwch                   1002a12b f   LIBCMT:putwch.obj
 0001:00029177       __putwch_nolock            1002a177 f   LIBCMT:putwch.obj
 0001:000291ba       __iswctype_l               1002a1ba f   LIBCMT:iswctype.obj
 0001:000291cc       _is_wctype                 1002a1cc f   LIBCMT:iswctype.obj
 0001:000291d5       _iswctype                  1002a1d5 f   LIBCMT:iswctype.obj
 0001:0002922b       __fltin2                   1002a22b f   LIBCMT:cfin.obj
 0001:000292e0       __CopyMan                  1002a2e0 f i LIBCMT:intrncvt.obj
 0001:000292fd       __FillZeroMan              1002a2fd f i LIBCMT:intrncvt.obj
 0001:0002930c       __IncMan                   1002a30c f i LIBCMT:intrncvt.obj
 0001:0002936e       __IsZeroMan                1002a36e f i LIBCMT:intrncvt.obj
 0001:0002938b       __RoundMan                 1002a38b f i LIBCMT:intrncvt.obj
 0001:0002948c       __ShrMan                   1002a48c f i LIBCMT:intrncvt.obj
 0001:0002951a       __ZeroTail                 1002a51a f i LIBCMT:intrncvt.obj
 0001:00029562       ___addl                    1002a562 f i LIBCMT:intrncvt.obj
 0001:00029586       __ld12cvt                  1002a586 f i LIBCMT:intrncvt.obj
 0001:00029af1       __ld12tod                  1002aaf1 f   LIBCMT:intrncvt.obj
 0001:0002a063       __ld12tof                  1002b063 f   LIBCMT:intrncvt.obj
 0001:0002a5d5       __ld12told                 1002b5d5 f   LIBCMT:intrncvt.obj
 0001:0002a6a4       ___STRINGTOLD_L            1002b6a4 f   LIBCMT:strgtold.obj
 0001:0002a6ff       ___ld12mul                 1002b6ff f i LIBCMT:strgtold.obj
 0001:0002a9cb       ___multtenpow12            1002b9cb f i LIBCMT:strgtold.obj
 0001:0002ad1e       ___shl_12                  1002bd1e f i LIBCMT:strgtold.obj
 0001:0002ad4f       ___shr_12                  1002bd4f f i LIBCMT:strgtold.obj
 0001:0002ad7f       ___strgtold12_l            1002bd7f f   LIBCMT:strgtold.obj
 0001:0002b527       ___init_collate            1002c527 f   LIBCMT:initcoll.obj
 0001:0002b647       _memcmp                    1002c647 f   LIBCMT:memcmp.obj
 0001:0002e55b       _wcscmp                    1002f55b f   LIBCMT:wcscmp.obj
 0001:0002e599       _wcscspn                   1002f599 f   LIBCMT:wcscspn.obj
 0001:0002e5e4       _wcsncmp                   1002f5e4 f   LIBCMT:wcsncmp.obj
 0001:0002e61a       _wcspbrk                   1002f61a f   LIBCMT:wcspbrk.obj
 0001:0002ec1e       ___get_qualified_locale    1002fc1e f   LIBCMT:getqloc.obj
 0001:0002f48e       ___get_qualified_locale_downlevel 1003048e f   LIBCMT:getqloc_downlevel.obj
 0001:0002f6aa       __87except                 100306aa f   LIBCMT:87except.obj
 0001:0002f7b3       _$I10_OUTPUT               100307b3 f   LIBCMT:x10fout.obj
 0001:00030187       ___add_12                  10031187 f i LIBCMT:x10fout.obj
 0001:00030333       ___control87_2             10031333 f   LIBCMT:ieee87.obj
 0001:000309a7       __clearfp                  100319a7 f   LIBCMT:ieee87.obj
 0001:00030a87       __control87                10031a87 f i LIBCMT:ieee87.obj
 0001:00030d89       __controlfp                10031d89 f   LIBCMT:ieee87.obj
 0001:00031094       __fpreset                  10032094 f   LIBCMT:ieee87.obj
 0001:00031161       __set_controlfp            10032161 f   LIBCMT:ieee87.obj
 0001:000311d4       __statusfp                 100321d4 f   LIBCMT:ieee87.obj
 0001:0003126e       __statusfp2                1003226e f   LIBCMT:ieee87.obj
 0001:00031355       __wopen                    10032355 f   LIBCMT:wopen.obj
 0001:00031405       __wsopen                   10032405 f   LIBCMT:wopen.obj
 0001:00031438       __wsopen_helper            10032438 f   LIBCMT:wopen.obj
 0001:00031501       __wsopen_nolock            10032501 f   LIBCMT:wopen.obj
 0001:00031c54       __wsopen_s                 10032c54 f   LIBCMT:wopen.obj
 0001:00031c72       __strnicmp                 10032c72 f   LIBCMT:strnicmp.obj
 0001:00031cdd       __strnicmp_l               10032cdd f   LIBCMT:strnicmp.obj
 0001:00031d8e       __towlower_l               10032d8e f   LIBCMT:towlower.obj
 0001:00031e3f       _towlower                  10032e3f f   LIBCMT:towlower.obj
 0001:00031e50       _strnlen                   10032e50 f   LIBCMT:strlen_s.obj
 0001:00031e6b       ___wtomb_environ           10032e6b f   LIBCMT:wtombenv.obj
 0001:00031efa       _calloc                    10032efa f   LIBCMT:calloc.obj
 0001:00031f3a       __mbsnbicoll               10032f3a f   LIBCMT:mbsnbico.obj
 0001:00031f52       __mbsnbicoll_l             10032f52 f   LIBCMT:mbsnbico.obj
 0001:00032008       ___termconout              10033008 f   LIBCMT:initcon.obj
 0001:0003201f       ___initconout              1003301f f   LIBCMT:initcon.obj
 0001:0003203e       ___mtold12                 1003303e f   LIBCMT:mantold.obj
 0001:0003233a       __i64tow_s                 1003333a f   LIBCMT:xtows.obj
 0001:0003236b       __itow_s                   1003336b f   LIBCMT:xtows.obj
 0001:00032394       __ltow_s                   10033394 f   LIBCMT:xtows.obj
 0001:000323be       __ui64tow_s                100333be f   LIBCMT:xtows.obj
 0001:000323d9       __ultow_s                  100333d9 f   LIBCMT:xtows.obj
 0001:000324e4       __wtoi                     100334e4 f   LIBCMT:wtox.obj
 0001:000324ed       __wtoi64                   100334ed f   LIBCMT:wtox.obj
 0001:00032501       __wtoi64_l                 10033501 f   LIBCMT:wtox.obj
 0001:00032518       __wtoi_l                   10033518 f   LIBCMT:wtox.obj
 0001:00032521       __wtol                     10033521 f   LIBCMT:wtox.obj
 0001:00032535       __wtol_l                   10033535 f   LIBCMT:wtox.obj
 0001:0003254c       __wtoll                    1003354c f   LIBCMT:wtox.obj
 0001:00032560       __wtoll_l                  10033560 f   LIBCMT:wtox.obj
 0001:00032577       _wcschr                    10033577 f   LIBCMT:wcschr.obj
 0001:00032625       __wcsnicmp                 10033625 f   LIBCMT:wcsnicmp.obj
 0001:000326db       __wcsnicmp_l               100336db f   LIBCMT:wcsnicmp.obj
 0001:000327d4       __chsize                   100337d4 f   LIBCMT:chsize.obj
 0001:000327ee       __chsize_nolock            100337ee f   LIBCMT:chsize.obj
 0001:000329a4       __chsize_s                 100339a4 f   LIBCMT:chsize.obj
 0001:00032a92       __read                     10033a92 f   LIBCMT:read.obj
 0001:00032ba6       __read_nolock              10033ba6 f   LIBCMT:read.obj
 0001:00033337       __get_fmode                10034337 f   LIBCMT:setmode.obj
 0001:00033361       __set_fmode                10034361 f   LIBCMT:setmode.obj
 0001:0003339c       __setmode                  1003439c f   LIBCMT:setmode.obj
 0001:000334a1       __setmode_nolock           100344a1 f   LIBCMT:setmode.obj
 0001:00033570       ___ascii_strnicmp          10034570 f   LIBCMT:_strnicm.obj
 0001:000335d1       ___crtLCMapStringW         100345d1 f   LIBCMT:w_map.obj
 0001:00033600       ___crtsetenv               10034600 f   LIBCMT:setenv.obj
 0001:00033903       __strnicoll                10034903 f   LIBCMT:strnicol.obj
 0001:0003392a       __strnicoll_l              1003492a f   LIBCMT:strnicol.obj
 0001:00033c93       ___crtCompareStringA       10034c93 f   LIBCMT:a_cmp.obj
 0001:00033eb7       __wcstol_l                 10034eb7 f   LIBCMT:wcstol.obj
 0001:00033ecf       __wcstoul_l                10034ecf f   LIBCMT:wcstol.obj
 0001:00033ee7       _wcstol                    10034ee7 f   LIBCMT:wcstol.obj
 0001:00033eff       _wcstoul                   10034eff f   LIBCMT:wcstol.obj
 0001:000341e7       __wcstof_l                 100351e7 f   LIBCMT:wcstoq.obj
 0001:0003429a       __wcstoi64                 1003529a f   LIBCMT:wcstoq.obj
 0001:000342c4       __wcstoi64_l               100352c4 f   LIBCMT:wcstoq.obj
 0001:000342df       __wcstoimax_l              100352df f   LIBCMT:wcstoq.obj
 0001:000342e8       __wcstold_l                100352e8 f   LIBCMT:wcstoq.obj
 0001:000342f1       __wcstoll_l                100352f1 f   LIBCMT:wcstoq.obj
 0001:000342fa       __wcstoui64                100352fa f   LIBCMT:wcstoq.obj
 0001:00034324       __wcstoui64_l              10035324 f   LIBCMT:wcstoq.obj
 0001:0003433f       __wcstoull_l               1003533f f   LIBCMT:wcstoq.obj
 0001:00034348       __wcstoumax_l              10035348 f   LIBCMT:wcstoq.obj
 0001:00034351       _wcstof                    10035351 f   LIBCMT:wcstoq.obj
 0001:00034366       _wcstoimax                 10035366 f   LIBCMT:wcstoq.obj
 0001:0003436f       _wcstold                   1003536f f   LIBCMT:wcstoq.obj
 0001:00034378       _wcstoll                   10035378 f   LIBCMT:wcstoq.obj
 0001:00034381       _wcstoull                  10035381 f   LIBCMT:wcstoq.obj
 0001:0003438a       _wcstoumax                 1003538a f   LIBCMT:wcstoq.obj
 0001:00034393       __strdup                   10035393 f   LIBCMT:strdup.obj
 0001:000343e3       __mbschr                   100353e3 f   LIBCMT:mbschr.obj
 0001:000343f8       __mbschr_l                 100353f8 f   LIBCMT:mbschr.obj
 0001:00034495       __wchartodigit             10035495 f   LIBCMT:wchtodig.obj
 0001:00034634       __wcstod_l                 10035634 f   LIBCMT:wcstod.obj
 0001:0003472f       _wcstod                    1003572f f   LIBCMT:wcstod.obj
 0001:00034744       __wfltin2                  10035744 f   LIBCMT:wcfin.obj
 0001:000347ed       ___WSTRINGTOLD_L           100357ed f   LIBCMT:wstrgtold.obj
 0001:00034848       ___wstrgtold12_l           10035848 f   LIBCMT:wstrgtold.obj
 0001:00035098       ??0_Ignore@std@@QAE@XZ     10036098 f i libcpmt:xthrow.obj
 0001:0003509b       ??0bad_function_call@std@@QAE@ABV01@@Z 1003609b f i libcpmt:xthrow.obj
 0001:000350b6       ??0bad_function_call@std@@QAE@PBD@Z 100360b6 f i libcpmt:xthrow.obj
 0001:000350ca       ??0invalid_argument@std@@QAE@ABV01@@Z 100360ca f i libcpmt:xthrow.obj
 0001:000350e5       ??0invalid_argument@std@@QAE@PBD@Z 100360e5 f i libcpmt:xthrow.obj
 0001:00035107       ??0length_error@std@@QAE@ABV01@@Z 10036107 f i libcpmt:xthrow.obj
 0001:00035122       ??0length_error@std@@QAE@PBD@Z 10036122 f i libcpmt:xthrow.obj
 0001:00035144       ??0logic_error@std@@QAE@ABV01@@Z 10036144 f i libcpmt:xthrow.obj
 0001:0003515f       ??0logic_error@std@@QAE@PBD@Z 1003615f f i libcpmt:xthrow.obj
 0001:0003517b       ??0out_of_range@std@@QAE@ABV01@@Z 1003617b f i libcpmt:xthrow.obj
 0001:00035196       ??0out_of_range@std@@QAE@PBD@Z 10036196 f i libcpmt:xthrow.obj
 0001:000351b8       ??0overflow_error@std@@QAE@ABV01@@Z 100361b8 f i libcpmt:xthrow.obj
 0001:000351d3       ??0overflow_error@std@@QAE@PBD@Z 100361d3 f i libcpmt:xthrow.obj
 0001:000351f5       ??0regex_error@std@@QAE@ABV01@@Z 100361f5 f i libcpmt:xthrow.obj
 0001:00035219       ??0regex_error@std@@QAE@W4error_type@regex_constants@1@@Z 10036219 f i libcpmt:xthrow.obj
 0001:00035249       ??0runtime_error@std@@QAE@ABV01@@Z 10036249 f i libcpmt:xthrow.obj
 0001:00035264       ??0runtime_error@std@@QAE@PBD@Z 10036264 f i libcpmt:xthrow.obj
 0001:00035280       ??1bad_function_call@std@@UAE@XZ 10036280 f i libcpmt:xthrow.obj
 0001:00035285       ??1invalid_argument@std@@UAE@XZ 10036285 f i libcpmt:xthrow.obj
 0001:0003528a       ??1length_error@std@@UAE@XZ 1003628a f i libcpmt:xthrow.obj
 0001:0003528f       ??1logic_error@std@@UAE@XZ 1003628f f i libcpmt:xthrow.obj
 0001:00035294       ??1out_of_range@std@@UAE@XZ 10036294 f i libcpmt:xthrow.obj
 0001:00035299       ??1overflow_error@std@@UAE@XZ 10036299 f i libcpmt:xthrow.obj
 0001:0003529e       ??1regex_error@std@@UAE@XZ 1003629e f i libcpmt:xthrow.obj
 0001:000352a3       ??1runtime_error@std@@UAE@XZ 100362a3 f i libcpmt:xthrow.obj
 0001:000352a8       ??_Ebad_function_call@std@@UAEPAXI@Z 100362a8 f i libcpmt:xthrow.obj
 0001:000352a8       ??_Gbad_function_call@std@@UAEPAXI@Z 100362a8 f i libcpmt:xthrow.obj
 0001:000352c7       ??_Einvalid_argument@std@@UAEPAXI@Z 100362c7 f i libcpmt:xthrow.obj
 0001:000352c7       ??_Ginvalid_argument@std@@UAEPAXI@Z 100362c7 f i libcpmt:xthrow.obj
 0001:000352e6       ??_Elength_error@std@@UAEPAXI@Z 100362e6 f i libcpmt:xthrow.obj
 0001:000352e6       ??_Glength_error@std@@UAEPAXI@Z 100362e6 f i libcpmt:xthrow.obj
 0001:00035305       ??_Elogic_error@std@@UAEPAXI@Z 10036305 f i libcpmt:xthrow.obj
 0001:00035305       ??_Glogic_error@std@@UAEPAXI@Z 10036305 f i libcpmt:xthrow.obj
 0001:00035324       ??_Gout_of_range@std@@UAEPAXI@Z 10036324 f i libcpmt:xthrow.obj
 0001:00035324       ??_Eout_of_range@std@@UAEPAXI@Z 10036324 f i libcpmt:xthrow.obj
 0001:00035343       ??_Goverflow_error@std@@UAEPAXI@Z 10036343 f i libcpmt:xthrow.obj
 0001:00035343       ??_Eoverflow_error@std@@UAEPAXI@Z 10036343 f i libcpmt:xthrow.obj
 0001:00035362       ??_Gregex_error@std@@UAEPAXI@Z 10036362 f i libcpmt:xthrow.obj
 0001:00035362       ??_Eregex_error@std@@UAEPAXI@Z 10036362 f i libcpmt:xthrow.obj
 0001:00035381       ??_Gruntime_error@std@@UAEPAXI@Z 10036381 f i libcpmt:xthrow.obj
 0001:00035381       ??_Eruntime_error@std@@UAEPAXI@Z 10036381 f i libcpmt:xthrow.obj
 0001:000353a0       ?_Stringify@regex_error@std@@CAPBDW4error_type@regex_constants@2@@Z 100363a0 f i libcpmt:xthrow.obj
 0001:00035460       ?_Xbad_alloc@std@@YAXXZ    10036460 f   libcpmt:xthrow.obj
 0001:00035491       ?_Xbad_function_call@std@@YAXXZ 10036491 f   libcpmt:xthrow.obj
 0001:000354b5       ?_Xinvalid_argument@std@@YAXPBD@Z 100364b5 f   libcpmt:xthrow.obj
 0001:000354e3       ?_Xlength_error@std@@YAXPBD@Z 100364e3 f   libcpmt:xthrow.obj
 0001:00035511       ?_Xout_of_range@std@@YAXPBD@Z 10036511 f   libcpmt:xthrow.obj
 0001:0003553f       ?_Xoverflow_error@std@@YAXPBD@Z 1003653f f   libcpmt:xthrow.obj
 0001:0003556d       ?_Xregex_error@std@@YAXW4error_type@regex_constants@1@@Z 1003656d f   libcpmt:xthrow.obj
 0001:0003558d       ?_Xruntime_error@std@@YAXPBD@Z 1003658d f   libcpmt:xthrow.obj
 0001:000355bb       ?what@bad_function_call@std@@UBEPBDXZ 100365bb f i libcpmt:xthrow.obj
 0001:000355c1       ?_Syserror_map@std@@YAPBDH@Z 100365c1 f   libcpmt:syserror.obj
 0001:000355eb       ?_Winerror_map@std@@YAPBDH@Z 100365eb f   libcpmt:syserror.obj
 0001:00035616       _GetFileVersionInfoSizeA@8 10036616 f   version:VERSION.dll
 0001:0003561c       _GetFileVersionInfoA@16    1003661c f   version:VERSION.dll
 0001:00035622       _RpcStringFreeA@4          10036622 f   Rpcrt4:RPCRT4.dll
 0001:00035628       _UuidToStringA@8           10036628 f   Rpcrt4:RPCRT4.dll
 0001:0003562e       _IsDebuggerPresent@0       1003662e f   kernel32:KERNEL32.dll
 0001:00035634       _OutputDebugStringW@4      10036634 f   kernel32:KERNEL32.dll
 0001:0003563a       _EncodePointer@4           1003663a f   kernel32:KERNEL32.dll
 0001:00035640       _ExitProcess@4             10036640 f   kernel32:KERNEL32.dll
 0001:00035646       _GetModuleHandleExW@12     10036646 f   kernel32:KERNEL32.dll
 0001:0003564c       _AreFileApisANSI@0         1003664c f   kernel32:KERNEL32.dll
 0001:00035652       _HeapFree@12               10036652 f   kernel32:KERNEL32.dll
 0001:00035658       _RtlUnwind@16              10036658 f   kernel32:KERNEL32.dll
 0001:0003565e       _IsProcessorFeaturePresent@4 1003665e f   kernel32:KERNEL32.dll
 0001:00035664       _CreateThread@24           10036664 f   kernel32:KERNEL32.dll
 0001:0003566a       _ExitThread@4              1003666a f   kernel32:KERNEL32.dll
 0001:00035670       _LoadLibraryExW@12         10036670 f   kernel32:KERNEL32.dll
 0001:00035676       _SetConsoleCtrlHandler@8   10036676 f   kernel32:KERNEL32.dll
 0001:0003567c       _GetSystemTimeAsFileTime@4 1003667c f   kernel32:KERNEL32.dll
 0001:00035682       _HeapAlloc@12              10036682 f   kernel32:KERNEL32.dll
 0001:00035688       _GetSystemInfo@4           10036688 f   kernel32:KERNEL32.dll
 0001:0003568e       _VirtualAlloc@16           1003668e f   kernel32:KERNEL32.dll
 0001:00035694       _GetCommandLineA@0         10036694 f   kernel32:KERNEL32.dll
 0001:0003569a       _HeapSize@12               1003669a f   kernel32:KERNEL32.dll
 0001:000356a0       _FatalAppExitA@8           100366a0 f   kernel32:KERNEL32.dll
 0001:000356a6       _UnhandledExceptionFilter@4 100366a6 f   kernel32:KERNEL32.dll
 0001:000356ac       _SetLastError@4            100366ac f   kernel32:KERNEL32.dll
 0001:000356b2       _CreateEventW@16           100366b2 f   kernel32:KERNEL32.dll
 0001:000356b8       _Sleep@4                   100366b8 f   kernel32:KERNEL32.dll
 0001:000356be       _TlsAlloc@0                100366be f   kernel32:KERNEL32.dll
 0001:000356c4       _TlsGetValue@4             100366c4 f   kernel32:KERNEL32.dll
 0001:000356ca       _TlsSetValue@8             100366ca f   kernel32:KERNEL32.dll
 0001:000356d0       _TlsFree@4                 100366d0 f   kernel32:KERNEL32.dll
 0001:000356d6       _GetStartupInfoW@4         100366d6 f   kernel32:KERNEL32.dll
 0001:000356dc       _GetTickCount@0            100366dc f   kernel32:KERNEL32.dll
 0001:000356e2       _GetModuleHandleW@4        100366e2 f   kernel32:KERNEL32.dll
 0001:000356e8       _CreateSemaphoreW@16       100366e8 f   kernel32:KERNEL32.dll
 0001:000356ee       _GetStdHandle@4            100366ee f   kernel32:KERNEL32.dll
 0001:000356f4       _WriteFile@20              100366f4 f   kernel32:KERNEL32.dll
 0001:000356fa       _GetModuleFileNameW@12     100366fa f   kernel32:KERNEL32.dll
 0001:00035700       _IsValidCodePage@4         10036700 f   kernel32:KERNEL32.dll
 0001:00035706       _GetACP@0                  10036706 f   kernel32:KERNEL32.dll
 0001:0003570c       _GetOEMCP@0                1003670c f   kernel32:KERNEL32.dll
 0001:00035712       _GetCPInfo@8               10036712 f   kernel32:KERNEL32.dll
 0001:00035718       _GetProcessHeap@0          10036718 f   kernel32:KERNEL32.dll
 0001:0003571e       _GetCurrentThread@0        1003671e f   kernel32:KERNEL32.dll
 0001:00035724       _GetStringTypeW@16         10036724 f   kernel32:KERNEL32.dll
 0001:0003572a       _GetFileType@4             1003672a f   kernel32:KERNEL32.dll
 0001:00035730       _DeleteFileW@4             10036730 f   kernel32:KERNEL32.dll
 0001:00035736       _GetTimeZoneInformation@4  10036736 f   kernel32:KERNEL32.dll
 0001:0003573c       _HeapReAlloc@16            1003673c f   kernel32:KERNEL32.dll
 0001:00035742       _QueryPerformanceCounter@4 10036742 f   kernel32:KERNEL32.dll
 0001:00035748       _GetEnvironmentStringsW@0  10036748 f   kernel32:KERNEL32.dll
 0001:0003574e       _FreeEnvironmentStringsW@4 1003674e f   kernel32:KERNEL32.dll
 0001:00035754       _GetDateFormatW@24         10036754 f   kernel32:KERNEL32.dll
 0001:0003575a       _GetTimeFormatW@24         1003675a f   kernel32:KERNEL32.dll
 0001:00035760       _CompareStringW@24         10036760 f   kernel32:KERNEL32.dll
 0001:00035766       _LCMapStringW@24           10036766 f   kernel32:KERNEL32.dll
 0001:0003576c       _GetLocaleInfoW@16         1003676c f   kernel32:KERNEL32.dll
 0001:00035772       _IsValidLocale@8           10036772 f   kernel32:KERNEL32.dll
 0001:00035778       _GetUserDefaultLCID@0      10036778 f   kernel32:KERNEL32.dll
 0001:0003577e       _EnumSystemLocalesW@8      1003677e f   kernel32:KERNEL32.dll
 0001:00035784       _GetConsoleCP@0            10036784 f   kernel32:KERNEL32.dll
 0001:0003578a       _GetConsoleMode@8          1003678a f   kernel32:KERNEL32.dll
 0001:00035790       _SetFilePointerEx@20       10036790 f   kernel32:KERNEL32.dll
 0001:00035796       _SetStdHandle@8            10036796 f   kernel32:KERNEL32.dll
 0001:0003579c       _FlushFileBuffers@4        1003679c f   kernel32:KERNEL32.dll
 0001:000357a2       _WriteConsoleW@20          100367a2 f   kernel32:KERNEL32.dll
 0001:000357a8       _CreateFileW@28            100367a8 f   kernel32:KERNEL32.dll
 0001:000357ae       _SetEndOfFile@4            100367ae f   kernel32:KERNEL32.dll
 0001:000357b4       _ReadConsoleW@20           100367b4 f   kernel32:KERNEL32.dll
 0001:000357ba       _SetEnvironmentVariableA@8 100367ba f   kernel32:KERNEL32.dll
 0002:00000000       __imp__RegSetValueExA@24   10038000     advapi32:ADVAPI32.dll
 0002:00000004       __imp__RegQueryInfoKeyW@48 10038004     advapi32:ADVAPI32.dll
 0002:00000008       __imp__RegEnumKeyExA@32    10038008     advapi32:ADVAPI32.dll
 0002:0000000c       __imp__RegDeleteValueA@8   1003800c     advapi32:ADVAPI32.dll
 0002:00000010       __imp__RegDeleteKeyA@8     10038010     advapi32:ADVAPI32.dll
 0002:00000014       __imp__RegCreateKeyExA@36  10038014     advapi32:ADVAPI32.dll
 0002:00000018       __imp__RegOpenKeyA@12      10038018     advapi32:ADVAPI32.dll
 0002:0000001c       __imp__RegCreateKeyA@12    1003801c     advapi32:ADVAPI32.dll
 0002:00000020       __imp__RegQueryValueExA@24 10038020     advapi32:ADVAPI32.dll
 0002:00000024       __imp__RegOpenKeyExA@20    10038024     advapi32:ADVAPI32.dll
 0002:00000028       __imp__RegCloseKey@4       10038028     advapi32:ADVAPI32.dll
 0002:0000002c       \177ADVAPI32_NULL_THUNK_DATA 1003802c     advapi32:ADVAPI32.dll
 0002:00000030       __imp__IsValidLocale@8     10038030     kernel32:KERNEL32.dll
 0002:00000034       __imp__GetLocaleInfoW@16   10038034     kernel32:KERNEL32.dll
 0002:00000038       __imp__LCMapStringW@24     10038038     kernel32:KERNEL32.dll
 0002:0000003c       __imp__CompareStringW@24   1003803c     kernel32:KERNEL32.dll
 0002:00000040       __imp__GetTimeFormatW@24   10038040     kernel32:KERNEL32.dll
 0002:00000044       __imp__GetDateFormatW@24   10038044     kernel32:KERNEL32.dll
 0002:00000048       __imp__CreateFileA@28      10038048     kernel32:KERNEL32.dll
 0002:0000004c       __imp__DeleteFileA@4       1003804c     kernel32:KERNEL32.dll
 0002:00000050       __imp__GetTempPathA@8      10038050     kernel32:KERNEL32.dll
 0002:00000054       __imp__DecodePointer@4     10038054     kernel32:KERNEL32.dll
 0002:00000058       __imp__CloseHandle@4       10038058     kernel32:KERNEL32.dll
 0002:0000005c       __imp__RaiseException@16   1003805c     kernel32:KERNEL32.dll
 0002:00000060       __imp__GetLastError@0      10038060     kernel32:KERNEL32.dll
 0002:00000064       __imp__InitializeCriticalSectionAndSpinCount@8 10038064     kernel32:KERNEL32.dll
 0002:00000068       __imp__DeleteCriticalSection@4 10038068     kernel32:KERNEL32.dll
 0002:0000006c       __imp__GetCurrentProcess@0 1003806c     kernel32:KERNEL32.dll
 0002:00000070       __imp__GetCurrentProcessId@0 10038070     kernel32:KERNEL32.dll
 0002:00000074       __imp__GetCurrentThreadId@0 10038074     kernel32:KERNEL32.dll
 0002:00000078       __imp__OpenThread@12       10038078     kernel32:KERNEL32.dll
 0002:0000007c       __imp__SuspendThread@4     1003807c     kernel32:KERNEL32.dll
 0002:00000080       __imp__ResumeThread@4      10038080     kernel32:KERNEL32.dll
 0002:00000084       __imp__GetProcessId@4      10038084     kernel32:KERNEL32.dll
 0002:00000088       __imp__GetThreadContext@8  10038088     kernel32:KERNEL32.dll
 0002:0000008c       __imp__GetProcAddress@8    1003808c     kernel32:KERNEL32.dll
 0002:00000090       __imp__LoadLibraryA@4      10038090     kernel32:KERNEL32.dll
 0002:00000094       __imp__LocalFree@4         10038094     kernel32:KERNEL32.dll
 0002:00000098       __imp__FormatMessageA@28   10038098     kernel32:KERNEL32.dll
 0002:0000009c       __imp__lstrlenA@4          1003809c     kernel32:KERNEL32.dll
 0002:000000a0       __imp__CreateToolhelp32Snapshot@8 100380a0     kernel32:KERNEL32.dll
 0002:000000a4       __imp__Thread32First@8     100380a4     kernel32:KERNEL32.dll
 0002:000000a8       __imp__Thread32Next@8      100380a8     kernel32:KERNEL32.dll
 0002:000000ac       __imp__GetFileSize@8       100380ac     kernel32:KERNEL32.dll
 0002:000000b0       __imp__ReadFile@20         100380b0     kernel32:KERNEL32.dll
 0002:000000b4       __imp__LocalAlloc@8        100380b4     kernel32:KERNEL32.dll
 0002:000000b8       __imp__DebugBreak@0        100380b8     kernel32:KERNEL32.dll
 0002:000000bc       __imp__GetUserDefaultLCID@0 100380bc     kernel32:KERNEL32.dll
 0002:000000c0       __imp__SetUnhandledExceptionFilter@4 100380c0     kernel32:KERNEL32.dll
 0002:000000c4       __imp__SetErrorMode@4      100380c4     kernel32:KERNEL32.dll
 0002:000000c8       __imp__WaitForSingleObject@8 100380c8     kernel32:KERNEL32.dll
 0002:000000cc       __imp__TerminateProcess@8  100380cc     kernel32:KERNEL32.dll
 0002:000000d0       __imp__CreateProcessA@40   100380d0     kernel32:KERNEL32.dll
 0002:000000d4       __imp__FlushInstructionCache@12 100380d4     kernel32:KERNEL32.dll
 0002:000000d8       __imp__OpenProcess@12      100380d8     kernel32:KERNEL32.dll
 0002:000000dc       __imp__GetSystemTime@4     100380dc     kernel32:KERNEL32.dll
 0002:000000e0       __imp__VirtualProtect@16   100380e0     kernel32:KERNEL32.dll
 0002:000000e4       __imp__VirtualQuery@12     100380e4     kernel32:KERNEL32.dll
 0002:000000e8       __imp__FreeLibrary@4       100380e8     kernel32:KERNEL32.dll
 0002:000000ec       __imp__GetModuleFileNameA@12 100380ec     kernel32:KERNEL32.dll
 0002:000000f0       __imp__GetModuleHandleA@4  100380f0     kernel32:KERNEL32.dll
 0002:000000f4       __imp__WritePrivateProfileStringA@16 100380f4     kernel32:KERNEL32.dll
 0002:000000f8       __imp__SystemTimeToFileTime@8 100380f8     kernel32:KERNEL32.dll
 0002:000000fc       __imp__WideCharToMultiByte@32 100380fc     kernel32:KERNEL32.dll
 0002:00000100       __imp__EnterCriticalSection@4 10038100     kernel32:KERNEL32.dll
 0002:00000104       __imp__LeaveCriticalSection@4 10038104     kernel32:KERNEL32.dll
 0002:00000108       __imp__LoadLibraryExA@12   10038108     kernel32:KERNEL32.dll
 0002:0000010c       __imp__LoadResource@8      1003810c     kernel32:KERNEL32.dll
 0002:00000110       __imp__SizeofResource@8    10038110     kernel32:KERNEL32.dll
 0002:00000114       __imp__lstrcmpiA@8         10038114     kernel32:KERNEL32.dll
 0002:00000118       __imp__FindResourceA@12    10038118     kernel32:KERNEL32.dll
 0002:0000011c       __imp__MultiByteToWideChar@24 1003811c     kernel32:KERNEL32.dll
 0002:00000120       __imp__IsDBCSLeadByte@4    10038120     kernel32:KERNEL32.dll
 0002:00000124       __imp__FreeEnvironmentStringsW@4 10038124     kernel32:KERNEL32.dll
 0002:00000128       __imp__GetEnvironmentStringsW@0 10038128     kernel32:KERNEL32.dll
 0002:0000012c       __imp__QueryPerformanceCounter@4 1003812c     kernel32:KERNEL32.dll
 0002:00000130       __imp__HeapReAlloc@16      10038130     kernel32:KERNEL32.dll
 0002:00000134       __imp__GetTimeZoneInformation@4 10038134     kernel32:KERNEL32.dll
 0002:00000138       __imp__DeleteFileW@4       10038138     kernel32:KERNEL32.dll
 0002:0000013c       __imp__GetFileType@4       1003813c     kernel32:KERNEL32.dll
 0002:00000140       __imp__GetStringTypeW@16   10038140     kernel32:KERNEL32.dll
 0002:00000144       __imp__GetCurrentThread@0  10038144     kernel32:KERNEL32.dll
 0002:00000148       __imp__EnumSystemLocalesW@8 10038148     kernel32:KERNEL32.dll
 0002:0000014c       __imp__GetConsoleCP@0      1003814c     kernel32:KERNEL32.dll
 0002:00000150       __imp__GetConsoleMode@8    10038150     kernel32:KERNEL32.dll
 0002:00000154       __imp__SetFilePointerEx@20 10038154     kernel32:KERNEL32.dll
 0002:00000158       __imp__SetStdHandle@8      10038158     kernel32:KERNEL32.dll
 0002:0000015c       __imp__SetEnvironmentVariableA@8 1003815c     kernel32:KERNEL32.dll
 0002:00000160       __imp__FlushFileBuffers@4  10038160     kernel32:KERNEL32.dll
 0002:00000164       __imp__WriteConsoleW@20    10038164     kernel32:KERNEL32.dll
 0002:00000168       __imp__CreateFileW@28      10038168     kernel32:KERNEL32.dll
 0002:0000016c       __imp__SetEndOfFile@4      1003816c     kernel32:KERNEL32.dll
 0002:00000170       __imp__ReadConsoleW@20     10038170     kernel32:KERNEL32.dll
 0002:00000174       __imp__OutputDebugStringA@4 10038174     kernel32:KERNEL32.dll
 0002:00000178       __imp__GetProcessHeap@0    10038178     kernel32:KERNEL32.dll
 0002:0000017c       __imp__GetCPInfo@8         1003817c     kernel32:KERNEL32.dll
 0002:00000180       __imp__GetOEMCP@0          10038180     kernel32:KERNEL32.dll
 0002:00000184       __imp__GetACP@0            10038184     kernel32:KERNEL32.dll
 0002:00000188       __imp__IsValidCodePage@4   10038188     kernel32:KERNEL32.dll
 0002:0000018c       __imp__GetModuleFileNameW@12 1003818c     kernel32:KERNEL32.dll
 0002:00000190       __imp__WriteFile@20        10038190     kernel32:KERNEL32.dll
 0002:00000194       __imp__GetStdHandle@4      10038194     kernel32:KERNEL32.dll
 0002:00000198       __imp__CreateSemaphoreW@16 10038198     kernel32:KERNEL32.dll
 0002:0000019c       __imp__GetModuleHandleW@4  1003819c     kernel32:KERNEL32.dll
 0002:000001a0       __imp__GetTickCount@0      100381a0     kernel32:KERNEL32.dll
 0002:000001a4       __imp__GetStartupInfoW@4   100381a4     kernel32:KERNEL32.dll
 0002:000001a8       __imp__TlsFree@4           100381a8     kernel32:KERNEL32.dll
 0002:000001ac       __imp__TlsSetValue@8       100381ac     kernel32:KERNEL32.dll
 0002:000001b0       __imp__TlsGetValue@4       100381b0     kernel32:KERNEL32.dll
 0002:000001b4       __imp__IsDebuggerPresent@0 100381b4     kernel32:KERNEL32.dll
 0002:000001b8       __imp__OutputDebugStringW@4 100381b8     kernel32:KERNEL32.dll
 0002:000001bc       __imp__EncodePointer@4     100381bc     kernel32:KERNEL32.dll
 0002:000001c0       __imp__ExitProcess@4       100381c0     kernel32:KERNEL32.dll
 0002:000001c4       __imp__GetModuleHandleExW@12 100381c4     kernel32:KERNEL32.dll
 0002:000001c8       __imp__AreFileApisANSI@0   100381c8     kernel32:KERNEL32.dll
 0002:000001cc       __imp__HeapFree@12         100381cc     kernel32:KERNEL32.dll
 0002:000001d0       __imp__RtlUnwind@16        100381d0     kernel32:KERNEL32.dll
 0002:000001d4       __imp__IsProcessorFeaturePresent@4 100381d4     kernel32:KERNEL32.dll
 0002:000001d8       __imp__CreateThread@24     100381d8     kernel32:KERNEL32.dll
 0002:000001dc       __imp__ExitThread@4        100381dc     kernel32:KERNEL32.dll
 0002:000001e0       __imp__LoadLibraryExW@12   100381e0     kernel32:KERNEL32.dll
 0002:000001e4       __imp__SetConsoleCtrlHandler@8 100381e4     kernel32:KERNEL32.dll
 0002:000001e8       __imp__GetSystemTimeAsFileTime@4 100381e8     kernel32:KERNEL32.dll
 0002:000001ec       __imp__HeapAlloc@12        100381ec     kernel32:KERNEL32.dll
 0002:000001f0       __imp__GetSystemInfo@4     100381f0     kernel32:KERNEL32.dll
 0002:000001f4       __imp__VirtualAlloc@16     100381f4     kernel32:KERNEL32.dll
 0002:000001f8       __imp__GetCommandLineA@0   100381f8     kernel32:KERNEL32.dll
 0002:000001fc       __imp__HeapSize@12         100381fc     kernel32:KERNEL32.dll
 0002:00000200       __imp__FatalAppExitA@8     10038200     kernel32:KERNEL32.dll
 0002:00000204       __imp__UnhandledExceptionFilter@4 10038204     kernel32:KERNEL32.dll
 0002:00000208       __imp__SetLastError@4      10038208     kernel32:KERNEL32.dll
 0002:0000020c       __imp__CreateEventW@16     1003820c     kernel32:KERNEL32.dll
 0002:00000210       __imp__Sleep@4             10038210     kernel32:KERNEL32.dll
 0002:00000214       __imp__TlsAlloc@0          10038214     kernel32:KERNEL32.dll
 0002:00000218       \177KERNEL32_NULL_THUNK_DATA 10038218     kernel32:KERNEL32.dll
 0002:0000021c       __imp__VarUI4FromStr@16    1003821c     oleaut32:OLEAUT32.dll
 0002:00000220       __imp__SysFreeString@4     10038220     oleaut32:OLEAUT32.dll
 0002:00000224       \177OLEAUT32_NULL_THUNK_DATA 10038224     oleaut32:OLEAUT32.dll
 0002:00000228       __imp__RpcStringFreeA@4    10038228     Rpcrt4:RPCRT4.dll
 0002:0000022c       __imp__UuidToStringA@8     1003822c     Rpcrt4:RPCRT4.dll
 0002:00000230       \177RPCRT4_NULL_THUNK_DATA 10038230     Rpcrt4:RPCRT4.dll
 0002:00000234       __imp__PathFileExistsA@4   10038234     shlwapi:SHLWAPI.dll
 0002:00000238       __imp__PathAppendA@8       10038238     shlwapi:SHLWAPI.dll
 0002:0000023c       __imp__PathRemoveExtensionA@4 1003823c     shlwapi:SHLWAPI.dll
 0002:00000240       __imp__PathStripPathA@4    10038240     shlwapi:SHLWAPI.dll
 0002:00000244       \177SHLWAPI_NULL_THUNK_DATA 10038244     shlwapi:SHLWAPI.dll
 0002:00000248       __imp__LoadStringA@16      10038248     user32:USER32.dll
 0002:0000024c       __imp__UnregisterClassA@8  1003824c     user32:USER32.dll
 0002:00000250       __imp__CharUpperA@4        10038250     user32:USER32.dll
 0002:00000254       __imp__MessageBoxA@16      10038254     user32:USER32.dll
 0002:00000258       __imp__DestroyWindow@4     10038258     user32:USER32.dll
 0002:0000025c       __imp__CharNextA@4         1003825c     user32:USER32.dll
 0002:00000260       __imp__CharLowerA@4        10038260     user32:USER32.dll
 0002:00000264       __imp__wvsprintfA@12       10038264     user32:USER32.dll
 0002:00000268       \177USER32_NULL_THUNK_DATA 10038268     user32:USER32.dll
 0002:0000026c       __imp__GetFileVersionInfoA@16 1003826c     version:VERSION.dll
 0002:00000270       __imp__GetFileVersionInfoSizeA@8 10038270     version:VERSION.dll
 0002:00000274       \177VERSION_NULL_THUNK_DATA 10038274     version:VERSION.dll
 0002:00000278       __imp__InternetWriteFile@16 10038278     wininet:WININET.dll
 0002:0000027c       __imp__HttpOpenRequestA@32 1003827c     wininet:WININET.dll
 0002:00000280       __imp__InternetReadFile@16 10038280     wininet:WININET.dll
 0002:00000284       __imp__InternetConnectA@32 10038284     wininet:WININET.dll
 0002:00000288       __imp__InternetCloseHandle@4 10038288     wininet:WININET.dll
 0002:0000028c       __imp__HttpQueryInfoA@20   1003828c     wininet:WININET.dll
 0002:00000290       __imp__InternetAttemptConnect@4 10038290     wininet:WININET.dll
 0002:00000294       __imp__InternetOpenA@20    10038294     wininet:WININET.dll
 0002:00000298       __imp__HttpEndRequestA@16  10038298     wininet:WININET.dll
 0002:0000029c       __imp__HttpSendRequestExA@20 1003829c     wininet:WININET.dll
 0002:000002a0       __imp__HttpSendRequestA@20 100382a0     wininet:WININET.dll
 0002:000002a4       __imp__HttpAddRequestHeadersA@16 100382a4     wininet:WININET.dll
 0002:000002a8       \177WININET_NULL_THUNK_DATA 100382a8     wininet:WININET.dll
 0002:000002ac       __imp__CoTaskMemFree@4     100382ac     ole32:ole32.dll
 0002:000002b0       __imp__CoTaskMemRealloc@8  100382b0     ole32:ole32.dll
 0002:000002b4       __imp__CoTaskMemAlloc@4    100382b4     ole32:ole32.dll
 0002:000002b8       __imp__CoCreateInstance@20 100382b8     ole32:ole32.dll
 0002:000002bc       __imp__CoCreateGuid@4      100382bc     ole32:ole32.dll
 0002:000002c0       \177ole32_NULL_THUNK_DATA  100382c0     ole32:ole32.dll
 0002:000002c4       ___xc_a                    100382c4     LIBCMT:crt0init.obj
 0002:000002e8       ___xc_z                    100382e8     LIBCMT:crt0init.obj
 0002:000002ec       ___xi_a                    100382ec     LIBCMT:crt0init.obj
 0002:00000300       ___xi_z                    10038300     LIBCMT:crt0init.obj
 0002:00000304       ___xp_a                    10038304     LIBCMT:crt0init.obj
 0002:00000314       ___xp_z                    10038314     LIBCMT:crt0init.obj
 0002:00000318       ___xt_a                    10038318     LIBCMT:crt0init.obj
 0002:0000031c       ___xt_z                    1003831c     LIBCMT:crt0init.obj
 0002:00000358       ?pmField@?$CVarTypeInfo@PAH@ATL@@2QQtagVARIANT@@PAHQ3@ 10038358     BugSplatImp.obj
 0002:0000035c       ?pmField@?$CVarTypeInfo@I@ATL@@2QQtagVARIANT@@IQ3@ 1003835c     BugSplatImp.obj
 0002:00000360       ?pmField@?$CVarTypeInfo@PAI@ATL@@2QQtagVARIANT@@PAIQ3@ 10038360     BugSplatImp.obj
 0002:00000364       ?pmField@?$CVarTypeInfo@J@ATL@@2QQtagVARIANT@@JQ3@ 10038364     BugSplatImp.obj
 0002:00000368       ?pmField@?$CVarTypeInfo@PAJ@ATL@@2QQtagVARIANT@@PAJQ3@ 10038368     BugSplatImp.obj
 0002:0000036c       _IID_IDocHostUIHandlerDispatch 1003836c     BugSplatImp.obj
 0002:0000037c       ?pmField@?$CVarTypeInfo@K@ATL@@2QQtagVARIANT@@KQ3@ 1003837c     BugSplatImp.obj
 0002:00000380       ?pmField@?$CVarTypeInfo@PAK@ATL@@2QQtagVARIANT@@PAKQ3@ 10038380     BugSplatImp.obj
 0002:00000384       ?pmField@?$CVarTypeInfo@_J@ATL@@2QQtagVARIANT@@_JQ3@ 10038384     BugSplatImp.obj
 0002:00000388       ?pmField@?$CVarTypeInfo@PA_J@ATL@@2QQtagVARIANT@@PA_JQ3@ 10038388     BugSplatImp.obj
 0002:0000038c       ?pmField@?$CVarTypeInfo@_K@ATL@@2QQtagVARIANT@@_KQ3@ 1003838c     BugSplatImp.obj
 0002:00000390       ?pmField@?$CVarTypeInfo@PA_K@ATL@@2QQtagVARIANT@@PA_KQ3@ 10038390     BugSplatImp.obj
 0002:00000394       ?pmField@?$CVarTypeInfo@M@ATL@@2QQtagVARIANT@@MQ3@ 10038394     BugSplatImp.obj
 0002:00000398       ?pmField@?$CVarTypeInfo@PAM@ATL@@2QQtagVARIANT@@PAMQ3@ 10038398     BugSplatImp.obj
 0002:0000039c       ?pmField@?$CVarTypeInfo@N@ATL@@2QQtagVARIANT@@NQ3@ 1003839c     BugSplatImp.obj
 0002:000003a0       ?pmField@?$CVarTypeInfo@PAN@ATL@@2QQtagVARIANT@@PANQ3@ 100383a0     BugSplatImp.obj
 0002:000003a4       ?pmField@?$CVarTypeInfo@PAG@ATL@@2QQtagVARIANT@@PAGQ3@ 100383a4     BugSplatImp.obj
 0002:000003a8       ?pmField@?$CVarTypeInfo@PAPAG@ATL@@2QQtagVARIANT@@PAPAGQ3@ 100383a8     BugSplatImp.obj
 0002:000003ac       ?pmField@?$CVarTypeInfo@PAUIUnknown@@@ATL@@2QQtagVARIANT@@PAUIUnknown@@Q3@ 100383ac     BugSplatImp.obj
 0002:000003b0       _LIBID_ATLLib              100383b0     BugSplatImp.obj
 0002:000003c0       ?pmField@?$CVarTypeInfo@PAPAUIUnknown@@@ATL@@2QQtagVARIANT@@PAPAUIUnknown@@Q3@ 100383c0     BugSplatImp.obj
 0002:000003c4       ?pmField@?$CVarTypeInfo@PAUIDispatch@@@ATL@@2QQtagVARIANT@@PAUIDispatch@@Q3@ 100383c4     BugSplatImp.obj
 0002:000003c8       _IID_IAxWinHostWindow      100383c8     BugSplatImp.obj
 0002:000003d8       ?pmField@?$CVarTypeInfo@PAPAUIDispatch@@@ATL@@2QQtagVARIANT@@PAPAUIDispatch@@Q3@ 100383d8     BugSplatImp.obj
 0002:000003dc       ?pmField@?$CVarTypeInfo@TtagCY@@@ATL@@2QQtagVARIANT@@TtagCY@@Q3@ 100383dc     BugSplatImp.obj
 0002:000003e0       ?pmField@?$CVarTypeInfo@PATtagCY@@@ATL@@2QQtagVARIANT@@PATtagCY@@Q3@ 100383e0     BugSplatImp.obj
 0002:000003e4       _IID_IAxWinHostWindowLic   100383e4     BugSplatImp.obj
 0002:000003f4       ??_C@_0BF@HDDNNDFH@Component?5Categories?$AA@ 100383f4     BugSplatImp.obj
 0002:0000040c       ??_C@_08PICKODJL@FileType?$AA@ 1003840c     BugSplatImp.obj
 0002:00000418       ??_C@_09JKPGEJCH@Interface?$AA@ 10038418     BugSplatImp.obj
 0002:00000424       ??_C@_08PPIOJEA@Hardware?$AA@ 10038424     BugSplatImp.obj
 0002:00000430       ??_C@_04IHBFOLAC@Mime?$AA@ 10038430     BugSplatImp.obj
 0002:00000438       _IID_IAxWinAmbientDispatch 10038438     BugSplatImp.obj
 0002:00000448       ??_C@_03DDIMFGBA@SAM?$AA@  10038448     BugSplatImp.obj
 0002:0000044c       ??_C@_08LOPHEHKG@SECURITY?$AA@ 1003844c     BugSplatImp.obj
 0002:00000458       ??_C@_06FDHFNJBJ@SYSTEM?$AA@ 10038458     BugSplatImp.obj
 0002:00000460       ??_C@_08KEKAJNJI@Software?$AA@ 10038460     BugSplatImp.obj
 0002:0000046c       ??_C@_07KJLOKDKB@TypeLib?$AA@ 1003846c     BugSplatImp.obj
 0002:00000474       ??_C@_05GIBEAPNE@CLSID?$AA@ 10038474     BugSplatImp.obj
 0002:0000047c       ??_C@_05PDIKPLII@AppID?$AA@ 1003847c     BugSplatImp.obj
 0002:00000482       ?chDirSep@ATL@@3DB         10038482     BugSplatImp.obj
 0002:00000483       ?chRightBracket@ATL@@3DB   10038483     BugSplatImp.obj
 0002:00000484       ?chLeftBracket@ATL@@3DB    10038484     BugSplatImp.obj
 0002:00000485       ?chQuote@ATL@@3DB          10038485     BugSplatImp.obj
 0002:00000486       ?chEquals@ATL@@3DB         10038486     BugSplatImp.obj
 0002:00000488       ?szStringVal@ATL@@3QBDB    10038488     BugSplatImp.obj
 0002:0000048c       ??_C@_01CPLAODJH@S?$AA@    1003848c     BugSplatImp.obj
 0002:00000490       ?multiszStringVal@ATL@@3QBDB 10038490     BugSplatImp.obj
 0002:00000494       ??_C@_01PLPBNMEI@M?$AA@    10038494     BugSplatImp.obj
 0002:00000498       ?szDwordVal@ATL@@3QBDB     10038498     BugSplatImp.obj
 0002:0000049c       ??_C@_01CKDDGHAB@D?$AA@    1003849c     BugSplatImp.obj
 0002:000004a0       ?szBinaryVal@ATL@@3QBDB    100384a0     BugSplatImp.obj
 0002:000004a4       ??_C@_01HMGJMAIH@B?$AA@    100384a4     BugSplatImp.obj
 0002:000004a8       ?szValToken@ATL@@3QBDB     100384a8     BugSplatImp.obj
 0002:000004ac       ??_C@_03LAIAPFCB@Val?$AA@  100384ac     BugSplatImp.obj
 0002:000004b0       ?szForceRemove@ATL@@3QBDB  100384b0     BugSplatImp.obj
 0002:000004b4       ??_C@_0M@DBGDLGLL@ForceRemove?$AA@ 100384b4     BugSplatImp.obj
 0002:000004c0       ?szNoRemove@ATL@@3QBDB     100384c0     BugSplatImp.obj
 0002:000004c4       ??_C@_08KAAPDIAN@NoRemove?$AA@ 100384c4     BugSplatImp.obj
 0002:000004d0       ?szDelete@ATL@@3QBDB       100384d0     BugSplatImp.obj
 0002:000004d4       ??_C@_06JBKGCNBB@Delete?$AA@ 100384d4     BugSplatImp.obj
 0002:000004dc       _IID_IAxWinAmbientDispatchEx 100384dc     BugSplatImp.obj
 0002:000004ec       _IID_IInternalConnection   100384ec     BugSplatImp.obj
 0002:000004fc       ?rgszNeverDelete@CRegParser@ATL@@1QBQBDB 100384fc     BugSplatImp.obj
 0002:0000052c       ?cbNeverDelete@CRegParser@ATL@@1HB 1003852c     BugSplatImp.obj
 0002:00000530       ?pmField@?$CVarTypeInfo@D@ATL@@2QQtagVARIANT@@DQ3@ 10038530     BugSplatImp.obj
 0002:00000534       _CLSID_Registrar           10038534     BugSplatImp.obj
 0002:00000544       ?pmField@?$CVarTypeInfo@E@ATL@@2QQtagVARIANT@@EQ3@ 10038544     BugSplatImp.obj
 0002:00000548       ?pmField@?$CVarTypeInfo@PAD@ATL@@2QQtagVARIANT@@PADQ3@ 10038548     BugSplatImp.obj
 0002:0000054c       _IID_IRegistrar            1003854c     BugSplatImp.obj
 0002:0000055c       ?pmField@?$CVarTypeInfo@PAE@ATL@@2QQtagVARIANT@@PAEQ3@ 1003855c     BugSplatImp.obj
 0002:00000560       ?pmField@?$CVarTypeInfo@F@ATL@@2QQtagVARIANT@@FQ3@ 10038560     BugSplatImp.obj
 0002:00000564       ?pmField@?$CVarTypeInfo@PAF@ATL@@2QQtagVARIANT@@PAFQ3@ 10038564     BugSplatImp.obj
 0002:00000568       ?pmField@?$CVarTypeInfo@G@ATL@@2QQtagVARIANT@@GQ3@ 10038568     BugSplatImp.obj
 0002:0000056c       ?pmField@?$CVarTypeInfo@H@ATL@@2QQtagVARIANT@@HQ3@ 1003856c     BugSplatImp.obj
 0002:00000570       ??_C@_00CNPNBAHC@?$AA@     10038570     BugSplatImp.obj
 0002:00000578       ??_7MiniDmpSender@@6B@     10038578     BugSplatImp.obj
 0002:0000057c       ??_C@_0DC@KABHKEOD@Crash?5Report?5creation?5failed?5wit@ 1003857c     BugSplatImp.obj
 0002:000005b0       ??_C@_05NAOIJFC@Error?$AA@ 100385b0     BugSplatImp.obj
 0002:000005b8       ??_C@_0M@IBNEFJCG@DBGHELP?4DLL?$AA@ 100385b8     BugSplatImp.obj
 0002:000005c4       ??_C@_0BC@MNIKNFKD@MiniDumpWriteDump?$AA@ 100385c4     BugSplatImp.obj
 0002:000005d8       ??_C@_08EEEDPKNJ@C?3?2temp?2?$AA@ 100385d8     BugSplatImp.obj
 0002:000005e4       ??_C@_04JMFINIFG@?4dmp?$AA@ 100385e4     BugSplatImp.obj
 0002:000005ec       ??_C@_0BJ@IJOKCEDO@Full?5Memory?5Dump?5Created?$AA@ 100385ec     BugSplatImp.obj
 0002:00000608       ??_C@_01JOAMLHOP@?9?$AA@   10038608     BugSplatImp.obj
 0002:00000610       ??_7GenericHTTPClient@@6B@ 10038610     GenericHTTPClientA.obj
 0002:00000614       ??_C@_03ENEOKCEM@?$CK?1?$CK?$AA@ 10038614     GenericHTTPClientA.obj
 0002:00000618       ??_C@_08JAFHAICJ@HTTP?11?40?$AA@ 10038618     GenericHTTPClientA.obj
 0002:00000624       ??_C@_03HAPOJHBM@GET?$AA@  10038624     GenericHTTPClientA.obj
 0002:00000628       ??_C@_0O@GHCMGJMD@Accept?3?5?$CK?1?$CK?$AN?6?$AA@ 10038628     GenericHTTPClientA.obj
 0002:00000638       ??_C@_0DC@DMFLICKC@Content?9Type?3?5application?1x?9www?9@ 10038638     GenericHTTPClientA.obj
 0002:0000066c       ??_C@_04HCJEIHPL@POST?$AA@ 1003866c     GenericHTTPClientA.obj
 0002:00000678       ??_C@_0EP@HIHGPBED@Content?9Type?3?5multipart?1form?9dat@ 10038678     GenericHTTPClientA.obj
 0002:000006c8       ??_C@_0CB@PEKJONPF@?9?9MULTI?9PARTS?9FORM?9DATA?9BOUNDARY@ 100386c8     GenericHTTPClientA.obj
 0002:000006ec       ??_C@_0BF@HLGLDBCH@Content?9Length?3?5?$CFd?$AN?6?$AA@ 100386ec     GenericHTTPClientA.obj
 0002:00000704       ??_C@_0BJ@CPALELCJ@Content?9Type?3?5text?1xml?$AN?6?$AA@ 10038704     GenericHTTPClientA.obj
 0002:00000720       ??_C@_0CH@HBCFOBGK@?$DM?$DPxml?5version?$DN?81?40?8?5encoding?$DN?8ut@ 10038720     GenericHTTPClientA.obj
 0002:00000748       ??_C@_0EE@ECCNAHPD@?$DMsoap?3Envelope?5xmlns?3si?$DN?$CChttp?3?1?1@ 10038748     GenericHTTPClientA.obj
 0002:0000078c       ??_C@_0CO@IGCIPGCH@?5xmlns?3xsd?$DN?$CChttp?3?1?1www?4w3?4org?120@ 1003878c     GenericHTTPClientA.obj
 0002:000007bc       ??_C@_0DJ@ECACOBKN@?5xmlns?3soap?$DN?$CChttp?3?1?1schemas?4xmls@ 100387bc     GenericHTTPClientA.obj
 0002:000007f8       ??_C@_0M@MOCNLEHM@?$DMsoap?3Body?$DO?$AA@ 100387f8     GenericHTTPClientA.obj
 0002:00000804       ??_C@_0N@FMMJFPEJ@?$DM?1soap?3Body?$DO?$AA@ 10038804     GenericHTTPClientA.obj
 0002:00000814       ??_C@_0BB@KMJMDLHO@?$DM?1soap?3Envelope?$DO?$AA@ 10038814     GenericHTTPClientA.obj
 0002:00000828       ??_C@_02DPKJAMEF@?$CFd?$AA@ 10038828     GenericHTTPClientA.obj
 0002:0000082c       ??_C@_01NEMOKFLO@?$DN?$AA@ 1003882c     GenericHTTPClientA.obj
 0002:00000830       ??_C@_01HNPIGOCE@?$CG?$AA@ 10038830     GenericHTTPClientA.obj
 0002:00000834       ??_C@_0DI@IFGMLIJK@?9?9?$CFs?$AN?6Content?9Disposition?3?5form?9@ 10038834     GenericHTTPClientA.obj
 0002:00000870       ??_C@_0FF@FHPDNCNA@?9?9?$CFs?$AN?6Content?9Disposition?3?5form?9@ 10038870     GenericHTTPClientA.obj
 0002:000008c8       ??_C@_02PCIJFNDE@?$AN?6?$AA@ 100388c8     GenericHTTPClientA.obj
 0002:000008cc       ??_C@_02BAABKJLB@?9?9?$AA@ 100388cc     GenericHTTPClientA.obj
 0002:000008d0       ??_C@_04KAODOPGN@?9?9?$AN?6?$AA@ 100388d0     GenericHTTPClientA.obj
 0002:000008d8       ??_C@_01LFCBOECM@?4?$AA@   100388d8     GenericHTTPClientA.obj
 0002:000008dc       ??_C@_0N@MMLNJHO@Content?5Type?$AA@ 100388dc     GenericHTTPClientA.obj
 0002:000008ec       ??_C@_0BJ@JDCJMJCJ@application?1octet?9stream?$AA@ 100388ec     GenericHTTPClientA.obj
 0002:00000908       ??_C@_01JLIPDDHJ@?3?$AA@   10038908     GenericHTTPClientA.obj
 0002:0000090c       ??_C@_01KMDKNFGN@?1?$AA@   1003890c     GenericHTTPClientA.obj
 0002:00000910       ??_C@_04IAFLKNP@http?$AA@  10038910     GenericHTTPClientA.obj
 0002:00000918       ??_C@_05BCHGOAMK@https?$AA@ 10038918     GenericHTTPClientA.obj
 0002:00000920       ??_C@_0BD@OLBABOEK@vector?$DMT?$DO?5too?5long?$AA@ 10038920     GenericHTTPClientA.obj
 0002:00000934       ??_C@_0N@MDJJJHMB@kernel32?4dll?$AA@ 10038934     mdump.obj
 0002:00000948       ??_C@_0FE@LKCCDJCD@Floating?5point?5?$CI?$CF?$CFe?0?5?$CF?$CFf?0?5?$CF?$CFg?0?5a@ 10038948     mdump.obj
 0002:0000099c       ??_C@_04LOAJBDKD@true?$AA@ 1003899c     mdump.obj
 0002:000009a8       ??_7error_category@std@@6B@ 100389a8     mdump.obj
 0002:000009c4       ??_7_Generic_error_category@std@@6B@ 100389c4     mdump.obj
 0002:000009dc       ??_C@_07DCLBNMLN@generic?$AA@ 100389dc     mdump.obj
 0002:000009e4       ??_C@_0O@BFJCFAAK@unknown?5error?$AA@ 100389e4     mdump.obj
 0002:000009f8       ??_7_Iostream_error_category@std@@6B@ 100389f8     mdump.obj
 0002:00000a10       ??_C@_08LLGCOLLL@iostream?$AA@ 10038a10     mdump.obj
 0002:00000a1c       ??_C@_0BG@PADBLCHM@iostream?5stream?5error?$AA@ 10038a1c     mdump.obj
 0002:00000a38       ??_7_System_error_category@std@@6B@ 10038a38     mdump.obj
 0002:00000a50       ??_C@_06FHFOAHML@system?$AA@ 10038a50     mdump.obj
 0002:00000a58       ??_C@_0M@CDLDMNCK@TotalUptime?$AA@ 10038a58     mdump.obj
 0002:00000a64       ??_C@_0L@DPKFPHGG@CrashCount?$AA@ 10038a64     mdump.obj
 0002:00000a74       ??_7MiniDumper@@6B@        10038a74     mdump.obj
 0002:00000a78       ??_C@_0BC@LGPAMIPH@?$CFY?9?$CFm?9?$CFd?5?$CFH?3?$CFM?3?$CFS?$AA@ 10038a78     mdump.obj
 0002:00000a8c       ??_C@_0BH@CCJILGIM@?$AN?6BugSplat?4dll?3?5?$CFs?5?5?$CFs?$AA@ 10038a8c     mdump.obj
 0002:00000aa4       ??_C@_0CM@JCEECKKC@?$AN?6BugSplat?4dll?3?5?5?5?5?5?5?5?5?5?5?5?5?5?5?5?5?5@ 10038aa4     mdump.obj
 0002:00000ad0       ??_C@_0N@OKPPELKI@bugsplat?4log?$AA@ 10038ad0     mdump.obj
 0002:00000ae0       ??_C@_02DPNLHKJD@a?$CL?$AA@ 10038ae0     mdump.obj
 0002:00000ae4       ??_C@_0BB@CPJPHBFM@?$AN?6BugSplat?4dll?3?5?$AA@ 10038ae4     mdump.obj
 0002:00000af8       ??_C@_02KNHHEEKP@?5?5?$AA@ 10038af8     mdump.obj
 0002:00000afc       ??_C@_0CK@OGJFJGHO@?$AN?6BugSplat?4dll?3?5?5?5?5?5?5?5?5?5?5?5?5?5?5?5?5?5@ 10038afc     mdump.obj
 0002:00000b28       ??_C@_0BC@PJHNKOIA@Software?2BugSplat?$AA@ 10038b28     mdump.obj
 0002:00000b3c       ??_C@_0BL@JJAIKIOP@Software?2BugSplat?2?$CFs?2?$CFs?2?$CFs?$AA@ 10038b3c     mdump.obj
 0002:00000b58       ??_C@_05GCIPIGEI@Debug?$AA@ 10038b58     mdump.obj
 0002:00000b60       ??_C@_04GANFGKHE@Fred?$AA@ 10038b60     mdump.obj
 0002:00000b68       ??_C@_08PGPEJNNO@FredsApp?$AA@ 10038b68     mdump.obj
 0002:00000b74       ??_C@_03HLLJOCDO@1?40?$AA@ 10038b74     mdump.obj
 0002:00000b78       ??_C@_0BB@IECFBGFJ@WaitCreateReport?$AA@ 10038b78     mdump.obj
 0002:00000b8c       ??_C@_0P@POBMPCBF@WaitSendReport?$AA@ 10038b8c     mdump.obj
 0002:00000b9c       ??_C@_0BM@EBDAABIF@SetUnhandledExceptionFilter?$AA@ 10038b9c     mdump.obj
 0002:00000bc0       ??_C@_0P@DCBJGBBC@BugSplatRc?4dll?$AA@ 10038bc0     mdump.obj
 0002:00000bd0       ??_C@_0CC@HHLPOJDC@BugSplatRC?5resource?5DLL?5not?5foun@ 10038bd0     mdump.obj
 0002:00000bf4       ??_C@_09CCINFMOF@Not?5found?$AA@ 10038bf4     mdump.obj
 0002:00000c00       ??_C@_0N@KMKMKMO@BsSndRpt?4exe?$AA@ 10038c00     mdump.obj
 0002:00000c10       ??_C@_0N@PEACOFLI@BsSndRpt?4ini?$AA@ 10038c10     mdump.obj
 0002:00000c20       ??_C@_04KDJNAIHO@?1i?5?$CC?$AA@ 10038c20     mdump.obj
 0002:00000c28       ??_C@_02KOPDJAMB@?$CC?5?$AA@ 10038c28     mdump.obj
 0002:00000c2c       ??_C@_06LGGLFMPE@Vendor?$AA@ 10038c2c     mdump.obj
 0002:00000c34       ??_C@_08EDENOCIH@BugSplat?$AA@ 10038c34     mdump.obj
 0002:00000c40       ??_C@_0M@NJALGCHB@Application?$AA@ 10038c40     mdump.obj
 0002:00000c4c       ??_C@_07NGFJPNPN@Version?$AA@ 10038c4c     mdump.obj
 0002:00000c54       ??_C@_08JDFPFCBJ@MiniDump?$AA@ 10038c54     mdump.obj
 0002:00000c60       ??_C@_03CKLACPDF@MFA?$AA@  10038c60     mdump.obj
 0002:00000c64       ??_C@_0M@OHKMKKDH@Description?$AA@ 10038c64     mdump.obj
 0002:00000c70       ??_C@_04ODLBFFJE@User?$AA@ 10038c70     mdump.obj
 0002:00000c78       ??_C@_05HNNODCBN@Email?$AA@ 10038c78     mdump.obj
 0002:00000c80       ??_C@_0M@DKBGJBGO@UserZipPath?$AA@ 10038c80     mdump.obj
 0002:00000c8c       ??_C@_04OEDFLLKD@?$CC?$CFs?$CC?$AA@ 10038c8c     mdump.obj
 0002:00000c94       ??_C@_06FJKDBAFM@DotNet?$AA@ 10038c94     mdump.obj
 0002:00000c9c       ??_C@_0BB@IDKMKOLN@AdditionalFile?$CFd?$AA@ 10038c9c     mdump.obj
 0002:00000cb0       ??_C@_03HLLMMGLH@?5?1q?$AA@ 10038cb0     mdump.obj
 0002:00000cb4       ??_C@_04IGNLNPNJ@?5?1dl?$AA@ 10038cb4     mdump.obj
 0002:00000cbc       ??_C@_04BEDMDBG@?5?1dc?$AA@ 10038cbc     mdump.obj
 0002:00000cc4       ??_C@_07BABKFBIN@?$CC?$CFs?$CC?5?$CFs?$AA@ 10038cc4     mdump.obj
 0002:00000ccc       ??_C@_0M@PCENNPGA@?$CFd?4?$CFd?4?$CFd?4?$CFd?$AA@ 10038ccc     mdump.obj
 0002:00000cd8       ??_C@_0CN@EGGPCBJ@www?4bugsplatsoftware?4com?1ws?1Upgr@ 10038cd8     mdump.obj
 0002:00000d08       ??_C@_0DG@KCIDCFBK@?$DMneedDbgHelpUpgrade?5xmlns?$DN?$CCurn?3B@ 10038d08     mdump.obj
 0002:00000d40       ??_C@_0N@GKPBDEKH@?$DMdbgHelpVer?$DO?$AA@ 10038d40     mdump.obj
 0002:00000d50       ??_C@_0CD@NEJPFDJN@?$DM?1dbgHelpVer?$DO?$DM?1needDbgHelpUpgrad@ 10038d50     mdump.obj
 0002:00000d74       ??_C@_0P@HMKFLPNC@MERONG?$CI0?49?1?$DLp?$CJ?$AA@ 10038d74     mdump.obj
 0002:00000d84       ??_C@_07JHMJNFPJ@?$DMreturn?$AA@ 10038d84     mdump.obj
 0002:00000d8c       ??_C@_01PPODPGHN@?$DO?$AA@ 10038d8c     mdump.obj
 0002:00000d90       ??_C@_09GHDCPIMK@?$DM?1return?$DO?$AA@ 10038d90     mdump.obj
 0002:00000d9c       ??_C@_08PPHBLFBB@?$CFs?$CB?$CF08lx?$AA@ 10038d9c     mdump.obj
 0002:00000da8       ??_C@_02DKCKIIND@?$CFs?$AA@ 10038da8     mdump.obj
 0002:00000dac       ??_C@_0CO@PGPMGDN@BugSplatHD?4exe?5?1p?5?$CFld?5?1c?5?$CC?$CFs?$CC?5?1a@ 10038dac     mdump.obj
 0002:00000ddc       ??_C@_05CBLLIDCL@?5?1d?5?$CC?$AA@ 10038ddc     mdump.obj
 0002:00000de4       ??_C@_01BJJEKLCA@?$CC?$AA@ 10038de4     mdump.obj
 0002:00000de8       ??_C@_0BA@JFNIOLAK@string?5too?5long?$AA@ 10038de8     mdump.obj
 0002:00000df8       ??_C@_0BI@CFPLBAOH@invalid?5string?5position?$AA@ 10038df8     mdump.obj
 0002:00000e10       ??_C@_0N@DOHINHCI@Advapi32?4dll?$AA@ 10038e10     sbSenderApp.obj
 0002:00000e20       ??_C@_0BG@FGMNHMFJ@RegOpenKeyTransactedA?$AA@ 10038e20     sbSenderApp.obj
 0002:00000e38       ??_C@_0BI@NBLNJKIN@RegCreateKeyTransactedA?$AA@ 10038e38     sbSenderApp.obj
 0002:00000e50       ??_C@_0BI@GMDDFLLI@RegDeleteKeyTransactedA?$AA@ 10038e50     sbSenderApp.obj
 0002:00000e68       __GUID_00000146_0000_0000_c000_000000000046 10038e68     sbSenderApp.obj
 0002:00000e7c       ??_7CComModule@ATL@@6B@    10038e7c     sbSenderApp.obj
 0002:00000ea4       ??_C@_0BA@KECIECLD@RegDeleteKeyExA?$AA@ 10038ea4     sbSenderApp.obj
 0002:00000eb8       ??_7CRegObject@ATL@@6B@    10038eb8     sbSenderApp.obj
 0002:00000ed0       ?map@?1??HKeyFromString@CRegParser@ATL@@KAPAUHKEY__@@PAD@Z@4QBUkeymap@?1??123@KAPAU4@0@Z@B 10038ed0     sbSenderApp.obj
 0002:00000f40       ??_C@_04OHBKMIBJ@HKCR?$AA@ 10038f40     sbSenderApp.obj
 0002:00000f48       ??_C@_04KIFLFONO@HKCU?$AA@ 10038f48     sbSenderApp.obj
 0002:00000f50       ??_C@_04CBBMIBLK@HKLM?$AA@ 10038f50     sbSenderApp.obj
 0002:00000f58       ??_C@_03DLBIJLAB@HKU?$AA@  10038f58     sbSenderApp.obj
 0002:00000f5c       ??_C@_04OFOCGAOH@HKPD?$AA@ 10038f5c     sbSenderApp.obj
 0002:00000f64       ??_C@_04POMNGLEL@HKDD?$AA@ 10038f64     sbSenderApp.obj
 0002:00000f6c       ??_C@_04LEMDOLAJ@HKCC?$AA@ 10038f6c     sbSenderApp.obj
 0002:00000f74       ??_C@_0BC@JBJOLKMF@HKEY_CLASSES_ROOT?$AA@ 10038f74     sbSenderApp.obj
 0002:00000f88       ??_C@_0BC@GMMMKLBI@HKEY_CURRENT_USER?$AA@ 10038f88     sbSenderApp.obj
 0002:00000f9c       ??_C@_0BD@GIIFIKDM@HKEY_LOCAL_MACHINE?$AA@ 10038f9c     sbSenderApp.obj
 0002:00000fb0       ??_C@_0L@OEMMANAM@HKEY_USERS?$AA@ 10038fb0     sbSenderApp.obj
 0002:00000fbc       ??_C@_0BG@IDBEHNDO@HKEY_PERFORMANCE_DATA?$AA@ 10038fbc     sbSenderApp.obj
 0002:00000fd4       ??_C@_0O@MJDLIIGK@HKEY_DYN_DATA?$AA@ 10038fd4     sbSenderApp.obj
 0002:00000fe4       ??_C@_0BE@NLNNHLLF@HKEY_CURRENT_CONFIG?$AA@ 10038fe4     sbSenderApp.obj
 0002:00000ff8       ??_C@_1EA@NHKLICFA@?$AAH?$AAK?$AAC?$AAU?$AA?$AN?$AA?6?$AA?$HL?$AA?7?$AAS?$AAo?$AAf?$AAt?$AAw?$AAa?$AAr?$AAe?$AA?$AN?$AA?6?$AA?7?$AA?$HL?$AA?$AN?$AA?6?$AA?7?$AA?7?$AAC?$AAl?$AAa?$AAs?$AAs?$AAe?$AAs?$AA?$AA@ 10038ff8     sbSenderApp.obj
 0002:00001038       ??_C@_1BE@LJOLIMEM@?$AA?$AN?$AA?6?$AA?7?$AA?$HN?$AA?$AN?$AA?6?$AA?$HN?$AA?$AN?$AA?6?$AA?$AA@ 10039038     sbSenderApp.obj
 0002:0000104c       ??_C@_1O@MNLDABAF@?$AAM?$AAo?$AAd?$AAu?$AAl?$AAe?$AA?$AA@ 1003904c     sbSenderApp.obj
 0002:0000105c       ??_C@_1BG@JBACFMF@?$AAM?$AAo?$AAd?$AAu?$AAl?$AAe?$AA_?$AAR?$AAa?$AAw?$AA?$AA@ 1003905c     sbSenderApp.obj
 0002:00001074       ??_C@_1BC@KAILKFFG@?$AAR?$AAE?$AAG?$AAI?$AAS?$AAT?$AAR?$AAY?$AA?$AA@ 10039074     sbSenderApp.obj
 0002:0000108c       ??_7CAppModule@WTL@@6B@    1003908c     sbSenderApp.obj
 0002:000010b4       ??_C@_1M@PPPPCDEP@?$AAA?$AAP?$AAP?$AAI?$AAD?$AA?$AA@ 100390b4     sbSenderApp.obj
 0002:000010c0       ??_C@_11LOCGONAA@?$AA?$AA@ 100390c0     sbSenderApp.obj
 0002:000010c4       _GUID_NULL                 100390c4     uuid:cguid_i.obj
 0002:000010d4       _CATID_MARSHALER           100390d4     uuid:cguid_i.obj
 0002:000010e4       _IID_IRpcChannel           100390e4     uuid:cguid_i.obj
 0002:000010f4       _IID_IRpcStub              100390f4     uuid:cguid_i.obj
 0002:00001104       _IID_IStubManager          10039104     uuid:cguid_i.obj
 0002:00001114       _IID_IRpcProxy             10039114     uuid:cguid_i.obj
 0002:00001124       _IID_IProxyManager         10039124     uuid:cguid_i.obj
 0002:00001134       _IID_IPSFactory            10039134     uuid:cguid_i.obj
 0002:00001144       _IID_IInternalMoniker      10039144     uuid:cguid_i.obj
 0002:00001154       _IID_IDfReserved1          10039154     uuid:cguid_i.obj
 0002:00001164       _IID_IDfReserved2          10039164     uuid:cguid_i.obj
 0002:00001174       _IID_IDfReserved3          10039174     uuid:cguid_i.obj
 0002:00001184       _CLSID_StdMarshal          10039184     uuid:cguid_i.obj
 0002:00001194       _IID_IStub                 10039194     uuid:cguid_i.obj
 0002:000011a4       _IID_IProxy                100391a4     uuid:cguid_i.obj
 0002:000011b4       _IID_IEnumGeneric          100391b4     uuid:cguid_i.obj
 0002:000011c4       _IID_IEnumHolder           100391c4     uuid:cguid_i.obj
 0002:000011d4       _IID_IEnumCallback         100391d4     uuid:cguid_i.obj
 0002:000011e4       _IID_IOleManager           100391e4     uuid:cguid_i.obj
 0002:000011f4       _IID_IOlePresObj           100391f4     uuid:cguid_i.obj
 0002:00001204       _IID_IDebug                10039204     uuid:cguid_i.obj
 0002:00001214       _IID_IDebugStream          10039214     uuid:cguid_i.obj
 0002:00001224       _CLSID_PSGenObject         10039224     uuid:cguid_i.obj
 0002:00001234       _CLSID_PSClientSite        10039234     uuid:cguid_i.obj
 0002:00001244       _CLSID_PSClassObject       10039244     uuid:cguid_i.obj
 0002:00001254       _CLSID_PSInPlaceActive     10039254     uuid:cguid_i.obj
 0002:00001264       _CLSID_PSInPlaceFrame      10039264     uuid:cguid_i.obj
 0002:00001274       _CLSID_PSDragDrop          10039274     uuid:cguid_i.obj
 0002:00001284       _CLSID_PSBindCtx           10039284     uuid:cguid_i.obj
 0002:00001294       _CLSID_PSEnumerators       10039294     uuid:cguid_i.obj
 0002:000012a4       _CLSID_StaticMetafile      100392a4     uuid:cguid_i.obj
 0002:000012b4       _CLSID_StaticDib           100392b4     uuid:cguid_i.obj
 0002:000012c4       _CLSID_Picture_Metafile    100392c4     uuid:cguid_i.obj
 0002:000012d4       _CLSID_Picture_EnhMetafile 100392d4     uuid:cguid_i.obj
 0002:000012e4       _CLSID_Picture_Dib         100392e4     uuid:cguid_i.obj
 0002:000012f4       _CLSID_DCOMAccessControl   100392f4     uuid:cguid_i.obj
 0002:00001304       _CLSID_StdGlobalInterfaceTable 10039304     uuid:cguid_i.obj
 0002:00001314       _CLSID_ManualResetEvent    10039314     uuid:cguid_i.obj
 0002:00001324       _CLSID_StdEvent            10039324     uuid:cguid_i.obj
 0002:00001334       _CLSID_SynchronizeContainer 10039334     uuid:cguid_i.obj
 0002:00001344       _CLSID_ComBinding          10039344     uuid:cguid_i.obj
 0002:00001354       _CLSID_StdAsyncActManager  10039354     uuid:cguid_i.obj
 0002:00001364       _CLSID_InProcFreeMarshaler 10039364     uuid:cguid_i.obj
 0002:00001374       _CLSID_RemoteUnknownPSFactory 10039374     uuid:cguid_i.obj
 0002:00001384       _IID_IRichEditOle          10039384     uuid:cguid_i.obj
 0002:00001394       _IID_IRichEditOleCallback  10039394     uuid:cguid_i.obj
 0002:000013a4       _CLSID_AllClasses          100393a4     uuid:cguid_i.obj
 0002:000013b4       _CLSID_LocalMachineClasses 100393b4     uuid:cguid_i.obj
 0002:000013c4       _CLSID_CurrentUserClasses  100393c4     uuid:cguid_i.obj
 0002:000013d4       _CLSID_AddrControl         100393d4     uuid:cguid_i.obj
 0002:000013e4       _CLSID_GlobalOptions       100393e4     uuid:cguid_i.obj
 0002:000013f4       _CLSID_SurrogateManager    100393f4     uuid:cguid_i.obj
 0002:00001404       _CLSID_ContextSwitcher     10039404     uuid:cguid_i.obj
 0002:00001414       _IID_IPropertyFrame        10039414     uuid:cguid_i.obj
 0002:00001424       _CLSID_CFontPropPage       10039424     uuid:cguid_i.obj
 0002:00001434       _CLSID_CColorPropPage      10039434     uuid:cguid_i.obj
 0002:00001444       _CLSID_CPicturePropPage    10039444     uuid:cguid_i.obj
 0002:00001454       _CLSID_StockFontPage       10039454     uuid:cguid_i.obj
 0002:00001464       _CLSID_StockColorPage      10039464     uuid:cguid_i.obj
 0002:00001474       _CLSID_StockPicturePage    10039474     uuid:cguid_i.obj
 0002:00001484       _CLSID_PersistPropset      10039484     uuid:cguid_i.obj
 0002:00001494       _CLSID_ConvertVBX          10039494     uuid:cguid_i.obj
 0002:000014a4       _CLSID_StdFont             100394a4     uuid:cguid_i.obj
 0002:000014b4       _CLSID_StdPicture          100394b4     uuid:cguid_i.obj
 0002:000014c4       _GUID_HIMETRIC             100394c4     uuid:cguid_i.obj
 0002:000014d4       _GUID_COLOR                100394d4     uuid:cguid_i.obj
 0002:000014e4       _GUID_XPOSPIXEL            100394e4     uuid:cguid_i.obj
 0002:000014f4       _GUID_YPOSPIXEL            100394f4     uuid:cguid_i.obj
 0002:00001504       _GUID_XSIZEPIXEL           10039504     uuid:cguid_i.obj
 0002:00001514       _GUID_YSIZEPIXEL           10039514     uuid:cguid_i.obj
 0002:00001524       _GUID_XPOS                 10039524     uuid:cguid_i.obj
 0002:00001534       _GUID_YPOS                 10039534     uuid:cguid_i.obj
 0002:00001544       _GUID_XSIZE                10039544     uuid:cguid_i.obj
 0002:00001554       _GUID_YSIZE                10039554     uuid:cguid_i.obj
 0002:00001564       _GUID_TRISTATE             10039564     uuid:cguid_i.obj
 0002:00001574       _GUID_OPTIONVALUEEXCLUSIVE 10039574     uuid:cguid_i.obj
 0002:00001584       _GUID_CHECKVALUEEXCLUSIVE  10039584     uuid:cguid_i.obj
 0002:00001594       _GUID_FONTNAME             10039594     uuid:cguid_i.obj
 0002:000015a4       _GUID_FONTSIZE             100395a4     uuid:cguid_i.obj
 0002:000015b4       _GUID_FONTBOLD             100395b4     uuid:cguid_i.obj
 0002:000015c4       _GUID_FONTITALIC           100395c4     uuid:cguid_i.obj
 0002:000015d4       _GUID_FONTUNDERSCORE       100395d4     uuid:cguid_i.obj
 0002:000015e4       _GUID_FONTSTRIKETHROUGH    100395e4     uuid:cguid_i.obj
 0002:000015f4       _GUID_HANDLE               100395f4     uuid:cguid_i.obj
 0002:00001604       _IID_StdOle                10039604     uuid:cguid_i.obj
 0002:00001614       _IID_ICursor               10039614     uuid:cguid_i.obj
 0002:00001624       _IID_ICursorMove           10039624     uuid:cguid_i.obj
 0002:00001634       _IID_ICursorScroll         10039634     uuid:cguid_i.obj
 0002:00001644       _IID_ICursorUpdateARow     10039644     uuid:cguid_i.obj
 0002:00001654       _IID_INotifyDBEvents       10039654     uuid:cguid_i.obj
 0002:00001664       _IID_ICursorFind           10039664     uuid:cguid_i.obj
 0002:00001674       _IID_IEntryID              10039674     uuid:cguid_i.obj
 0002:00001684       __GUID_NAMEONLY            10039684     uuid:cguid_i.obj
 0002:00001694       __DBBMKGUID                10039694     uuid:cguid_i.obj
 0002:000016a4       __DBCIDGUID                100396a4     uuid:cguid_i.obj
 0002:000016b4       _IID_IBoundObject          100396b4     uuid:cguid_i.obj
 0002:000016c4       _IID_IBoundObjectSite      100396c4     uuid:cguid_i.obj
 0002:000016d4       _CLSID_GblComponentCategoriesMgr 100396d4     uuid:cguid_i.obj
 0002:000016e4       _CLSID_ThumbnailFCNHandler 100396e4     uuid:cguid_i.obj
 0002:000016f4       _CLSID_ThumbnailUpdater    100396f4     uuid:cguid_i.obj
 0002:00001704       _GUID_DEVCLASS_1394        10039704     uuid:cguid_i.obj
 0002:00001714       _GUID_DEVCLASS_1394DEBUG   10039714     uuid:cguid_i.obj
 0002:00001724       _GUID_DEVCLASS_61883       10039724     uuid:cguid_i.obj
 0002:00001734       _GUID_DEVCLASS_ADAPTER     10039734     uuid:cguid_i.obj
 0002:00001744       _GUID_DEVCLASS_APMSUPPORT  10039744     uuid:cguid_i.obj
 0002:00001754       _GUID_DEVCLASS_AVC         10039754     uuid:cguid_i.obj
 0002:00001764       _GUID_DEVCLASS_BATTERY     10039764     uuid:cguid_i.obj
 0002:00001774       _GUID_DEVCLASS_BIOMETRIC   10039774     uuid:cguid_i.obj
 0002:00001784       _GUID_DEVCLASS_BLUETOOTH   10039784     uuid:cguid_i.obj
 0002:00001794       _GUID_DEVCLASS_CDROM       10039794     uuid:cguid_i.obj
 0002:000017a4       _GUID_DEVCLASS_COMPUTER    100397a4     uuid:cguid_i.obj
 0002:000017b4       _GUID_DEVCLASS_DECODER     100397b4     uuid:cguid_i.obj
 0002:000017c4       _GUID_DEVCLASS_DISKDRIVE   100397c4     uuid:cguid_i.obj
 0002:000017d4       _GUID_DEVCLASS_DISPLAY     100397d4     uuid:cguid_i.obj
 0002:000017e4       _GUID_DEVCLASS_DOT4        100397e4     uuid:cguid_i.obj
 0002:000017f4       _GUID_DEVCLASS_DOT4PRINT   100397f4     uuid:cguid_i.obj
 0002:00001804       _GUID_DEVCLASS_ENUM1394    10039804     uuid:cguid_i.obj
 0002:00001814       _GUID_DEVCLASS_FDC         10039814     uuid:cguid_i.obj
 0002:00001824       _GUID_DEVCLASS_FLOPPYDISK  10039824     uuid:cguid_i.obj
 0002:00001834       _GUID_DEVCLASS_GPS         10039834     uuid:cguid_i.obj
 0002:00001844       _GUID_DEVCLASS_HDC         10039844     uuid:cguid_i.obj
 0002:00001854       _GUID_DEVCLASS_HIDCLASS    10039854     uuid:cguid_i.obj
 0002:00001864       _GUID_DEVCLASS_IMAGE       10039864     uuid:cguid_i.obj
 0002:00001874       _GUID_DEVCLASS_INFINIBAND  10039874     uuid:cguid_i.obj
 0002:00001884       _GUID_DEVCLASS_INFRARED    10039884     uuid:cguid_i.obj
 0002:00001894       _GUID_DEVCLASS_KEYBOARD    10039894     uuid:cguid_i.obj
 0002:000018a4       _GUID_DEVCLASS_LEGACYDRIVER 100398a4     uuid:cguid_i.obj
 0002:000018b4       _GUID_DEVCLASS_MEDIA       100398b4     uuid:cguid_i.obj
 0002:000018c4       _GUID_DEVCLASS_MEDIUM_CHANGER 100398c4     uuid:cguid_i.obj
 0002:000018d4       _GUID_DEVCLASS_MODEM       100398d4     uuid:cguid_i.obj
 0002:000018e4       _GUID_DEVCLASS_MONITOR     100398e4     uuid:cguid_i.obj
 0002:000018f4       _GUID_DEVCLASS_MOUSE       100398f4     uuid:cguid_i.obj
 0002:00001904       _GUID_DEVCLASS_MTD         10039904     uuid:cguid_i.obj
 0002:00001914       _GUID_DEVCLASS_MULTIFUNCTION 10039914     uuid:cguid_i.obj
 0002:00001924       _GUID_DEVCLASS_MULTIPORTSERIAL 10039924     uuid:cguid_i.obj
 0002:00001934       _GUID_DEVCLASS_NET         10039934     uuid:cguid_i.obj
 0002:00001944       _GUID_DEVCLASS_NETCLIENT   10039944     uuid:cguid_i.obj
 0002:00001954       _GUID_DEVCLASS_NETSERVICE  10039954     uuid:cguid_i.obj
 0002:00001964       _GUID_DEVCLASS_NETTRANS    10039964     uuid:cguid_i.obj
 0002:00001974       _GUID_DEVCLASS_NODRIVER    10039974     uuid:cguid_i.obj
 0002:00001984       _GUID_DEVCLASS_PCMCIA      10039984     uuid:cguid_i.obj
 0002:00001994       _GUID_DEVCLASS_PNPPRINTERS 10039994     uuid:cguid_i.obj
 0002:000019a4       _GUID_DEVCLASS_PORTS       100399a4     uuid:cguid_i.obj
 0002:000019b4       _GUID_DEVCLASS_PRINTER     100399b4     uuid:cguid_i.obj
 0002:000019c4       _GUID_DEVCLASS_PRINTERUPGRADE 100399c4     uuid:cguid_i.obj
 0002:000019d4       _GUID_DEVCLASS_PROCESSOR   100399d4     uuid:cguid_i.obj
 0002:000019e4       _GUID_DEVCLASS_SBP2        100399e4     uuid:cguid_i.obj
 0002:000019f4       _GUID_DEVCLASS_SCSIADAPTER 100399f4     uuid:cguid_i.obj
 0002:00001a04       _GUID_DEVCLASS_SECURITYACCELERATOR 10039a04     uuid:cguid_i.obj
 0002:00001a14       _GUID_DEVCLASS_SENSOR      10039a14     uuid:cguid_i.obj
 0002:00001a24       _GUID_DEVCLASS_SIDESHOW    10039a24     uuid:cguid_i.obj
 0002:00001a34       _GUID_DEVCLASS_SMARTCARDREADER 10039a34     uuid:cguid_i.obj
 0002:00001a44       _GUID_DEVCLASS_SOUND       10039a44     uuid:cguid_i.obj
 0002:00001a54       _GUID_DEVCLASS_SYSTEM      10039a54     uuid:cguid_i.obj
 0002:00001a64       _GUID_DEVCLASS_TAPEDRIVE   10039a64     uuid:cguid_i.obj
 0002:00001a74       _GUID_DEVCLASS_UNKNOWN     10039a74     uuid:cguid_i.obj
 0002:00001a84       _GUID_DEVCLASS_USB         10039a84     uuid:cguid_i.obj
 0002:00001a94       _GUID_DEVCLASS_VOLUME      10039a94     uuid:cguid_i.obj
 0002:00001aa4       _GUID_DEVCLASS_VOLUMESNAPSHOT 10039aa4     uuid:cguid_i.obj
 0002:00001ab4       _GUID_DEVCLASS_WCEUSBS     10039ab4     uuid:cguid_i.obj
 0002:00001ac4       _GUID_DEVCLASS_WPD         10039ac4     uuid:cguid_i.obj
 0002:00001ad4       _GUID_DEVCLASS_FSFILTER_ACTIVITYMONITOR 10039ad4     uuid:cguid_i.obj
 0002:00001ae4       _GUID_DEVCLASS_FSFILTER_UNDELETE 10039ae4     uuid:cguid_i.obj
 0002:00001af4       _GUID_DEVCLASS_FSFILTER_ANTIVIRUS 10039af4     uuid:cguid_i.obj
 0002:00001b04       _GUID_DEVCLASS_FSFILTER_REPLICATION 10039b04     uuid:cguid_i.obj
 0002:00001b14       _GUID_DEVCLASS_FSFILTER_CONTINUOUSBACKUP 10039b14     uuid:cguid_i.obj
 0002:00001b24       _GUID_DEVCLASS_FSFILTER_CONTENTSCREENER 10039b24     uuid:cguid_i.obj
 0002:00001b34       _GUID_DEVCLASS_FSFILTER_QUOTAMANAGEMENT 10039b34     uuid:cguid_i.obj
 0002:00001b44       _GUID_DEVCLASS_FSFILTER_SYSTEMRECOVERY 10039b44     uuid:cguid_i.obj
 0002:00001b54       _GUID_DEVCLASS_FSFILTER_CFSMETADATASERVER 10039b54     uuid:cguid_i.obj
 0002:00001b64       _GUID_DEVCLASS_FSFILTER_HSM 10039b64     uuid:cguid_i.obj
 0002:00001b74       _GUID_DEVCLASS_FSFILTER_COMPRESSION 10039b74     uuid:cguid_i.obj
 0002:00001b84       _GUID_DEVCLASS_FSFILTER_ENCRYPTION 10039b84     uuid:cguid_i.obj
 0002:00001b94       _GUID_DEVCLASS_FSFILTER_PHYSICALQUOTAMANAGEMENT 10039b94     uuid:cguid_i.obj
 0002:00001ba4       _GUID_DEVCLASS_FSFILTER_OPENFILEBACKUP 10039ba4     uuid:cguid_i.obj
 0002:00001bb4       _GUID_DEVCLASS_FSFILTER_SECURITYENHANCER 10039bb4     uuid:cguid_i.obj
 0002:00001bc4       _GUID_DEVCLASS_FSFILTER_COPYPROTECTION 10039bc4     uuid:cguid_i.obj
 0002:00001bd4       _GUID_DEVCLASS_FSFILTER_SYSTEM 10039bd4     uuid:cguid_i.obj
 0002:00001be4       _GUID_DEVCLASS_FSFILTER_INFRASTRUCTURE 10039be4     uuid:cguid_i.obj
 0002:00001bf4       _GUID_DEVINTERFACE_DISK    10039bf4     uuid:cguid_i.obj
 0002:00001c04       _GUID_DEVINTERFACE_CDROM   10039c04     uuid:cguid_i.obj
 0002:00001c14       _GUID_DEVINTERFACE_PARTITION 10039c14     uuid:cguid_i.obj
 0002:00001c24       _GUID_DEVINTERFACE_TAPE    10039c24     uuid:cguid_i.obj
 0002:00001c34       _GUID_DEVINTERFACE_WRITEONCEDISK 10039c34     uuid:cguid_i.obj
 0002:00001c44       _GUID_DEVINTERFACE_VOLUME  10039c44     uuid:cguid_i.obj
 0002:00001c54       _GUID_DEVINTERFACE_MEDIUMCHANGER 10039c54     uuid:cguid_i.obj
 0002:00001c64       _GUID_DEVINTERFACE_FLOPPY  10039c64     uuid:cguid_i.obj
 0002:00001c74       _GUID_DEVINTERFACE_CDCHANGER 10039c74     uuid:cguid_i.obj
 0002:00001c84       _GUID_DEVINTERFACE_STORAGEPORT 10039c84     uuid:cguid_i.obj
 0002:00001c94       _GUID_DEVINTERFACE_HIDDEN_VOLUME 10039c94     uuid:cguid_i.obj
 0002:00001ca4       _GUID_DEVINTERFACE_COMPORT 10039ca4     uuid:cguid_i.obj
 0002:00001cb4       _GUID_DEVINTERFACE_SERENUM_BUS_ENUMERATOR 10039cb4     uuid:cguid_i.obj
 0002:00001cc4       _GUID_ATLVer30             10039cc4     atls:atlbase.obj
 0002:00001cd4       _GUID_ATLVer70             10039cd4     atls:atlbase.obj
 0002:00001ce4       _GUID_ATLVer100            10039ce4     atls:atlbase.obj
 0002:00001cf4       _GUID_ATLVer110            10039cf4     atls:atlbase.obj
 0002:00001d08       ??_C@_1IC@ONKHOIDK@?$AAE?$AAR?$AAR?$AAO?$AAR?$AA?5?$AA?3?$AA?5?$AAU?$AAn?$AAa?$AAb?$AAl?$AAe?$AA?5?$AAt?$AAo?$AA?5?$AAi?$AAn?$AAi?$AAt?$AAi?$AAa?$AAl?$AAi?$AAz?$AAe?$AA?5?$AAc?$AAr?$AAi@ 10039d08     atls:atlbase.obj
 0002:00001d8c       __GUID_fc4801a3_2ba9_11cf_a229_00aa003d7352 10039d8c     atls:stdafx.obj
 0002:00001d9c       __GUID_a6bc3ac0_dbaa_11ce_9de3_00aa004bb851 10039d9c     atls:stdafx.obj
 0002:00001dac       ??_C@_1M@EJNEECMJ@?$AAA?$AAp?$AAp?$AAI?$AAD?$AA?$AA@ 10039dac     atls:stdafx.obj
 0002:00001db8       ??_C@_1M@KANJNLFF@?$AAC?$AAL?$AAS?$AAI?$AAD?$AA?$AA@ 10039db8     atls:stdafx.obj
 0002:00001dc4       ??_C@_1CK@OEKPKBNA@?$AAC?$AAo?$AAm?$AAp?$AAo?$AAn?$AAe?$AAn?$AAt?$AA?5?$AAC?$AAa?$AAt?$AAe?$AAg?$AAo?$AAr?$AAi?$AAe?$AAs?$AA?$AA@ 10039dc4     atls:stdafx.obj
 0002:00001df0       ??_C@_1BC@NKMMNMGL@?$AAF?$AAi?$AAl?$AAe?$AAT?$AAy?$AAp?$AAe?$AA?$AA@ 10039df0     atls:stdafx.obj
 0002:00001e04       ??_C@_1BE@EKPAFMCP@?$AAI?$AAn?$AAt?$AAe?$AAr?$AAf?$AAa?$AAc?$AAe?$AA?$AA@ 10039e04     atls:stdafx.obj
 0002:00001e18       ??_C@_1BC@MAICEHGI@?$AAH?$AAa?$AAr?$AAd?$AAw?$AAa?$AAr?$AAe?$AA?$AA@ 10039e18     atls:stdafx.obj
 0002:00001e2c       ??_C@_19HLLLM@?$AAM?$AAi?$AAm?$AAe?$AA?$AA@ 10039e2c     atls:stdafx.obj
 0002:00001e38       ??_C@_17OMAOINJK@?$AAS?$AAA?$AAM?$AA?$AA@ 10039e38     atls:stdafx.obj
 0002:00001e40       ??_C@_1BC@IBECJAAI@?$AAS?$AAE?$AAC?$AAU?$AAR?$AAI?$AAT?$AAY?$AA?$AA@ 10039e40     atls:stdafx.obj
 0002:00001e54       ??_C@_1O@GBFINDKL@?$AAS?$AAY?$AAS?$AAT?$AAE?$AAM?$AA?$AA@ 10039e54     atls:stdafx.obj
 0002:00001e64       ??_C@_1BC@EAHCMADO@?$AAS?$AAo?$AAf?$AAt?$AAw?$AAa?$AAr?$AAe?$AA?$AA@ 10039e64     atls:stdafx.obj
 0002:00001e78       ??_C@_1BA@JIHHIEDE@?$AAT?$AAy?$AAp?$AAe?$AAL?$AAi?$AAb?$AA?$AA@ 10039e78     atls:stdafx.obj
 0002:00001e88       ?VT@?$CVarTypeInfo@D@ATL@@2GB 10039e88     atls:stdafx.obj
 0002:00001e8c       __GUID_0000010c_0000_0000_c000_000000000046 10039e8c     atls:stdafx.obj
 0002:00001e9c       ?VT@?$CVarTypeInfo@E@ATL@@2GB 10039e9c     atls:stdafx.obj
 0002:00001ea0       ?VT@?$CVarTypeInfo@PAD@ATL@@2GB 10039ea0     atls:stdafx.obj
 0002:00001ea4       ?VT@?$CVarTypeInfo@PAE@ATL@@2GB 10039ea4     atls:stdafx.obj
 0002:00001ea8       __GUID_00000109_0000_0000_c000_000000000046 10039ea8     atls:stdafx.obj
 0002:00001eb8       __GUID_7fd52380_4e07_101b_ae2d_08002b2ec713 10039eb8     atls:stdafx.obj
 0002:00001ec8       ?VT@?$CVarTypeInfo@F@ATL@@2GB 10039ec8     atls:stdafx.obj
 0002:00001ecc       ?VT@?$CVarTypeInfo@PAF@ATL@@2GB 10039ecc     atls:stdafx.obj
 0002:00001ed0       ?VT@?$CVarTypeInfo@G@ATL@@2GB 10039ed0     atls:stdafx.obj
 0002:00001ed4       ?VT@?$CVarTypeInfo@PAG@ATL@@2GB 10039ed4     atls:stdafx.obj
 0002:00001ed8       ?VT@?$CVarTypeInfo@H@ATL@@2GB 10039ed8     atls:stdafx.obj
 0002:00001edc       ?VT@?$CVarTypeInfo@PAH@ATL@@2GB 10039edc     atls:stdafx.obj
 0002:00001ee0       ?VT@?$CVarTypeInfo@I@ATL@@2GB 10039ee0     atls:stdafx.obj
 0002:00001ee4       ?VT@?$CVarTypeInfo@PAI@ATL@@2GB 10039ee4     atls:stdafx.obj
 0002:00001ee8       ?VT@?$CVarTypeInfo@J@ATL@@2GB 10039ee8     atls:stdafx.obj
 0002:00001eec       ?VT@?$CVarTypeInfo@PAJ@ATL@@2GB 10039eec     atls:stdafx.obj
 0002:00001ef0       ?VT@?$CVarTypeInfo@K@ATL@@2GB 10039ef0     atls:stdafx.obj
 0002:00001ef4       ?VT@?$CVarTypeInfo@PAK@ATL@@2GB 10039ef4     atls:stdafx.obj
 0002:00001ef8       ?VT@?$CVarTypeInfo@_J@ATL@@2GB 10039ef8     atls:stdafx.obj
 0002:00001efc       ?VT@?$CVarTypeInfo@PA_J@ATL@@2GB 10039efc     atls:stdafx.obj
 0002:00001f00       ?VT@?$CVarTypeInfo@_K@ATL@@2GB 10039f00     atls:stdafx.obj
 0002:00001f04       ?VT@?$CVarTypeInfo@PA_K@ATL@@2GB 10039f04     atls:stdafx.obj
 0002:00001f08       ?VT@?$CVarTypeInfo@M@ATL@@2GB 10039f08     atls:stdafx.obj
 0002:00001f0c       __GUID_b196b284_bab4_101a_b69c_00aa00341d07 10039f0c     atls:stdafx.obj
 0002:00001f1c       ?VT@?$CVarTypeInfo@PAM@ATL@@2GB 10039f1c     atls:stdafx.obj
 0002:00001f20       ?VT@?$CVarTypeInfo@N@ATL@@2GB 10039f20     atls:stdafx.obj
 0002:00001f24       ?chDirSep@ATL@@3_WB        10039f24     atls:stdafx.obj
 0002:00001f28       ?chRightBracket@ATL@@3_WB  10039f28     atls:stdafx.obj
 0002:00001f2c       ?chLeftBracket@ATL@@3_WB   10039f2c     atls:stdafx.obj
 0002:00001f30       ?VT@?$CVarTypeInfo@PAN@ATL@@2GB 10039f30     atls:stdafx.obj
 0002:00001f34       ?chQuote@ATL@@3_WB         10039f34     atls:stdafx.obj
 0002:00001f38       ?chEquals@ATL@@3_WB        10039f38     atls:stdafx.obj
 0002:00001f3c       ?szStringVal@ATL@@3QB_WB   10039f3c     atls:stdafx.obj
 0002:00001f40       ??_C@_13HADIAKP@?$AAS?$AA?$AA@ 10039f40     atls:stdafx.obj
 0002:00001f44       ?multiszStringVal@ATL@@3QB_WB 10039f44     atls:stdafx.obj
 0002:00001f48       ??_C@_13LHMFKAAD@?$AAM?$AA?$AA@ 10039f48     atls:stdafx.obj
 0002:00001f4c       ?szDwordVal@ATL@@3QB_WB    10039f4c     atls:stdafx.obj
 0002:00001f50       ??_C@_13MKMNOPIJ@?$AAD?$AA?$AA@ 10039f50     atls:stdafx.obj
 0002:00001f54       ?szBinaryVal@ATL@@3QB_WB   10039f54     atls:stdafx.obj
 0002:00001f58       ??_C@_13OPKGLAFF@?$AAB?$AA?$AA@ 10039f58     atls:stdafx.obj
 0002:00001f5c       ?szValToken@ATL@@3QB_WB    10039f5c     atls:stdafx.obj
 0002:00001f60       ??_C@_17LLMMEOJD@?$AAV?$AAa?$AAl?$AA?$AA@ 10039f60     atls:stdafx.obj
 0002:00001f68       ?szForceRemove@ATL@@3QB_WB 10039f68     atls:stdafx.obj
 0002:00001f6c       ?VT@?$CVarTypeInfo@PAUtagVARIANT@@@ATL@@2GB 10039f6c     atls:stdafx.obj
 0002:00001f70       ??_C@_1BI@JFAIJMHL@?$AAF?$AAo?$AAr?$AAc?$AAe?$AAR?$AAe?$AAm?$AAo?$AAv?$AAe?$AA?$AA@ 10039f70     atls:stdafx.obj
 0002:00001f88       ?szNoRemove@ATL@@3QB_WB    10039f88     atls:stdafx.obj
 0002:00001f8c       ??_C@_1BC@GCKHIPE@?$AAN?$AAo?$AAR?$AAe?$AAm?$AAo?$AAv?$AAe?$AA?$AA@ 10039f8c     atls:stdafx.obj
 0002:00001fa0       ?szDelete@ATL@@3QB_WB      10039fa0     atls:stdafx.obj
 0002:00001fa4       ??_C@_1O@JDLOHAN@?$AAD?$AAe?$AAl?$AAe?$AAt?$AAe?$AA?$AA@ 10039fa4     atls:stdafx.obj
 0002:00001fb4       ?VT@?$CVarTypeInfo@PA_W@ATL@@2GB 10039fb4     atls:stdafx.obj
 0002:00001fb8       ?pmField@?$CVarTypeInfo@PA_W@ATL@@2QQtagVARIANT@@PA_WQ3@ 10039fb8     atls:stdafx.obj
 0002:00001fbc       ?VT@?$CVarTypeInfo@PAPA_W@ATL@@2GB 10039fbc     atls:stdafx.obj
 0002:00001fc0       ?pmField@?$CVarTypeInfo@PAPA_W@ATL@@2QQtagVARIANT@@PAPA_WQ3@ 10039fc0     atls:stdafx.obj
 0002:00001fc4       ?VT@?$CVarTypeInfo@PAUIUnknown@@@ATL@@2GB 10039fc4     atls:stdafx.obj
 0002:00001fc8       ?VT@?$CVarTypeInfo@PAPAUIUnknown@@@ATL@@2GB 10039fc8     atls:stdafx.obj
 0002:00001fcc       ?VT@?$CVarTypeInfo@PAUIDispatch@@@ATL@@2GB 10039fcc     atls:stdafx.obj
 0002:00001fd0       ?VT@?$CVarTypeInfo@PAPAUIDispatch@@@ATL@@2GB 10039fd0     atls:stdafx.obj
 0002:00001fd4       ?VT@?$CVarTypeInfo@TtagCY@@@ATL@@2GB 10039fd4     atls:stdafx.obj
 0002:00001fd8       __GUID_00000000_0000_0000_c000_000000000046 10039fd8     atls:stdafx.obj
 0002:00001fe8       ?VT@?$CVarTypeInfo@PATtagCY@@@ATL@@2GB 10039fe8     atls:stdafx.obj
 0002:00001fec       __GUID_00020400_0000_0000_c000_000000000046 10039fec     atls:stdafx.obj
 0002:00001ffc       ?MAX_VALUE@CRegParser@ATL@@1HB 10039ffc     atls:stdafx.obj
 0002:00002000       __GUID_1cf2b120_547d_101b_8e65_08002b2bd119 1003a000     atls:stdafx.obj
 0002:00002010       ?rgszNeverDelete@CRegParser@ATL@@1QBQB_WB 1003a010     atls:stdafx.obj
 0002:00002040       ?MAX_TYPE@CRegParser@ATL@@1HB 1003a040     atls:stdafx.obj
 0002:00002044       ?_Min@?$AtlLimits@H@ATL@@2HB 1003a044     atls:stdafx.obj
 0002:00002048       ?_Max@?$AtlLimits@H@ATL@@2HB 1003a048     atls:stdafx.obj
 0002:0000204c       ?_Min@?$AtlLimits@I@ATL@@2IB 1003a04c     atls:stdafx.obj
 0002:00002050       ?_Max@?$AtlLimits@I@ATL@@2IB 1003a050     atls:stdafx.obj
 0002:00002054       ?_Min@?$AtlLimits@J@ATL@@2JB 1003a054     atls:stdafx.obj
 0002:00002058       ?_Max@?$AtlLimits@J@ATL@@2JB 1003a058     atls:stdafx.obj
 0002:0000205c       ?_Min@?$AtlLimits@K@ATL@@2KB 1003a05c     atls:stdafx.obj
 0002:00002060       ?_Max@?$AtlLimits@K@ATL@@2KB 1003a060     atls:stdafx.obj
 0002:00002068       ?_Min@?$AtlLimits@_J@ATL@@2_JB 1003a068     atls:stdafx.obj
 0002:00002070       ?_Max@?$AtlLimits@_J@ATL@@2_JB 1003a070     atls:stdafx.obj
 0002:00002078       ?_Min@?$AtlLimits@_K@ATL@@2_KB 1003a078     atls:stdafx.obj
 0002:00002080       ?_Max@?$AtlLimits@_K@ATL@@2_KB 1003a080     atls:stdafx.obj
 0002:00002088       __GUID_0002e012_0000_0000_c000_000000000046 1003a088     atls:stdafx.obj
 0002:00002098       ??_C@_1BI@BGOHAHKC@?$AAm?$AAs?$AAc?$AAo?$AAr?$AAe?$AAe?$AA?4?$AAd?$AAl?$AAl?$AA?$AA@ 1003a098     LIBCMT:crt0dat.obj
 0002:000020b0       ??_C@_0P@MIGLKIOC@CorExitProcess?$AA@ 1003a0b0     LIBCMT:crt0dat.obj
 0002:000020c0       ?ProcessDetach@NativeDll@<CrtImplementationDetails>@@0IB 1003a0c0     LIBCMT:mbsstr.obj
 0002:000020c4       ?ProcessAttach@NativeDll@<CrtImplementationDetails>@@0IB 1003a0c4     LIBCMT:mbsstr.obj
 0002:000020c8       ?ThreadAttach@NativeDll@<CrtImplementationDetails>@@0IB 1003a0c8     LIBCMT:mbsstr.obj
 0002:000020cc       ?ThreadDetach@NativeDll@<CrtImplementationDetails>@@0IB 1003a0cc     LIBCMT:mbsstr.obj
 0002:000020d0       ?ProcessVerifier@NativeDll@<CrtImplementationDetails>@@0IB 1003a0d0     LIBCMT:mbsstr.obj
 0002:000020f4       ?value@?$integral_constant@_N$0A@@std@@2_NB 1003a0f4     LIBCMT:typinfo.obj
 0002:000020f5       ?value@?$integral_constant@_N$00@std@@2_NB 1003a0f5     LIBCMT:typinfo.obj
 0002:000020fc       ??_7type_info@@6B@         1003a0fc     LIBCMT:typinfo.obj
 0002:00002104       ??_7bad_alloc@std@@6B@     1003a104     LIBCMT:new.obj
 0002:0000210c       ??_C@_0P@GHFPNOJB@bad?5allocation?$AA@ 1003a10c     LIBCMT:new.obj
 0002:00002120       __real@0000000000000000    1003a120     LIBCMT:hypot.obj
 0002:00002128       __FPinit                   1003a128     LIBCMT:fpinit.obj
 0002:0000212c       ??_C@_0N@PPOMPGGK@RoInitialize?$AA@ 1003a12c     LIBCMT:threadex.obj
 0002:0000213c       ??_C@_1BI@IDAOOPDH@?$AAc?$AAo?$AAm?$AAb?$AAa?$AAs?$AAe?$AA?4?$AAd?$AAl?$AAl?$AA?$AA@ 1003a13c     LIBCMT:threadex.obj
 0002:00002154       ??_C@_0P@LLFHBIJD@RoUninitialize?$AA@ 1003a154     LIBCMT:threadex.obj
 0002:0000216c       __pRawDllMain              1003a16c     LIBCMT:dllcrt0.obj
 0002:0000216c       __pDefaultRawDllMain       1003a16c     LIBCMT:dllcrt0.obj
 0002:00002170       ??_C@_1BK@MGMFAEKH@?$AAk?$AAe?$AAr?$AAn?$AAe?$AAl?$AA3?$AA2?$AA?4?$AAd?$AAl?$AAl?$AA?$AA@ 1003a170     LIBCMT:winapisupp.obj
 0002:0000218c       ??_C@_08KNHFBNJ@FlsAlloc?$AA@ 1003a18c     LIBCMT:winapisupp.obj
 0002:00002198       ??_C@_07PEJMOBNF@FlsFree?$AA@ 1003a198     LIBCMT:winapisupp.obj
 0002:000021a0       ??_C@_0M@GDNOONDI@FlsGetValue?$AA@ 1003a1a0     LIBCMT:winapisupp.obj
 0002:000021ac       ??_C@_0M@JCPCPOEF@FlsSetValue?$AA@ 1003a1ac     LIBCMT:winapisupp.obj
 0002:000021b8       ??_C@_0BM@HCFOFFN@InitializeCriticalSectionEx?$AA@ 1003a1b8     LIBCMT:winapisupp.obj
 0002:000021d4       ??_C@_0P@DLHPPCNH@CreateEventExW?$AA@ 1003a1d4     LIBCMT:winapisupp.obj
 0002:000021e4       ??_C@_0BD@KIEEOEEH@CreateSemaphoreExW?$AA@ 1003a1e4     LIBCMT:winapisupp.obj
 0002:000021f8       ??_C@_0BI@BKLFFAPO@SetThreadStackGuarantee?$AA@ 1003a1f8     LIBCMT:winapisupp.obj
 0002:00002210       ??_C@_0BG@OGFAJCKC@CreateThreadpoolTimer?$AA@ 1003a210     LIBCMT:winapisupp.obj
 0002:00002228       ??_C@_0BD@LPLEMMDI@SetThreadpoolTimer?$AA@ 1003a228     LIBCMT:winapisupp.obj
 0002:0000223c       ??_C@_0CA@FMNJENH@WaitForThreadpoolTimerCallbacks?$AA@ 1003a23c     LIBCMT:winapisupp.obj
 0002:0000225c       ??_C@_0BF@DCFCCNOC@CloseThreadpoolTimer?$AA@ 1003a25c     LIBCMT:winapisupp.obj
 0002:00002274       ??_C@_0BF@FLABGKKM@CreateThreadpoolWait?$AA@ 1003a274     LIBCMT:winapisupp.obj
 0002:0000228c       ??_C@_0BC@MGCOHNA@SetThreadpoolWait?$AA@ 1003a28c     LIBCMT:winapisupp.obj
 0002:000022a0       ??_C@_0BE@OCIOMIMP@CloseThreadpoolWait?$AA@ 1003a2a0     LIBCMT:winapisupp.obj
 0002:000022b4       ??_C@_0BJ@LKGHFHBO@FlushProcessWriteBuffers?$AA@ 1003a2b4     LIBCMT:winapisupp.obj
 0002:000022d0       ??_C@_0BP@KALKKPMO@FreeLibraryWhenCallbackReturns?$AA@ 1003a2d0     LIBCMT:winapisupp.obj
 0002:000022f0       ??_C@_0BK@DFNBACLA@GetCurrentProcessorNumber?$AA@ 1003a2f0     LIBCMT:winapisupp.obj
 0002:0000230c       ??_C@_0BP@KHGALBC@GetLogicalProcessorInformation?$AA@ 1003a30c     LIBCMT:winapisupp.obj
 0002:0000232c       ??_C@_0BE@FKKLLFLM@CreateSymbolicLinkW?$AA@ 1003a32c     LIBCMT:winapisupp.obj
 0002:00002340       ??_C@_0BJ@OHNKDLIJ@SetDefaultDllDirectories?$AA@ 1003a340     LIBCMT:winapisupp.obj
 0002:0000235c       ??_C@_0BE@LJANKFHF@EnumSystemLocalesEx?$AA@ 1003a35c     LIBCMT:winapisupp.obj
 0002:00002370       ??_C@_0BA@IHGNDAEB@CompareStringEx?$AA@ 1003a370     LIBCMT:winapisupp.obj
 0002:00002380       ??_C@_0BA@EPCJIIPD@GetDateFormatEx?$AA@ 1003a380     LIBCMT:winapisupp.obj
 0002:00002390       ??_C@_0BA@ONOKGCMP@GetLocaleInfoEx?$AA@ 1003a390     LIBCMT:winapisupp.obj
 0002:000023a0       ??_C@_0BA@CIJJKCJJ@GetTimeFormatEx?$AA@ 1003a3a0     LIBCMT:winapisupp.obj
 0002:000023b0       ??_C@_0BJ@PBCCBIPI@GetUserDefaultLocaleName?$AA@ 1003a3b0     LIBCMT:winapisupp.obj
 0002:000023cc       ??_C@_0BC@CELBKLLA@IsValidLocaleName?$AA@ 1003a3cc     LIBCMT:winapisupp.obj
 0002:000023e0       ??_C@_0O@KKBNKAPF@LCMapStringEx?$AA@ 1003a3e0     LIBCMT:winapisupp.obj
 0002:000023f0       ??_C@_0BE@JOGNEJCI@GetCurrentPackageId?$AA@ 1003a3f0     LIBCMT:winapisupp.obj
 0002:00002404       ??_C@_0P@CDHHOHKP@GetTickCount64?$AA@ 1003a404     LIBCMT:winapisupp.obj
 0002:00002414       ??_C@_0BO@KPCLFDJJ@GetFileInformationByHandleExW?$AA@ 1003a414     LIBCMT:winapisupp.obj
 0002:00002434       ??_C@_0BM@MHIDLABK@SetFileInformationByHandleW?$AA@ 1003a434     LIBCMT:winapisupp.obj
 0002:00002508       ??_C@_1FK@PGACCAFB@?$AAR?$AA6?$AA0?$AA0?$AA2?$AA?$AN?$AA?6?$AA?9?$AA?5?$AAf?$AAl?$AAo?$AAa?$AAt?$AAi?$AAn?$AAg?$AA?5?$AAp?$AAo?$AAi?$AAn?$AAt?$AA?5?$AAs?$AAu?$AAp?$AAp?$AAo?$AAr?$AAt?$AA?5@ 1003a508     LIBCMT:crt0msg.obj
 0002:00002568       ??_C@_1FE@LLNEDJMD@?$AAR?$AA6?$AA0?$AA0?$AA8?$AA?$AN?$AA?6?$AA?9?$AA?5?$AAn?$AAo?$AAt?$AA?5?$AAe?$AAn?$AAo?$AAu?$AAg?$AAh?$AA?5?$AAs?$AAp?$AAa?$AAc?$AAe?$AA?5?$AAf?$AAo?$AAr?$AA?5?$AAa?$AAr@ 1003a568     LIBCMT:crt0msg.obj
 0002:000025c0       ??_C@_1FI@HONFMGBI@?$AAR?$AA6?$AA0?$AA0?$AA9?$AA?$AN?$AA?6?$AA?9?$AA?5?$AAn?$AAo?$AAt?$AA?5?$AAe?$AAn?$AAo?$AAu?$AAg?$AAh?$AA?5?$AAs?$AAp?$AAa?$AAc?$AAe?$AA?5?$AAf?$AAo?$AAr?$AA?5?$AAe?$AAn@ 1003a5c0     LIBCMT:crt0msg.obj
 0002:00002618       ??_C@_1EG@BEHAGFJD@?$AAR?$AA6?$AA0?$AA1?$AA0?$AA?$AN?$AA?6?$AA?9?$AA?5?$AAa?$AAb?$AAo?$AAr?$AAt?$AA?$CI?$AA?$CJ?$AA?5?$AAh?$AAa?$AAs?$AA?5?$AAb?$AAe?$AAe?$AAn?$AA?5?$AAc?$AAa?$AAl?$AAl?$AAe?$AAd@ 1003a618     LIBCMT:crt0msg.obj
 0002:00002660       ??_C@_1FI@LOGNIKDM@?$AAR?$AA6?$AA0?$AA1?$AA6?$AA?$AN?$AA?6?$AA?9?$AA?5?$AAn?$AAo?$AAt?$AA?5?$AAe?$AAn?$AAo?$AAu?$AAg?$AAh?$AA?5?$AAs?$AAp?$AAa?$AAc?$AAe?$AA?5?$AAf?$AAo?$AAr?$AA?5?$AAt?$AAh@ 1003a660     LIBCMT:crt0msg.obj
 0002:000026b8       ??_C@_1FK@BEOGODMC@?$AAR?$AA6?$AA0?$AA1?$AA7?$AA?$AN?$AA?6?$AA?9?$AA?5?$AAu?$AAn?$AAe?$AAx?$AAp?$AAe?$AAc?$AAt?$AAe?$AAd?$AA?5?$AAm?$AAu?$AAl?$AAt?$AAi?$AAt?$AAh?$AAr?$AAe?$AAa?$AAd?$AA?5@ 1003a6b8     LIBCMT:crt0msg.obj
 0002:00002718       ??_C@_1EC@JIBHAOPH@?$AAR?$AA6?$AA0?$AA1?$AA8?$AA?$AN?$AA?6?$AA?9?$AA?5?$AAu?$AAn?$AAe?$AAx?$AAp?$AAe?$AAc?$AAt?$AAe?$AAd?$AA?5?$AAh?$AAe?$AAa?$AAp?$AA?5?$AAe?$AAr?$AAr?$AAo?$AAr?$AA?$AN?$AA?6@ 1003a718     LIBCMT:crt0msg.obj
 0002:00002760       ??_C@_1FC@ECHBIFBC@?$AAR?$AA6?$AA0?$AA1?$AA9?$AA?$AN?$AA?6?$AA?9?$AA?5?$AAu?$AAn?$AAa?$AAb?$AAl?$AAe?$AA?5?$AAt?$AAo?$AA?5?$AAo?$AAp?$AAe?$AAn?$AA?5?$AAc?$AAo?$AAn?$AAs?$AAo?$AAl?$AAe?$AA?5@ 1003a760     LIBCMT:crt0msg.obj
 0002:000027b8       ??_C@_1GK@FHCKBEFA@?$AAR?$AA6?$AA0?$AA2?$AA4?$AA?$AN?$AA?6?$AA?9?$AA?5?$AAn?$AAo?$AAt?$AA?5?$AAe?$AAn?$AAo?$AAu?$AAg?$AAh?$AA?5?$AAs?$AAp?$AAa?$AAc?$AAe?$AA?5?$AAf?$AAo?$AAr?$AA?5?$AA_?$AAo@ 1003a7b8     LIBCMT:crt0msg.obj
 0002:00002828       ??_C@_1EM@MAADIHMB@?$AAR?$AA6?$AA0?$AA2?$AA5?$AA?$AN?$AA?6?$AA?9?$AA?5?$AAp?$AAu?$AAr?$AAe?$AA?5?$AAv?$AAi?$AAr?$AAt?$AAu?$AAa?$AAl?$AA?5?$AAf?$AAu?$AAn?$AAc?$AAt?$AAi?$AAo?$AAn?$AA?5?$AAc@ 1003a828     LIBCMT:crt0msg.obj
 0002:00002878       ??_C@_1GK@MCAAGJMO@?$AAR?$AA6?$AA0?$AA2?$AA6?$AA?$AN?$AA?6?$AA?9?$AA?5?$AAn?$AAo?$AAt?$AA?5?$AAe?$AAn?$AAo?$AAu?$AAg?$AAh?$AA?5?$AAs?$AAp?$AAa?$AAc?$AAe?$AA?5?$AAf?$AAo?$AAr?$AA?5?$AAs?$AAt@ 1003a878     LIBCMT:crt0msg.obj
 0002:000028e8       ??_C@_1GK@MFGOKLAG@?$AAR?$AA6?$AA0?$AA2?$AA7?$AA?$AN?$AA?6?$AA?9?$AA?5?$AAn?$AAo?$AAt?$AA?5?$AAe?$AAn?$AAo?$AAu?$AAg?$AAh?$AA?5?$AAs?$AAp?$AAa?$AAc?$AAe?$AA?5?$AAf?$AAo?$AAr?$AA?5?$AAl?$AAo@ 1003a8e8     LIBCMT:crt0msg.obj
 0002:00002958       ??_C@_1EK@HHFLMAOL@?$AAR?$AA6?$AA0?$AA2?$AA8?$AA?$AN?$AA?6?$AA?9?$AA?5?$AAu?$AAn?$AAa?$AAb?$AAl?$AAe?$AA?5?$AAt?$AAo?$AA?5?$AAi?$AAn?$AAi?$AAt?$AAi?$AAa?$AAl?$AAi?$AAz?$AAe?$AA?5?$AAh?$AAe@ 1003a958     LIBCMT:crt0msg.obj
 0002:000029a4       ??_C@_1DO@BMFCDCD@?$AAR?$AA6?$AA0?$AA3?$AA0?$AA?$AN?$AA?6?$AA?9?$AA?5?$AAC?$AAR?$AAT?$AA?5?$AAn?$AAo?$AAt?$AA?5?$AAi?$AAn?$AAi?$AAt?$AAi?$AAa?$AAl?$AAi?$AAz?$AAe?$AAd?$AA?$AN?$AA?6?$AA?$AA@ 1003a9a4     LIBCMT:crt0msg.obj
 0002:000029e8       ??_C@_1MG@ENCOOIDF@?$AAR?$AA6?$AA0?$AA3?$AA1?$AA?$AN?$AA?6?$AA?9?$AA?5?$AAA?$AAt?$AAt?$AAe?$AAm?$AAp?$AAt?$AA?5?$AAt?$AAo?$AA?5?$AAi?$AAn?$AAi?$AAt?$AAi?$AAa?$AAl?$AAi?$AAz?$AAe?$AA?5?$AAt@ 1003a9e8     LIBCMT:crt0msg.obj
 0002:00002ab0       ??_C@_1GG@GOPILAJP@?$AAR?$AA6?$AA0?$AA3?$AA2?$AA?$AN?$AA?6?$AA?9?$AA?5?$AAn?$AAo?$AAt?$AA?5?$AAe?$AAn?$AAo?$AAu?$AAg?$AAh?$AA?5?$AAs?$AAp?$AAa?$AAc?$AAe?$AA?5?$AAf?$AAo?$AAr?$AA?5?$AAl?$AAo@ 1003aab0     LIBCMT:crt0msg.obj
 0002:00002b18       ??_C@_1BOO@KGEDBGAJ@?$AAR?$AA6?$AA0?$AA3?$AA3?$AA?$AN?$AA?6?$AA?9?$AA?5?$AAA?$AAt?$AAt?$AAe?$AAm?$AAp?$AAt?$AA?5?$AAt?$AAo?$AA?5?$AAu?$AAs?$AAe?$AA?5?$AAM?$AAS?$AAI?$AAL?$AA?5?$AAc?$AAo?$AAd@ 1003ab18     LIBCMT:crt0msg.obj
 0002:00002d08       ??_C@_1GG@MKFPEKFO@?$AAR?$AA6?$AA0?$AA3?$AA4?$AA?$AN?$AA?6?$AA?9?$AA?5?$AAi?$AAn?$AAc?$AAo?$AAn?$AAs?$AAi?$AAs?$AAt?$AAe?$AAn?$AAt?$AA?5?$AAo?$AAn?$AAe?$AAx?$AAi?$AAt?$AA?5?$AAb?$AAe?$AAg@ 1003ad08     LIBCMT:crt0msg.obj
 0002:00002d70       ??_C@_1BO@BFCDCGC@?$AAD?$AAO?$AAM?$AAA?$AAI?$AAN?$AA?5?$AAe?$AAr?$AAr?$AAo?$AAr?$AA?$AN?$AA?6?$AA?$AA@ 1003ad70     LIBCMT:crt0msg.obj
 0002:00002d90       ??_C@_1BK@KMOMNAAI@?$AAS?$AAI?$AAN?$AAG?$AA?5?$AAe?$AAr?$AAr?$AAo?$AAr?$AA?$AN?$AA?6?$AA?$AA@ 1003ad90     LIBCMT:crt0msg.obj
 0002:00002dac       ??_C@_1BM@JBBEPPHI@?$AAT?$AAL?$AAO?$AAS?$AAS?$AA?5?$AAe?$AAr?$AAr?$AAo?$AAr?$AA?$AN?$AA?6?$AA?$AA@ 1003adac     LIBCMT:crt0msg.obj
 0002:00002dc8       ??_C@_15JNBOKNOG@?$AA?$AN?$AA?6?$AA?$AA@ 1003adc8     LIBCMT:crt0msg.obj
 0002:00002dd0       ??_C@_1BO@BKOMIGKJ@?$AAr?$AAu?$AAn?$AAt?$AAi?$AAm?$AAe?$AA?5?$AAe?$AAr?$AAr?$AAo?$AAr?$AA?5?$AA?$AA@ 1003add0     LIBCMT:crt0msg.obj
 0002:00002df0       ??_C@_1DE@JNGNBFGO@?$AAR?$AAu?$AAn?$AAt?$AAi?$AAm?$AAe?$AA?5?$AAE?$AAr?$AAr?$AAo?$AAr?$AA?$CB?$AA?6?$AA?6?$AAP?$AAr?$AAo?$AAg?$AAr?$AAa?$AAm?$AA?3?$AA?5?$AA?$AA@ 1003adf0     LIBCMT:crt0msg.obj
 0002:00002e24       ??_C@_1CO@EAEJAADC@?$AA?$DM?$AAp?$AAr?$AAo?$AAg?$AAr?$AAa?$AAm?$AA?5?$AAn?$AAa?$AAm?$AAe?$AA?5?$AAu?$AAn?$AAk?$AAn?$AAo?$AAw?$AAn?$AA?$DO?$AA?$AA@ 1003ae24     LIBCMT:crt0msg.obj
 0002:00002e54       ??_C@_17LGKOMLJ@?$AA?4?$AA?4?$AA?4?$AA?$AA@ 1003ae54     LIBCMT:crt0msg.obj
 0002:00002e5c       ??_C@_15IABLJNFO@?$AA?6?$AA?6?$AA?$AA@ 1003ae5c     LIBCMT:crt0msg.obj
 0002:00002e68       ??_C@_1EK@MBDPDCGA@?$AAM?$AAi?$AAc?$AAr?$AAo?$AAs?$AAo?$AAf?$AAt?$AA?5?$AAV?$AAi?$AAs?$AAu?$AAa?$AAl?$AA?5?$AAC?$AA?$CL?$AA?$CL?$AA?5?$AAR?$AAu?$AAn?$AAt?$AAi?$AAm?$AAe?$AA?5?$AAL?$AAi?$AAb@ 1003ae68     LIBCMT:crt0msg.obj
 0002:00002eb4       ??_C@_1BK@GAEMIDIL@?$AAA?$AAD?$AAV?$AAA?$AAP?$AAI?$AA3?$AA2?$AA?4?$AAD?$AAL?$AAL?$AA?$AA@ 1003aeb4     LIBCMT:rand_s.obj
 0002:00002ed0       ??_C@_0BC@JEAENNKH@SystemFunction036?$AA@ 1003aed0     LIBCMT:rand_s.obj
 0002:00002ef4       ??_C@_1M@HPNHIDJI@?$AAj?$AAa?$AA?9?$AAJ?$AAP?$AA?$AA@ 1003aef4     LIBCMT:mbctype.obj
 0002:00002f00       ??_C@_1M@BIBDDEMK@?$AAz?$AAh?$AA?9?$AAC?$AAN?$AA?$AA@ 1003af00     LIBCMT:mbctype.obj
 0002:00002f0c       ??_C@_1M@JLOOOEGK@?$AAk?$AAo?$AA?9?$AAK?$AAR?$AA?$AA@ 1003af0c     LIBCMT:mbctype.obj
 0002:00002f18       ??_C@_1M@CLNBBOPM@?$AAz?$AAh?$AA?9?$AAT?$AAW?$AA?$AA@ 1003af18     LIBCMT:mbctype.obj
 0002:00002f24       ??_C@_03KOEHGMDN@Sun?$AA@  1003af24     LIBCMT:nlsdata.obj
 0002:00002f28       ??_C@_03PDAGKDH@Mon?$AA@   1003af28     LIBCMT:nlsdata.obj
 0002:00002f2c       ??_C@_03NAGEINEP@Tue?$AA@  1003af2c     LIBCMT:nlsdata.obj
 0002:00002f30       ??_C@_03MHOMLAJA@Wed?$AA@  1003af30     LIBCMT:nlsdata.obj
 0002:00002f34       ??_C@_03IOFIKPDN@Thu?$AA@  1003af34     LIBCMT:nlsdata.obj
 0002:00002f38       ??_C@_03IDIOELNC@Fri?$AA@  1003af38     LIBCMT:nlsdata.obj
 0002:00002f3c       ??_C@_03FEFJNEK@Sat?$AA@   1003af3c     LIBCMT:nlsdata.obj
 0002:00002f40       ??_C@_06OOPIFAJ@Sunday?$AA@ 1003af40     LIBCMT:nlsdata.obj
 0002:00002f48       ??_C@_06JLEDEDGH@Monday?$AA@ 1003af48     LIBCMT:nlsdata.obj
 0002:00002f50       ??_C@_07BAAGCFCM@Tuesday?$AA@ 1003af50     LIBCMT:nlsdata.obj
 0002:00002f58       ??_C@_09DLIGFAKA@Wednesday?$AA@ 1003af58     LIBCMT:nlsdata.obj
 0002:00002f64       ??_C@_08HACCIKIA@Thursday?$AA@ 1003af64     LIBCMT:nlsdata.obj
 0002:00002f70       ??_C@_06JECMNKMI@Friday?$AA@ 1003af70     LIBCMT:nlsdata.obj
 0002:00002f78       ??_C@_08INBOOONO@Saturday?$AA@ 1003af78     LIBCMT:nlsdata.obj
 0002:00002f84       ??_C@_03JIHJHPIE@Jan?$AA@  1003af84     LIBCMT:nlsdata.obj
 0002:00002f88       ??_C@_03HJBDCHOM@Feb?$AA@  1003af88     LIBCMT:nlsdata.obj
 0002:00002f8c       ??_C@_03ODNJBKGA@Mar?$AA@  1003af8c     LIBCMT:nlsdata.obj
 0002:00002f90       ??_C@_03LEOLGMJP@Apr?$AA@  1003af90     LIBCMT:nlsdata.obj
 0002:00002f94       ??_C@_03CNMDKL@May?$AA@    1003af94     LIBCMT:nlsdata.obj
 0002:00002f98       ??_C@_03IDFGHECI@Jun?$AA@  1003af98     LIBCMT:nlsdata.obj
 0002:00002f9c       ??_C@_03LBGABGKK@Jul?$AA@  1003af9c     LIBCMT:nlsdata.obj
 0002:00002fa0       ??_C@_03IFJFEIGA@Aug?$AA@  1003afa0     LIBCMT:nlsdata.obj
 0002:00002fa4       ??_C@_03GGCAPAJC@Sep?$AA@  1003afa4     LIBCMT:nlsdata.obj
 0002:00002fa8       ??_C@_03BMAOKBAD@Oct?$AA@  1003afa8     LIBCMT:nlsdata.obj
 0002:00002fac       ??_C@_03JPJOFNIA@Nov?$AA@  1003afac     LIBCMT:nlsdata.obj
 0002:00002fb0       ??_C@_03MKABNOCG@Dec?$AA@  1003afb0     LIBCMT:nlsdata.obj
 0002:00002fb4       ??_C@_07CGJPFGJA@January?$AA@ 1003afb4     LIBCMT:nlsdata.obj
 0002:00002fbc       ??_C@_08GNJGEPFN@February?$AA@ 1003afbc     LIBCMT:nlsdata.obj
 0002:00002fc8       ??_C@_05HPCKOFNC@March?$AA@ 1003afc8     LIBCMT:nlsdata.obj
 0002:00002fd0       ??_C@_05DMJDNLEJ@April?$AA@ 1003afd0     LIBCMT:nlsdata.obj
 0002:00002fd8       ??_C@_04CNLMGBGM@June?$AA@ 1003afd8     LIBCMT:nlsdata.obj
 0002:00002fe0       ??_C@_04MIEPOIFP@July?$AA@ 1003afe0     LIBCMT:nlsdata.obj
 0002:00002fe8       ??_C@_06LBBHFDDG@August?$AA@ 1003afe8     LIBCMT:nlsdata.obj
 0002:00002ff0       ??_C@_09BHHEALKD@September?$AA@ 1003aff0     LIBCMT:nlsdata.obj
 0002:00002ffc       ??_C@_07JJNFCEND@October?$AA@ 1003affc     LIBCMT:nlsdata.obj
 0002:00003004       ??_C@_08HCHEGEOA@November?$AA@ 1003b004     LIBCMT:nlsdata.obj
 0002:00003010       ??_C@_08EDHMEBNP@December?$AA@ 1003b010     LIBCMT:nlsdata.obj
 0002:0000301c       ??_C@_02DEDBPAFC@AM?$AA@   1003b01c     LIBCMT:nlsdata.obj
 0002:00003020       ??_C@_02CJNFDJBF@PM?$AA@   1003b020     LIBCMT:nlsdata.obj
 0002:00003024       ??_C@_08BPBNCDIB@MM?1dd?1yy?$AA@ 1003b024     LIBCMT:nlsdata.obj
 0002:00003030       ??_C@_0BE@CKGJFCPC@dddd?0?5MMMM?5dd?0?5yyyy?$AA@ 1003b030     LIBCMT:nlsdata.obj
 0002:00003044       ??_C@_08JCCMCCIL@HH?3mm?3ss?$AA@ 1003b044     LIBCMT:nlsdata.obj
 0002:00003050       ??_C@_17MBGCMIPB@?$AAS?$AAu?$AAn?$AA?$AA@ 1003b050     LIBCMT:nlsdata.obj
 0002:00003058       ??_C@_17KBOMKBF@?$AAM?$AAo?$AAn?$AA?$AA@ 1003b058     LIBCMT:nlsdata.obj
 0002:00003060       ??_C@_17BMKGEGOJ@?$AAT?$AAu?$AAe?$AA?$AA@ 1003b060     LIBCMT:nlsdata.obj
 0002:00003068       ??_C@_17CJEDCEPE@?$AAW?$AAe?$AAd?$AA?$AA@ 1003b068     LIBCMT:nlsdata.obj
 0002:00003070       ??_C@_17PDPHAADD@?$AAT?$AAh?$AAu?$AA?$AA@ 1003b070     LIBCMT:nlsdata.obj
 0002:00003078       ??_C@_17HFOLPPLP@?$AAF?$AAr?$AAi?$AA?$AA@ 1003b078     LIBCMT:nlsdata.obj
 0002:00003080       ??_C@_17GGIBDPIH@?$AAS?$AAa?$AAt?$AA?$AA@ 1003b080     LIBCMT:nlsdata.obj
 0002:00003088       ??_C@_1O@IHNHDHPB@?$AAS?$AAu?$AAn?$AAd?$AAa?$AAy?$AA?$AA@ 1003b088     LIBCMT:nlsdata.obj
 0002:00003098       ??_C@_1O@MMNBFLIA@?$AAM?$AAo?$AAn?$AAd?$AAa?$AAy?$AA?$AA@ 1003b098     LIBCMT:nlsdata.obj
 0002:000030a8       ??_C@_1BA@ENFBFFEK@?$AAT?$AAu?$AAe?$AAs?$AAd?$AAa?$AAy?$AA?$AA@ 1003b0a8     LIBCMT:nlsdata.obj
 0002:000030b8       ??_C@_1BE@EBOGMDOH@?$AAW?$AAe?$AAd?$AAn?$AAe?$AAs?$AAd?$AAa?$AAy?$AA?$AA@ 1003b0b8     LIBCMT:nlsdata.obj
 0002:000030cc       ??_C@_1BC@HHMNLIHE@?$AAT?$AAh?$AAu?$AAr?$AAs?$AAd?$AAa?$AAy?$AA?$AA@ 1003b0cc     LIBCMT:nlsdata.obj
 0002:000030e0       ??_C@_1O@PDICJHAG@?$AAF?$AAr?$AAi?$AAd?$AAa?$AAy?$AA?$AA@ 1003b0e0     LIBCMT:nlsdata.obj
 0002:000030f0       ??_C@_1BC@ENMNNPAJ@?$AAS?$AAa?$AAt?$AAu?$AAr?$AAd?$AAa?$AAy?$AA?$AA@ 1003b0f0     LIBCMT:nlsdata.obj
 0002:00003104       ??_C@_17DKNBKCHM@?$AAJ?$AAa?$AAn?$AA?$AA@ 1003b104     LIBCMT:nlsdata.obj
 0002:0000310c       ??_C@_17LMDJEKJN@?$AAF?$AAe?$AAb?$AA?$AA@ 1003b10c     LIBCMT:nlsdata.obj
 0002:00003114       ??_C@_17CKNLEDEC@?$AAM?$AAa?$AAr?$AA?$AA@ 1003b114     LIBCMT:nlsdata.obj
 0002:0000311c       ??_C@_17LFPOIHDD@?$AAA?$AAp?$AAr?$AA?$AA@ 1003b11c     LIBCMT:nlsdata.obj
 0002:00003124       ??_C@_17PNNKMEED@?$AAM?$AAa?$AAy?$AA?$AA@ 1003b124     LIBCMT:nlsdata.obj
 0002:0000312c       ??_C@_17KCJGOCPB@?$AAJ?$AAu?$AAn?$AA?$AA@ 1003b12c     LIBCMT:nlsdata.obj
 0002:00003134       ??_C@_17IJPCKHK@?$AAJ?$AAu?$AAl?$AA?$AA@ 1003b134     LIBCMT:nlsdata.obj
 0002:0000313c       ??_C@_17ICPELBCN@?$AAA?$AAu?$AAg?$AA?$AA@ 1003b13c     LIBCMT:nlsdata.obj
 0002:00003144       ??_C@_17HCHCOKMG@?$AAS?$AAe?$AAp?$AA?$AA@ 1003b144     LIBCMT:nlsdata.obj
 0002:0000314c       ??_C@_17FNLKOI@?$AAO?$AAc?$AAt?$AA?$AA@ 1003b14c     LIBCMT:nlsdata.obj
 0002:00003154       ??_C@_17BBDMLCIG@?$AAN?$AAo?$AAv?$AA?$AA@ 1003b154     LIBCMT:nlsdata.obj
 0002:0000315c       ??_C@_17EGKACKIF@?$AAD?$AAe?$AAc?$AA?$AA@ 1003b15c     LIBCMT:nlsdata.obj
 0002:00003164       ??_C@_1BA@EFMEIEBA@?$AAJ?$AAa?$AAn?$AAu?$AAa?$AAr?$AAy?$AA?$AA@ 1003b164     LIBCMT:nlsdata.obj
 0002:00003174       ??_C@_1BC@JGDDFFAM@?$AAF?$AAe?$AAb?$AAr?$AAu?$AAa?$AAr?$AAy?$AA?$AA@ 1003b174     LIBCMT:nlsdata.obj
 0002:00003188       ??_C@_1M@IKEENEDF@?$AAM?$AAa?$AAr?$AAc?$AAh?$AA?$AA@ 1003b188     LIBCMT:nlsdata.obj
 0002:00003194       ??_C@_1M@GJNLMHFD@?$AAA?$AAp?$AAr?$AAi?$AAl?$AA?$AA@ 1003b194     LIBCMT:nlsdata.obj
 0002:000031a0       ??_C@_19EPFLPGAP@?$AAJ?$AAu?$AAn?$AAe?$AA?$AA@ 1003b1a0     LIBCMT:nlsdata.obj
 0002:000031ac       ??_C@_19BIFMLPCD@?$AAJ?$AAu?$AAl?$AAy?$AA?$AA@ 1003b1ac     LIBCMT:nlsdata.obj
 0002:000031b8       ??_C@_1O@PAHLKOAC@?$AAA?$AAu?$AAg?$AAu?$AAs?$AAt?$AA?$AA@ 1003b1b8     LIBCMT:nlsdata.obj
 0002:000031c8       ??_C@_1BE@DKAAMBJL@?$AAS?$AAe?$AAp?$AAt?$AAe?$AAm?$AAb?$AAe?$AAr?$AA?$AA@ 1003b1c8     LIBCMT:nlsdata.obj
 0002:000031dc       ??_C@_1BA@EPANDLNG@?$AAO?$AAc?$AAt?$AAo?$AAb?$AAe?$AAr?$AA?$AA@ 1003b1dc     LIBCMT:nlsdata.obj
 0002:000031ec       ??_C@_1BC@BGLIFPF@?$AAN?$AAo?$AAv?$AAe?$AAm?$AAb?$AAe?$AAr?$AA?$AA@ 1003b1ec     LIBCMT:nlsdata.obj
 0002:00003200       ??_C@_1BC@FEMKIFH@?$AAD?$AAe?$AAc?$AAe?$AAm?$AAb?$AAe?$AAr?$AA?$AA@ 1003b200     LIBCMT:nlsdata.obj
 0002:00003214       ??_C@_15ODEHAHHF@?$AAA?$AAM?$AA?$AA@ 1003b214     LIBCMT:nlsdata.obj
 0002:0000321c       ??_C@_15CLMNNGEL@?$AAP?$AAM?$AA?$AA@ 1003b21c     LIBCMT:nlsdata.obj
 0002:00003224       ??_C@_1BC@IEBCMHCM@?$AAM?$AAM?$AA?1?$AAd?$AAd?$AA?1?$AAy?$AAy?$AA?$AA@ 1003b224     LIBCMT:nlsdata.obj
 0002:00003238       ??_C@_1CI@KNAKOEBC@?$AAd?$AAd?$AAd?$AAd?$AA?0?$AA?5?$AAM?$AAM?$AAM?$AAM?$AA?5?$AAd?$AAd?$AA?0?$AA?5?$AAy?$AAy?$AAy?$AAy?$AA?$AA@ 1003b238     LIBCMT:nlsdata.obj
 0002:00003260       ??_C@_1BC@GDGBMEMK@?$AAH?$AAH?$AA?3?$AAm?$AAm?$AA?3?$AAs?$AAs?$AA?$AA@ 1003b260     LIBCMT:nlsdata.obj
 0002:00003274       ??_C@_1M@BMHNFIME@?$AAe?$AAn?$AA?9?$AAU?$AAS?$AA?$AA@ 1003b274     LIBCMT:nlsdata.obj
 0002:00003280       ??_C@_06OJHGLDPL@?$CInull?$CJ?$AA@ 1003b280     LIBCMT:output.obj
 0002:00003288       ??_C@_1O@CEDCILHN@?$AA?$CI?$AAn?$AAu?$AAl?$AAl?$AA?$CJ?$AA?$AA@ 1003b288     LIBCMT:output.obj
 0002:00003298       ___lookuptable             1003b298     LIBCMT:output.obj
 0002:000032f4       __pDestructExceptionObject 1003b2f4     LIBCMT:frame.obj
 0002:000032fc       ??_7bad_exception@std@@6B@ 1003b2fc     LIBCMT:frame.obj
 0002:00003304       ??_C@_0O@DPKOEFFH@bad?5exception?$AA@ 1003b304     LIBCMT:frame.obj
 0002:00003318       ??_7exception@std@@6B@     1003b318     LIBCMT:stdexcpt.obj
 0002:00003320       ??_C@_0BC@EOODALEL@Unknown?5exception?$AA@ 1003b320     LIBCMT:stdexcpt.obj
 0002:00003338       ??_7bad_cast@std@@6B@      1003b338     LIBCMT:stdexcpt.obj
 0002:00003344       ??_7bad_typeid@std@@6B@    1003b344     LIBCMT:stdexcpt.obj
 0002:00003350       ??_7__non_rtti_object@std@@6B@ 1003b350     LIBCMT:stdexcpt.obj
 0002:00003358       ??_C@_03KHJOGHMM@exp?$AA@  1003b358     LIBCMT:fpexcept.obj
 0002:0000335c       ??_C@_03JGHBODFD@pow?$AA@  1003b35c     LIBCMT:fpexcept.obj
 0002:00003360       ??_C@_03MGHMBJCF@log?$AA@  1003b360     LIBCMT:fpexcept.obj
 0002:00003364       ??_C@_05HGHHAHAP@log10?$AA@ 1003b364     LIBCMT:fpexcept.obj
 0002:0000336c       ??_C@_04COOMCNPB@sinh?$AA@ 1003b36c     LIBCMT:fpexcept.obj
 0002:00003374       ??_C@_04HPJJNFIM@cosh?$AA@ 1003b374     LIBCMT:fpexcept.obj
 0002:0000337c       ??_C@_04FJHINJAO@tanh?$AA@ 1003b37c     LIBCMT:fpexcept.obj
 0002:00003384       ??_C@_04FIHNOPOL@asin?$AA@ 1003b384     LIBCMT:fpexcept.obj
 0002:0000338c       ??_C@_04PDIFKINK@acos?$AA@ 1003b38c     LIBCMT:fpexcept.obj
 0002:00003394       ??_C@_04MLLJIGOK@atan?$AA@ 1003b394     LIBCMT:fpexcept.obj
 0002:0000339c       ??_C@_05KNGEOGJB@atan2?$AA@ 1003b39c     LIBCMT:fpexcept.obj
 0002:000033a4       ??_C@_04EIAKFFMI@sqrt?$AA@ 1003b3a4     LIBCMT:fpexcept.obj
 0002:000033ac       ??_C@_03BLEJJJBH@sin?$AA@  1003b3ac     LIBCMT:fpexcept.obj
 0002:000033b0       ??_C@_03LALBNOCG@cos?$AA@  1003b3b0     LIBCMT:fpexcept.obj
 0002:000033b4       ??_C@_03IIINPABG@tan?$AA@  1003b3b4     LIBCMT:fpexcept.obj
 0002:000033b8       ??_C@_04GFPJNGEK@ceil?$AA@ 1003b3b8     LIBCMT:fpexcept.obj
 0002:000033c0       ??_C@_05PBJFFIGL@floor?$AA@ 1003b3c0     LIBCMT:fpexcept.obj
 0002:000033c8       ??_C@_04ODHECPBC@fabs?$AA@ 1003b3c8     LIBCMT:fpexcept.obj
 0002:000033d0       ??_C@_04EHEDPDJG@modf?$AA@ 1003b3d0     LIBCMT:fpexcept.obj
 0002:000033d8       ??_C@_05CEJMAHNP@ldexp?$AA@ 1003b3d8     LIBCMT:fpexcept.obj
 0002:000033e0       ??_C@_05KBKMEMPO@_cabs?$AA@ 1003b3e0     LIBCMT:fpexcept.obj
 0002:000033e8       ??_C@_06MEIMCGCF@_hypot?$AA@ 1003b3e8     LIBCMT:fpexcept.obj
 0002:000033f0       ??_C@_04KEPJIHGP@fmod?$AA@ 1003b3f0     LIBCMT:fpexcept.obj
 0002:000033f8       ??_C@_05GKKHEGJL@frexp?$AA@ 1003b3f8     LIBCMT:fpexcept.obj
 0002:00003400       ??_C@_03MJLDFKDL@_y0?$AA@  1003b400     LIBCMT:fpexcept.obj
 0002:00003404       ??_C@_03NAKIGLHK@_y1?$AA@  1003b404     LIBCMT:fpexcept.obj
 0002:00003408       ??_C@_03ONILCKOB@_yn?$AA@  1003b408     LIBCMT:fpexcept.obj
 0002:0000340c       ??_C@_05JGDBENOH@_logb?$AA@ 1003b40c     LIBCMT:fpexcept.obj
 0002:00003414       ??_C@_0L@KDOEJCKC@_nextafter?$AA@ 1003b414     LIBCMT:fpexcept.obj
 0002:00003420       ??_C@_05KLBDPFGC@e?$CL000?$AA@ 1003b420     LIBCMT:cvt.obj
 0002:00003448       __XcptActTab               1003b448     LIBCMT:winxfltr.obj
 0002:000034d8       __XcptActTabCount          1003b4d8     LIBCMT:winxfltr.obj
 0002:000034dc       __XcptActTabSize           1003b4dc     LIBCMT:winxfltr.obj
 0002:000034e0       __First_FPE_Indx           1003b4e0     LIBCMT:winxfltr.obj
 0002:000034e4       __Num_FPE                  1003b4e4     LIBCMT:winxfltr.obj
 0002:000034e8       ??_C@_1M@PBPMMENC@?$AAa?$AAm?$AA?1?$AAp?$AAm?$AA?$AA@ 1003b4e8     LIBCMT:wcsftime.obj
 0002:000034f4       ??_C@_17BLFJJHMM@?$AAa?$AA?1?$AAp?$AA?$AA@ 1003b4f4     LIBCMT:wcsftime.obj
 0002:000034fc       ___dnames                  1003b4fc     LIBCMT:timeset.obj
 0002:00003514       ___mnames                  1003b514     LIBCMT:timeset.obj
 0002:0000353c       ??_C@_02CLFPBFFP@TZ?$AA@   1003b53c     LIBCMT:tzset.obj
 0002:00003540       ??_C@_1BG@GOEBHBDC@?$AAU?$AAS?$AAE?$AAR?$AA3?$AA2?$AA?4?$AAD?$AAL?$AAL?$AA?$AA@ 1003b540     LIBCMT:crtmboxw.obj
 0002:00003558       ??_C@_0M@DLDCCGNP@MessageBoxW?$AA@ 1003b558     LIBCMT:crtmboxw.obj
 0002:00003564       ??_C@_0BA@HNOPNCHB@GetActiveWindow?$AA@ 1003b564     LIBCMT:crtmboxw.obj
 0002:00003574       ??_C@_0BD@HHGDFDBJ@GetLastActivePopup?$AA@ 1003b574     LIBCMT:crtmboxw.obj
 0002:00003588       ??_C@_0BK@DEKFELLI@GetUserObjectInformationW?$AA@ 1003b588     LIBCMT:crtmboxw.obj
 0002:000035a4       ??_C@_0BI@DFKBFLJE@GetProcessWindowStation?$AA@ 1003b5a4     LIBCMT:crtmboxw.obj
 0002:000035c0       _LcidToLocaleNameTable     1003b5c0     LIBCMT:winapinls.obj
 0002:00003ce0       _LocaleNameToIndexTable    1003bce0     LIBCMT:winapinls.obj
 0002:00004400       ??_C@_15EMKDOKLE@?$AAa?$AAr?$AA?$AA@ 1003c400     LIBCMT:winapinls.obj
 0002:00004408       ??_C@_15KNPADPLH@?$AAb?$AAg?$AA?$AA@ 1003c408     LIBCMT:winapinls.obj
 0002:00004410       ??_C@_15EDMHLDMO@?$AAc?$AAa?$AA?$AA@ 1003c410     LIBCMT:winapinls.obj
 0002:00004418       ??_C@_1O@BPEAJADD@?$AAz?$AAh?$AA?9?$AAC?$AAH?$AAS?$AA?$AA@ 1003c418     LIBCMT:winapinls.obj
 0002:00004428       ??_C@_15LJNHCMNK@?$AAc?$AAs?$AA?$AA@ 1003c428     LIBCMT:winapinls.obj
 0002:00004430       ??_C@_15FOMCIDHG@?$AAd?$AAa?$AA?$AA@ 1003c430     LIBCMT:winapinls.obj
 0002:00004438       ??_C@_15NBKABECB@?$AAd?$AAe?$AA?$AA@ 1003c438     LIBCMT:winapinls.obj
 0002:00004440       ??_C@_15GHPEIIAO@?$AAe?$AAl?$AA?$AA@ 1003c440     LIBCMT:winapinls.obj
 0002:00004448       ??_C@_15MNPNEAIF@?$AAe?$AAn?$AA?$AA@ 1003c448     LIBCMT:winapinls.obj
 0002:00004450       ??_C@_15GPIOMPMH@?$AAe?$AAs?$AA?$AA@ 1003c450     LIBCMT:winapinls.obj
 0002:00004458       ??_C@_15NGLOAKJC@?$AAf?$AAi?$AA?$AA@ 1003c458     LIBCMT:winapinls.obj
 0002:00004460       ??_C@_15FBKGNKAM@?$AAf?$AAr?$AA?$AA@ 1003c460     LIBCMT:winapinls.obj
 0002:00004468       ??_C@_15KGGCNEFK@?$AAh?$AAe?$AA?$AA@ 1003c468     LIBCMT:winapinls.obj
 0002:00004470       ??_C@_15PGHLIDMF@?$AAh?$AAu?$AA?$AA@ 1003c470     LIBCMT:winapinls.obj
 0002:00004478       ??_C@_15BIEMAPLM@?$AAi?$AAs?$AA?$AA@ 1003c478     LIBCMT:winapinls.obj
 0002:00004480       ??_C@_15IFJLDHAF@?$AAi?$AAt?$AA?$AA@ 1003c480     LIBCMT:winapinls.obj
 0002:00004488       ??_C@_15GEMIOCAG@?$AAj?$AAa?$AA?$AA@ 1003c488     LIBCMT:winapinls.obj
 0002:00004490       ??_C@_15EPELEGJA@?$AAk?$AAo?$AA?$AA@ 1003c490     LIBCMT:winapinls.obj
 0002:00004498       ??_C@_15NDDHIMN@?$AAn?$AAl?$AA?$AA@ 1003c498     LIBCMT:winapinls.obj
 0002:000044a0       ??_C@_15BPIGNHCD@?$AAn?$AAo?$AA?$AA@ 1003c4a0     LIBCMT:winapinls.obj
 0002:000044a8       ??_C@_15DEOPBLCG@?$AAp?$AAl?$AA?$AA@ 1003c4a8     LIBCMT:winapinls.obj
 0002:000044b0       ??_C@_15KBECGEFG@?$AAp?$AAt?$AA?$AA@ 1003c4b0     LIBCMT:winapinls.obj
 0002:000044b8       ??_C@_15GLJCBFMD@?$AAr?$AAo?$AA?$AA@ 1003c4b8     LIBCMT:winapinls.obj
 0002:000044c0       ??_C@_15FEDGKCDI@?$AAr?$AAu?$AA?$AA@ 1003c4c0     LIBCMT:winapinls.obj
 0002:000044c8       ??_C@_15GLKMLLHM@?$AAh?$AAr?$AA?$AA@ 1003c4c8     LIBCMT:winapinls.obj
 0002:000044d0       ??_C@_15CPKMFBDB@?$AAs?$AAk?$AA?$AA@ 1003c4d0     LIBCMT:winapinls.obj
 0002:000044d8       ??_C@_15BAAIOGMK@?$AAs?$AAq?$AA?$AA@ 1003c4d8     LIBCMT:winapinls.obj
 0002:000044e0       ??_C@_15INNPNOHD@?$AAs?$AAv?$AA?$AA@ 1003c4e0     LIBCMT:winapinls.obj
 0002:000044e8       ??_C@_15CABMMOGH@?$AAt?$AAh?$AA?$AA@ 1003c4e8     LIBCMT:winapinls.obj
 0002:000044f0       ??_C@_15BPLIHJJM@?$AAt?$AAr?$AA?$AA@ 1003c4f0     LIBCMT:winapinls.obj
 0002:000044f8       ??_C@_15NEOEKKDJ@?$AAu?$AAr?$AA?$AA@ 1003c4f8     LIBCMT:winapinls.obj
 0002:00004500       ??_C@_15NFICGAJK@?$AAi?$AAd?$AA?$AA@ 1003c500     LIBCMT:winapinls.obj
 0002:00004508       ??_C@_15PJPFLCCM@?$AAu?$AAk?$AA?$AA@ 1003c508     LIBCMT:winapinls.obj
 0002:00004510       ??_C@_15HPJPHDM@?$AAb?$AAe?$AA?$AA@ 1003c510     LIBCMT:winapinls.obj
 0002:00004518       ??_C@_15LCHLGJII@?$AAs?$AAl?$AA?$AA@ 1003c518     LIBCMT:winapinls.obj
 0002:00004520       ??_C@_15PCFJPHHO@?$AAe?$AAt?$AA?$AA@ 1003c520     LIBCMT:winapinls.obj
 0002:00004528       ??_C@_15HPFPGODN@?$AAl?$AAv?$AA?$AA@ 1003c528     LIBCMT:winapinls.obj
 0002:00004530       ??_C@_15NFFGKGLG@?$AAl?$AAt?$AA?$AA@ 1003c530     LIBCMT:winapinls.obj
 0002:00004538       ??_C@_15BDAKCCHN@?$AAf?$AAa?$AA?$AA@ 1003c538     LIBCMT:winapinls.obj
 0002:00004540       ??_C@_15NFGIAIAJ@?$AAv?$AAi?$AA?$AA@ 1003c540     LIBCMT:winapinls.obj
 0002:00004548       ??_C@_15LMKNDMHN@?$AAh?$AAy?$AA?$AA@ 1003c548     LIBCMT:winapinls.obj
 0002:00004550       ??_C@_15IJBHMCFL@?$AAa?$AAz?$AA?$AA@ 1003c550     LIBCMT:winapinls.obj
 0002:00004558       ??_C@_15EKOFJABL@?$AAe?$AAu?$AA?$AA@ 1003c558     LIBCMT:winapinls.obj
 0002:00004560       ??_C@_15BGHADCNK@?$AAm?$AAk?$AA?$AA@ 1003c560     LIBCMT:winapinls.obj
 0002:00004568       ??_C@_15JDNICKHM@?$AAa?$AAf?$AA?$AA@ 1003c568     LIBCMT:winapinls.obj
 0002:00004570       ??_C@_15KPJEDBKD@?$AAk?$AAa?$AA?$AA@ 1003c570     LIBCMT:winapinls.obj
 0002:00004578       ??_C@_15PDNFFFEO@?$AAf?$AAo?$AA?$AA@ 1003c578     LIBCMT:winapinls.obj
 0002:00004580       ??_C@_15OMLEGLOC@?$AAh?$AAi?$AA?$AA@ 1003c580     LIBCMT:winapinls.obj
 0002:00004588       ??_C@_15IDNNENKK@?$AAm?$AAs?$AA?$AA@ 1003c588     LIBCMT:winapinls.obj
 0002:00004590       ??_C@_15MACJNBMH@?$AAk?$AAk?$AA?$AA@ 1003c590     LIBCMT:winapinls.obj
 0002:00004598       ??_C@_15DKDJEOND@?$AAk?$AAy?$AA?$AA@ 1003c598     LIBCMT:winapinls.obj
 0002:000045a0       ??_C@_15DFGDLJBG@?$AAs?$AAw?$AA?$AA@ 1003c5a0     LIBCMT:winapinls.obj
 0002:000045a8       ??_C@_15BBFAICNG@?$AAu?$AAz?$AA?$AA@ 1003c5a8     LIBCMT:winapinls.obj
 0002:000045b0       ??_C@_15DKNDCGEA@?$AAt?$AAt?$AA?$AA@ 1003c5b0     LIBCMT:winapinls.obj
 0002:000045b8       ??_C@_15MGIFMDPL@?$AAp?$AAa?$AA?$AA@ 1003c5b8     LIBCMT:winapinls.obj
 0002:000045c0       ??_C@_15HCNDBBA@?$AAg?$AAu?$AA?$AA@ 1003c5c0     LIBCMT:winapinls.obj
 0002:000045c8       ??_C@_15FNBEIBON@?$AAt?$AAa?$AA?$AA@ 1003c5c8     LIBCMT:winapinls.obj
 0002:000045d0       ??_C@_15NCHGBGLK@?$AAt?$AAe?$AA?$AA@ 1003c5d0     LIBCMT:winapinls.obj
 0002:000045d8       ??_C@_15PHPHCBPF@?$AAk?$AAn?$AA?$AA@ 1003c5d8     LIBCMT:winapinls.obj
 0002:000045e0       ??_C@_15DLGBCKMP@?$AAm?$AAr?$AA?$AA@ 1003c5e0     LIBCMT:winapinls.obj
 0002:000045e8       ??_C@_15EABBLBFF@?$AAs?$AAa?$AA?$AA@ 1003c5e8     LIBCMT:winapinls.obj
 0002:000045f0       ??_C@_15CBKOMCOI@?$AAm?$AAn?$AA?$AA@ 1003c5f0     LIBCMT:winapinls.obj
 0002:000045f8       ??_C@_15CKDMCJAF@?$AAg?$AAl?$AA?$AA@ 1003c5f8     LIBCMT:winapinls.obj
 0002:00004600       ??_C@_17CNJFBPG@?$AAk?$AAo?$AAk?$AA?$AA@ 1003c600     LIBCMT:winapinls.obj
 0002:00004608       ??_C@_17FFBJICPL@?$AAs?$AAy?$AAr?$AA?$AA@ 1003c608     LIBCMT:winapinls.obj
 0002:00004610       ??_C@_17KPNDCPAF@?$AAd?$AAi?$AAv?$AA?$AA@ 1003c610     LIBCMT:winapinls.obj
 0002:00004618       ??_C@_1M@OKAHONE@?$AAa?$AAr?$AA?9?$AAS?$AAA?$AA?$AA@ 1003c618     LIBCMT:winapinls.obj
 0002:00004624       ??_C@_1M@FFFIGIGK@?$AAb?$AAg?$AA?9?$AAB?$AAG?$AA?$AA@ 1003c624     LIBCMT:winapinls.obj
 0002:00004630       ??_C@_1M@BJNKEDC@?$AAc?$AAa?$AA?9?$AAE?$AAS?$AA?$AA@ 1003c630     LIBCMT:winapinls.obj
 0002:0000463c       ??_C@_1M@IJJHFJHA@?$AAc?$AAs?$AA?9?$AAC?$AAZ?$AA?$AA@ 1003c63c     LIBCMT:winapinls.obj
 0002:00004648       ??_C@_1M@CLPEOBGI@?$AAd?$AAa?$AA?9?$AAD?$AAK?$AA?$AA@ 1003c648     LIBCMT:winapinls.obj
 0002:00004654       ??_C@_1M@MCMADGCB@?$AAd?$AAe?$AA?9?$AAD?$AAE?$AA?$AA@ 1003c654     LIBCMT:winapinls.obj
 0002:00004660       ??_C@_1M@OOCKEMAM@?$AAe?$AAl?$AA?9?$AAG?$AAR?$AA?$AA@ 1003c660     LIBCMT:winapinls.obj
 0002:0000466c       ??_C@_1M@DDNJFGID@?$AAf?$AAi?$AA?9?$AAF?$AAI?$AA?$AA@ 1003c66c     LIBCMT:winapinls.obj
 0002:00004678       ??_C@_1M@GLIPPMAC@?$AAf?$AAr?$AA?9?$AAF?$AAR?$AA?$AA@ 1003c678     LIBCMT:winapinls.obj
 0002:00004684       ??_C@_1M@GFMCHPE@?$AAh?$AAe?$AA?9?$AAI?$AAL?$AA?$AA@ 1003c684     LIBCMT:winapinls.obj
 0002:00004690       ??_C@_1M@MHLPGNKM@?$AAh?$AAu?$AA?9?$AAH?$AAU?$AA?$AA@ 1003c690     LIBCMT:winapinls.obj
 0002:0000469c       ??_C@_1M@LPDDNNPN@?$AAi?$AAs?$AA?9?$AAI?$AAS?$AA?$AA@ 1003c69c     LIBCMT:winapinls.obj
 0002:000046a8       ??_C@_1M@MADIPODN@?$AAi?$AAt?$AA?9?$AAI?$AAT?$AA?$AA@ 1003c6a8     LIBCMT:winapinls.obj
 0002:000046b4       ??_C@_1M@IHBJJGG@?$AAn?$AAl?$AA?9?$AAN?$AAL?$AA?$AA@ 1003c6b4     LIBCMT:winapinls.obj
 0002:000046c0       ??_C@_1M@EANAGDL@?$AAn?$AAb?$AA?9?$AAN?$AAO?$AA?$AA@ 1003c6c0     LIBCMT:winapinls.obj
 0002:000046cc       ??_C@_1M@NEIEMEGP@?$AAp?$AAl?$AA?9?$AAP?$AAL?$AA?$AA@ 1003c6cc     LIBCMT:winapinls.obj
 0002:000046d8       ??_C@_1M@BOCFIGEP@?$AAp?$AAt?$AA?9?$AAB?$AAR?$AA?$AA@ 1003c6d8     LIBCMT:winapinls.obj
 0002:000046e4       ??_C@_1M@IMPFOPBG@?$AAr?$AAo?$AA?9?$AAR?$AAO?$AA?$AA@ 1003c6e4     LIBCMT:winapinls.obj
 0002:000046f0       ??_C@_1M@IDNNEJMM@?$AAr?$AAu?$AA?9?$AAR?$AAU?$AA?$AA@ 1003c6f0     LIBCMT:winapinls.obj
 0002:000046fc       ??_C@_1M@LILEEOGM@?$AAh?$AAr?$AA?9?$AAH?$AAR?$AA?$AA@ 1003c6fc     LIBCMT:winapinls.obj
 0002:00004708       ??_C@_1M@FKIFEHPB@?$AAs?$AAk?$AA?9?$AAS?$AAK?$AA?$AA@ 1003c708     LIBCMT:winapinls.obj
 0002:00004714       ??_C@_1M@LJMAMNPJ@?$AAs?$AAq?$AA?9?$AAA?$AAL?$AA?$AA@ 1003c714     LIBCMT:winapinls.obj
 0002:00004720       ??_C@_1M@GIAKDKJK@?$AAs?$AAv?$AA?9?$AAS?$AAE?$AA?$AA@ 1003c720     LIBCMT:winapinls.obj
 0002:0000472c       ??_C@_1M@MKJKIKCL@?$AAt?$AAh?$AA?9?$AAT?$AAH?$AA?$AA@ 1003c72c     LIBCMT:winapinls.obj
 0002:00004738       ??_C@_1M@MFLCCMPB@?$AAt?$AAr?$AA?9?$AAT?$AAR?$AA?$AA@ 1003c738     LIBCMT:winapinls.obj
 0002:00004744       ??_C@_1M@OIJHDKJN@?$AAu?$AAr?$AA?9?$AAP?$AAK?$AA?$AA@ 1003c744     LIBCMT:winapinls.obj
 0002:00004750       ??_C@_1M@LHIPCIEK@?$AAi?$AAd?$AA?9?$AAI?$AAD?$AA?$AA@ 1003c750     LIBCMT:winapinls.obj
 0002:0000475c       ??_C@_1M@MFMOBGI@?$AAu?$AAk?$AA?9?$AAU?$AAA?$AA?$AA@ 1003c75c     LIBCMT:winapinls.obj
 0002:00004768       ??_C@_1M@OBGLJIPL@?$AAb?$AAe?$AA?9?$AAB?$AAY?$AA?$AA@ 1003c768     LIBCMT:winapinls.obj
 0002:00004774       ??_C@_1M@BCFAJEAD@?$AAs?$AAl?$AA?9?$AAS?$AAI?$AA?$AA@ 1003c774     LIBCMT:winapinls.obj
 0002:00004780       ??_C@_1M@FKFFEDDN@?$AAe?$AAt?$AA?9?$AAE?$AAE?$AA?$AA@ 1003c780     LIBCMT:winapinls.obj
 0002:0000478c       ??_C@_1M@KGKKAACI@?$AAl?$AAv?$AA?9?$AAL?$AAV?$AA?$AA@ 1003c78c     LIBCMT:winapinls.obj
 0002:00004798       ??_C@_1M@IFGBIJO@?$AAl?$AAt?$AA?9?$AAL?$AAT?$AA?$AA@ 1003c798     LIBCMT:winapinls.obj
 0002:000047a4       ??_C@_1M@FGEAHEDM@?$AAf?$AAa?$AA?9?$AAI?$AAR?$AA?$AA@ 1003c7a4     LIBCMT:winapinls.obj
 0002:000047b0       ??_C@_1M@KBMAIBFN@?$AAv?$AAi?$AA?9?$AAV?$AAN?$AA?$AA@ 1003c7b0     LIBCMT:winapinls.obj
 0002:000047bc       ??_C@_1M@GPCBKDJK@?$AAh?$AAy?$AA?9?$AAA?$AAM?$AA?$AA@ 1003c7bc     LIBCMT:winapinls.obj
 0002:000047c8       ??_C@_1BG@BECMDDJB@?$AAa?$AAz?$AA?9?$AAA?$AAZ?$AA?9?$AAL?$AAa?$AAt?$AAn?$AA?$AA@ 1003c7c8     LIBCMT:winapinls.obj
 0002:000047e0       ??_C@_1M@MAOFCAEA@?$AAe?$AAu?$AA?9?$AAE?$AAS?$AA?$AA@ 1003c7e0     LIBCMT:winapinls.obj
 0002:000047ec       ??_C@_1M@IGHABKPI@?$AAm?$AAk?$AA?9?$AAM?$AAK?$AA?$AA@ 1003c7ec     LIBCMT:winapinls.obj
 0002:000047f8       ??_C@_1M@IAIGNEJG@?$AAt?$AAn?$AA?9?$AAZ?$AAA?$AA?$AA@ 1003c7f8     LIBCMT:winapinls.obj
 0002:00004804       ??_C@_1M@IIJCOJFA@?$AAx?$AAh?$AA?9?$AAZ?$AAA?$AA?$AA@ 1003c804     LIBCMT:winapinls.obj
 0002:00004810       ??_C@_1M@LGPJHNJH@?$AAz?$AAu?$AA?9?$AAZ?$AAA?$AA?$AA@ 1003c810     LIBCMT:winapinls.obj
 0002:0000481c       ??_C@_1M@HOKAOIO@?$AAa?$AAf?$AA?9?$AAZ?$AAA?$AA?$AA@ 1003c81c     LIBCMT:winapinls.obj
 0002:00004828       ??_C@_1M@DPCLHLIE@?$AAk?$AAa?$AA?9?$AAG?$AAE?$AA?$AA@ 1003c828     LIBCMT:winapinls.obj
 0002:00004834       ??_C@_1M@BLKMHJBI@?$AAf?$AAo?$AA?9?$AAF?$AAO?$AA?$AA@ 1003c834     LIBCMT:winapinls.obj
 0002:00004840       ??_C@_1M@LGGJAPPB@?$AAh?$AAi?$AA?9?$AAI?$AAN?$AA?$AA@ 1003c840     LIBCMT:winapinls.obj
 0002:0000484c       ??_C@_1M@FIKPIHFE@?$AAm?$AAt?$AA?9?$AAM?$AAT?$AA?$AA@ 1003c84c     LIBCMT:winapinls.obj
 0002:00004858       ??_C@_1M@HEGGPBFA@?$AAs?$AAe?$AA?9?$AAN?$AAO?$AA?$AA@ 1003c858     LIBCMT:winapinls.obj
 0002:00004864       ??_C@_1M@EIBJEEPA@?$AAm?$AAs?$AA?9?$AAM?$AAY?$AA?$AA@ 1003c864     LIBCMT:winapinls.obj
 0002:00004870       ??_C@_1M@FHLBGMPP@?$AAk?$AAk?$AA?9?$AAK?$AAZ?$AA?$AA@ 1003c870     LIBCMT:winapinls.obj
 0002:0000487c       ??_C@_1M@NGJJLCGI@?$AAk?$AAy?$AA?9?$AAK?$AAG?$AA?$AA@ 1003c87c     LIBCMT:winapinls.obj
 0002:00004888       ??_C@_1M@GIENNBFC@?$AAs?$AAw?$AA?9?$AAK?$AAE?$AA?$AA@ 1003c888     LIBCMT:winapinls.obj
 0002:00004894       ??_C@_1BG@NDGMJIMJ@?$AAu?$AAz?$AA?9?$AAU?$AAZ?$AA?9?$AAL?$AAa?$AAt?$AAn?$AA?$AA@ 1003c894     LIBCMT:winapinls.obj
 0002:000048ac       ??_C@_1M@IDCCIHBC@?$AAt?$AAt?$AA?9?$AAR?$AAU?$AA?$AA@ 1003c8ac     LIBCMT:winapinls.obj
 0002:000048b8       ??_C@_1M@LOICPMOJ@?$AAb?$AAn?$AA?9?$AAI?$AAN?$AA?$AA@ 1003c8b8     LIBCMT:winapinls.obj
 0002:000048c4       ??_C@_1M@KPKKNEAH@?$AAp?$AAa?$AA?9?$AAI?$AAN?$AA?$AA@ 1003c8c4     LIBCMT:winapinls.obj
 0002:000048d0       ??_C@_1M@PJGPPBOG@?$AAg?$AAu?$AA?9?$AAI?$AAN?$AA?$AA@ 1003c8d0     LIBCMT:winapinls.obj
 0002:000048dc       ??_C@_1M@KMKMOPHI@?$AAt?$AAa?$AA?9?$AAI?$AAN?$AA?$AA@ 1003c8dc     LIBCMT:winapinls.obj
 0002:000048e8       ??_C@_1M@KFEHEPAC@?$AAt?$AAe?$AA?9?$AAI?$AAN?$AA?$AA@ 1003c8e8     LIBCMT:winapinls.obj
 0002:000048f4       ??_C@_1M@CDCLMGHI@?$AAk?$AAn?$AA?9?$AAI?$AAN?$AA?$AA@ 1003c8f4     LIBCMT:winapinls.obj
 0002:00004900       ??_C@_1M@MIODLDKF@?$AAm?$AAl?$AA?9?$AAI?$AAN?$AA?$AA@ 1003c900     LIBCMT:winapinls.obj
 0002:0000490c       ??_C@_1M@PBIEACPO@?$AAm?$AAr?$AA?9?$AAI?$AAN?$AA?$AA@ 1003c90c     LIBCMT:winapinls.obj
 0002:00004918       ??_C@_1M@NIDEAGPH@?$AAs?$AAa?$AA?9?$AAI?$AAN?$AA?$AA@ 1003c918     LIBCMT:winapinls.obj
 0002:00004924       ??_C@_1M@FHIHCBIO@?$AAm?$AAn?$AA?9?$AAM?$AAN?$AA?$AA@ 1003c924     LIBCMT:winapinls.obj
 0002:00004930       ??_C@_1M@JAIJPENP@?$AAc?$AAy?$AA?9?$AAG?$AAB?$AA?$AA@ 1003c930     LIBCMT:winapinls.obj
 0002:0000493c       ??_C@_1M@PHGFBEPN@?$AAg?$AAl?$AA?9?$AAE?$AAS?$AA?$AA@ 1003c93c     LIBCMT:winapinls.obj
 0002:00004948       ??_C@_1O@KPIPDNCP@?$AAk?$AAo?$AAk?$AA?9?$AAI?$AAN?$AA?$AA@ 1003c948     LIBCMT:winapinls.obj
 0002:00004958       ??_C@_1O@KNHJLDJA@?$AAs?$AAy?$AAr?$AA?9?$AAS?$AAY?$AA?$AA@ 1003c958     LIBCMT:winapinls.obj
 0002:00004968       ??_C@_1O@MKEKBLAH@?$AAd?$AAi?$AAv?$AA?9?$AAM?$AAV?$AA?$AA@ 1003c968     LIBCMT:winapinls.obj
 0002:00004978       ??_C@_1O@OHDCKDDF@?$AAq?$AAu?$AAz?$AA?9?$AAB?$AAO?$AA?$AA@ 1003c978     LIBCMT:winapinls.obj
 0002:00004988       ??_C@_1M@LEPJNLFD@?$AAn?$AAs?$AA?9?$AAZ?$AAA?$AA?$AA@ 1003c988     LIBCMT:winapinls.obj
 0002:00004994       ??_C@_1M@OMLEIIJB@?$AAm?$AAi?$AA?9?$AAN?$AAZ?$AA?$AA@ 1003c994     LIBCMT:winapinls.obj
 0002:000049a0       ??_C@_1M@PMPEAILG@?$AAa?$AAr?$AA?9?$AAI?$AAQ?$AA?$AA@ 1003c9a0     LIBCMT:winapinls.obj
 0002:000049ac       ??_C@_1M@CNKPNOEE@?$AAd?$AAe?$AA?9?$AAC?$AAH?$AA?$AA@ 1003c9ac     LIBCMT:winapinls.obj
 0002:000049b8       ??_C@_1M@LKMGMLKO@?$AAe?$AAn?$AA?9?$AAG?$AAB?$AA?$AA@ 1003c9b8     LIBCMT:winapinls.obj
 0002:000049c4       ??_C@_1M@PGKJFFGL@?$AAe?$AAs?$AA?9?$AAM?$AAX?$AA?$AA@ 1003c9c4     LIBCMT:winapinls.obj
 0002:000049d0       ??_C@_1M@DNNANBDC@?$AAf?$AAr?$AA?9?$AAB?$AAE?$AA?$AA@ 1003c9d0     LIBCMT:winapinls.obj
 0002:000049dc       ??_C@_1M@HLGMDFHM@?$AAi?$AAt?$AA?9?$AAC?$AAH?$AA?$AA@ 1003c9dc     LIBCMT:winapinls.obj
 0002:000049e8       ??_C@_1M@CLLBGJH@?$AAn?$AAl?$AA?9?$AAB?$AAE?$AA?$AA@ 1003c9e8     LIBCMT:winapinls.obj
 0002:000049f4       ??_C@_1M@BODBOGLF@?$AAn?$AAn?$AA?9?$AAN?$AAO?$AA?$AA@ 1003c9f4     LIBCMT:winapinls.obj
 0002:00004a00       ??_C@_1M@HFFAHKAD@?$AAp?$AAt?$AA?9?$AAP?$AAT?$AA?$AA@ 1003ca00     LIBCMT:winapinls.obj
 0002:00004a0c       ??_C@_1BG@LNOAKHIE@?$AAs?$AAr?$AA?9?$AAS?$AAP?$AA?9?$AAL?$AAa?$AAt?$AAn?$AA?$AA@ 1003ca0c     LIBCMT:winapinls.obj
 0002:00004a24       ??_C@_1M@HBMHBGAK@?$AAs?$AAv?$AA?9?$AAF?$AAI?$AA?$AA@ 1003ca24     LIBCMT:winapinls.obj
 0002:00004a30       ??_C@_1BG@DGCJGJBE@?$AAa?$AAz?$AA?9?$AAA?$AAZ?$AA?9?$AAC?$AAy?$AAr?$AAl?$AA?$AA@ 1003ca30     LIBCMT:winapinls.obj
 0002:00004a48       ??_C@_1M@KEJDAAHB@?$AAs?$AAe?$AA?9?$AAS?$AAE?$AA?$AA@ 1003ca48     LIBCMT:winapinls.obj
 0002:00004a54       ??_C@_1M@HEIBJJAD@?$AAm?$AAs?$AA?9?$AAB?$AAN?$AA?$AA@ 1003ca54     LIBCMT:winapinls.obj
 0002:00004a60       ??_C@_1BG@PBGJMCEM@?$AAu?$AAz?$AA?9?$AAU?$AAZ?$AA?9?$AAC?$AAy?$AAr?$AAl?$AA?$AA@ 1003ca60     LIBCMT:winapinls.obj
 0002:00004a78       ??_C@_1O@LAOBCMDF@?$AAq?$AAu?$AAz?$AA?9?$AAE?$AAC?$AA?$AA@ 1003ca78     LIBCMT:winapinls.obj
 0002:00004a88       ??_C@_1M@POEEMAIO@?$AAa?$AAr?$AA?9?$AAE?$AAG?$AA?$AA@ 1003ca88     LIBCMT:winapinls.obj
 0002:00004a94       ??_C@_1M@EFAKDEDL@?$AAz?$AAh?$AA?9?$AAH?$AAK?$AA?$AA@ 1003ca94     LIBCMT:winapinls.obj
 0002:00004aa0       ??_C@_1M@HKKIJHGI@?$AAd?$AAe?$AA?9?$AAA?$AAT?$AA?$AA@ 1003caa0     LIBCMT:winapinls.obj
 0002:00004aac       ??_C@_1M@KBFBEHJF@?$AAe?$AAn?$AA?9?$AAA?$AAU?$AA?$AA@ 1003caac     LIBCMT:winapinls.obj
 0002:00004ab8       ??_C@_1M@MNPLFAAH@?$AAe?$AAs?$AA?9?$AAE?$AAS?$AA?$AA@ 1003cab8     LIBCMT:winapinls.obj
 0002:00004ac4       ??_C@_1M@HJOOJFMA@?$AAf?$AAr?$AA?9?$AAC?$AAA?$AA?$AA@ 1003cac4     LIBCMT:winapinls.obj
 0002:00004ad0       ??_C@_1BG@JPOFPNAB@?$AAs?$AAr?$AA?9?$AAS?$AAP?$AA?9?$AAC?$AAy?$AAr?$AAl?$AA?$AA@ 1003cad0     LIBCMT:winapinls.obj
 0002:00004ae8       ??_C@_1M@LNFOCMOB@?$AAs?$AAe?$AA?9?$AAF?$AAI?$AA?$AA@ 1003cae8     LIBCMT:winapinls.obj
 0002:00004af4       ??_C@_1O@MGJBOAMB@?$AAq?$AAu?$AAz?$AA?9?$AAP?$AAE?$AA?$AA@ 1003caf4     LIBCMT:winapinls.obj
 0002:00004b04       ??_C@_1M@GJINLBOK@?$AAa?$AAr?$AA?9?$AAL?$AAY?$AA?$AA@ 1003cb04     LIBCMT:winapinls.obj
 0002:00004b10       ??_C@_1M@GGMNHJNL@?$AAz?$AAh?$AA?9?$AAS?$AAG?$AA?$AA@ 1003cb10     LIBCMT:winapinls.obj
 0002:00004b1c       ??_C@_1M@HOIKODND@?$AAd?$AAe?$AA?9?$AAL?$AAU?$AA?$AA@ 1003cb1c     LIBCMT:winapinls.obj
 0002:00004b28       ??_C@_1M@DDOCCGFG@?$AAe?$AAn?$AA?9?$AAC?$AAA?$AA?$AA@ 1003cb28     LIBCMT:winapinls.obj
 0002:00004b34       ??_C@_1M@BNOEMJLF@?$AAe?$AAs?$AA?9?$AAG?$AAT?$AA?$AA@ 1003cb34     LIBCMT:winapinls.obj
 0002:00004b40       ??_C@_1M@EOGNKEK@?$AAf?$AAr?$AA?9?$AAC?$AAH?$AA?$AA@ 1003cb40     LIBCMT:winapinls.obj
 0002:00004b4c       ??_C@_1M@FLIDJFHL@?$AAh?$AAr?$AA?9?$AAB?$AAA?$AA?$AA@ 1003cb4c     LIBCMT:winapinls.obj
 0002:00004b58       ??_C@_1O@FMCELNAJ@?$AAs?$AAm?$AAj?$AA?9?$AAN?$AAO?$AA?$AA@ 1003cb58     LIBCMT:winapinls.obj
 0002:00004b68       ??_C@_1M@JHGLJMGJ@?$AAa?$AAr?$AA?9?$AAD?$AAZ?$AA?$AA@ 1003cb68     LIBCMT:winapinls.obj
 0002:00004b74       ??_C@_1M@JKKFDCNP@?$AAz?$AAh?$AA?9?$AAM?$AAO?$AA?$AA@ 1003cb74     LIBCMT:winapinls.obj
 0002:00004b80       ??_C@_1M@GEEFALPE@?$AAd?$AAe?$AA?9?$AAL?$AAI?$AA?$AA@ 1003cb80     LIBCMT:winapinls.obj
 0002:00004b8c       ??_C@_1M@IGEOFBG@?$AAe?$AAn?$AA?9?$AAN?$AAZ?$AA?$AA@ 1003cb8c     LIBCMT:winapinls.obj
 0002:00004b98       ??_C@_1M@KDBONEHP@?$AAe?$AAs?$AA?9?$AAC?$AAR?$AA?$AA@ 1003cb98     LIBCMT:winapinls.obj
 0002:00004ba4       ??_C@_1M@FHMDOHNN@?$AAf?$AAr?$AA?9?$AAL?$AAU?$AA?$AA@ 1003cba4     LIBCMT:winapinls.obj
 0002:00004bb0       ??_C@_1BG@NFKKMAFG@?$AAb?$AAs?$AA?9?$AAB?$AAA?$AA?9?$AAL?$AAa?$AAt?$AAn?$AA?$AA@ 1003cbb0     LIBCMT:winapinls.obj
 0002:00004bc8       ??_C@_1O@IMNBEMCI@?$AAs?$AAm?$AAj?$AA?9?$AAS?$AAE?$AA?$AA@ 1003cbc8     LIBCMT:winapinls.obj
 0002:00004bd8       ??_C@_1M@DHHMBNDP@?$AAa?$AAr?$AA?9?$AAM?$AAA?$AA?$AA@ 1003cbd8     LIBCMT:winapinls.obj
 0002:00004be4       ??_C@_1M@BNBLJCGH@?$AAe?$AAn?$AA?9?$AAI?$AAE?$AA?$AA@ 1003cbe4     LIBCMT:winapinls.obj
 0002:00004bf0       ??_C@_1M@GEPAFMDL@?$AAe?$AAs?$AA?9?$AAP?$AAA?$AA?$AA@ 1003cbf0     LIBCMT:winapinls.obj
 0002:00004bfc       ??_C@_1M@OJONDMDL@?$AAf?$AAr?$AA?9?$AAM?$AAC?$AA?$AA@ 1003cbfc     LIBCMT:winapinls.obj
 0002:00004c08       ??_C@_1BG@OBCNFJB@?$AAs?$AAr?$AA?9?$AAB?$AAA?$AA?9?$AAL?$AAa?$AAt?$AAn?$AA?$AA@ 1003cc08     LIBCMT:winapinls.obj
 0002:00004c20       ??_C@_1O@KEMEEGPO@?$AAs?$AAm?$AAa?$AA?9?$AAN?$AAO?$AA?$AA@ 1003cc20     LIBCMT:winapinls.obj
 0002:00004c30       ??_C@_1M@ELMGFODK@?$AAa?$AAr?$AA?9?$AAT?$AAN?$AA?$AA@ 1003cc30     LIBCMT:winapinls.obj
 0002:00004c3c       ??_C@_1M@BHDLHFAF@?$AAe?$AAn?$AA?9?$AAZ?$AAA?$AA?$AA@ 1003cc3c     LIBCMT:winapinls.obj
 0002:00004c48       ??_C@_1M@BMGIGLIF@?$AAe?$AAs?$AA?9?$AAD?$AAO?$AA?$AA@ 1003cc48     LIBCMT:winapinls.obj
 0002:00004c54       ??_C@_1BG@CMBHIPBE@?$AAs?$AAr?$AA?9?$AAB?$AAA?$AA?9?$AAC?$AAy?$AAr?$AAl?$AA?$AA@ 1003cc54     LIBCMT:winapinls.obj
 0002:00004c6c       ??_C@_1O@HEDBLHNP@?$AAs?$AAm?$AAa?$AA?9?$AAS?$AAE?$AA?$AA@ 1003cc6c     LIBCMT:winapinls.obj
 0002:00004c7c       ??_C@_1M@DAGCADIM@?$AAa?$AAr?$AA?9?$AAO?$AAM?$AA?$AA@ 1003cc7c     LIBCMT:winapinls.obj
 0002:00004c88       ??_C@_1M@FODLMICG@?$AAe?$AAn?$AA?9?$AAJ?$AAM?$AA?$AA@ 1003cc88     LIBCMT:winapinls.obj
 0002:00004c94       ??_C@_1M@DNMLCIHB@?$AAe?$AAs?$AA?9?$AAV?$AAE?$AA?$AA@ 1003cc94     LIBCMT:winapinls.obj
 0002:00004ca0       ??_C@_1O@EOKHMKJK@?$AAs?$AAm?$AAs?$AA?9?$AAF?$AAI?$AA?$AA@ 1003cca0     LIBCMT:winapinls.obj
 0002:00004cb0       ??_C@_1M@CAFJMKOF@?$AAa?$AAr?$AA?9?$AAY?$AAE?$AA?$AA@ 1003ccb0     LIBCMT:winapinls.obj
 0002:00004cbc       ??_C@_1M@CBFHIJLI@?$AAe?$AAn?$AA?9?$AAC?$AAB?$AA?$AA@ 1003ccbc     LIBCMT:winapinls.obj
 0002:00004cc8       ??_C@_1M@BGNFLDN@?$AAe?$AAs?$AA?9?$AAC?$AAO?$AA?$AA@ 1003ccc8     LIBCMT:winapinls.obj
 0002:00004cd4       ??_C@_1O@JMPHMAMC@?$AAs?$AAm?$AAn?$AA?9?$AAF?$AAI?$AA?$AA@ 1003ccd4     LIBCMT:winapinls.obj
 0002:00004ce4       ??_C@_1M@JLANABKE@?$AAa?$AAr?$AA?9?$AAS?$AAY?$AA?$AA@ 1003cce4     LIBCMT:winapinls.obj
 0002:00004cf0       ??_C@_1M@HPKGCFGN@?$AAe?$AAn?$AA?9?$AAB?$AAZ?$AA?$AA@ 1003ccf0     LIBCMT:winapinls.obj
 0002:00004cfc       ??_C@_1M@OLJCMLGM@?$AAe?$AAs?$AA?9?$AAP?$AAE?$AA?$AA@ 1003ccfc     LIBCMT:winapinls.obj
 0002:00004d08       ??_C@_1M@MKKGFKLE@?$AAa?$AAr?$AA?9?$AAJ?$AAO?$AA?$AA@ 1003cd08     LIBCMT:winapinls.obj
 0002:00004d14       ??_C@_1M@EKPGLDNI@?$AAe?$AAn?$AA?9?$AAT?$AAT?$AA?$AA@ 1003cd14     LIBCMT:winapinls.obj
 0002:00004d20       ??_C@_1M@OONGHFHE@?$AAe?$AAs?$AA?9?$AAA?$AAR?$AA?$AA@ 1003cd20     LIBCMT:winapinls.obj
 0002:00004d2c       ??_C@_1M@OOJFGBHE@?$AAa?$AAr?$AA?9?$AAL?$AAB?$AA?$AA@ 1003cd2c     LIBCMT:winapinls.obj
 0002:00004d38       ??_C@_1M@GCEJHNEG@?$AAe?$AAn?$AA?9?$AAZ?$AAW?$AA?$AA@ 1003cd38     LIBCMT:winapinls.obj
 0002:00004d44       ??_C@_1M@JNOCAHJI@?$AAe?$AAs?$AA?9?$AAE?$AAC?$AA?$AA@ 1003cd44     LIBCMT:winapinls.obj
 0002:00004d50       ??_C@_1M@JEFHPGGB@?$AAa?$AAr?$AA?9?$AAK?$AAW?$AA?$AA@ 1003cd50     LIBCMT:winapinls.obj
 0002:00004d5c       ??_C@_1M@MLKIBJOJ@?$AAe?$AAn?$AA?9?$AAP?$AAH?$AA?$AA@ 1003cd5c     LIBCMT:winapinls.obj
 0002:00004d68       ??_C@_1M@BDNIPEND@?$AAe?$AAs?$AA?9?$AAC?$AAL?$AA?$AA@ 1003cd68     LIBCMT:winapinls.obj
 0002:00004d74       ??_C@_1M@MPNMEKBD@?$AAa?$AAr?$AA?9?$AAA?$AAE?$AA?$AA@ 1003cd74     LIBCMT:winapinls.obj
 0002:00004d80       ??_C@_1M@KBJALCPI@?$AAe?$AAs?$AA?9?$AAU?$AAY?$AA?$AA@ 1003cd80     LIBCMT:winapinls.obj
 0002:00004d8c       ??_C@_1M@LLCCOAGA@?$AAa?$AAr?$AA?9?$AAB?$AAH?$AA?$AA@ 1003cd8c     LIBCMT:winapinls.obj
 0002:00004d98       ??_C@_1M@PBFNCDEL@?$AAe?$AAs?$AA?9?$AAP?$AAY?$AA?$AA@ 1003cd98     LIBCMT:winapinls.obj
 0002:00004da4       ??_C@_1M@EDGINPNP@?$AAa?$AAr?$AA?9?$AAQ?$AAA?$AA?$AA@ 1003cda4     LIBCMT:winapinls.obj
 0002:00004db0       ??_C@_1M@MKDBIIJI@?$AAe?$AAs?$AA?9?$AAB?$AAO?$AA?$AA@ 1003cdb0     LIBCMT:winapinls.obj
 0002:00004dbc       ??_C@_1M@CPKKEBLD@?$AAe?$AAs?$AA?9?$AAS?$AAV?$AA?$AA@ 1003cdbc     LIBCMT:winapinls.obj
 0002:00004dc8       ??_C@_1M@NDBGMMJL@?$AAe?$AAs?$AA?9?$AAH?$AAN?$AA?$AA@ 1003cdc8     LIBCMT:winapinls.obj
 0002:00004dd4       ??_C@_1M@JIJIBHDP@?$AAe?$AAs?$AA?9?$AAN?$AAI?$AA?$AA@ 1003cdd4     LIBCMT:winapinls.obj
 0002:00004de0       ??_C@_1M@CGFMKEEK@?$AAe?$AAs?$AA?9?$AAP?$AAR?$AA?$AA@ 1003cde0     LIBCMT:winapinls.obj
 0002:00004dec       ??_C@_1O@ICJHKIIK@?$AAz?$AAh?$AA?9?$AAC?$AAH?$AAT?$AA?$AA@ 1003cdec     LIBCMT:winapinls.obj
 0002:00004dfc       ??_C@_15CLNEJCE@?$AAs?$AAr?$AA?$AA@ 1003cdfc     LIBCMT:winapinls.obj
 0002:00004e04       ??_C@_1M@KAHEKEIG@?$AAa?$AAf?$AA?9?$AAz?$AAa?$AA?$AA@ 1003ce04     LIBCMT:winapinls.obj
 0002:00004e10       ??_C@_1M@GIECOABL@?$AAa?$AAr?$AA?9?$AAa?$AAe?$AA?$AA@ 1003ce10     LIBCMT:winapinls.obj
 0002:00004e1c       ??_C@_1M@BMLMEKGI@?$AAa?$AAr?$AA?9?$AAb?$AAh?$AA?$AA@ 1003ce1c     LIBCMT:winapinls.obj
 0002:00004e28       ??_C@_1M@DAPFDGGB@?$AAa?$AAr?$AA?9?$AAd?$AAz?$AA?$AA@ 1003ce28     LIBCMT:winapinls.obj
 0002:00004e34       ??_C@_1M@FJNKGKIG@?$AAa?$AAr?$AA?9?$AAe?$AAg?$AA?$AA@ 1003ce34     LIBCMT:winapinls.obj
 0002:00004e40       ??_C@_1M@FLGKKCLO@?$AAa?$AAr?$AA?9?$AAi?$AAq?$AA?$AA@ 1003ce40     LIBCMT:winapinls.obj
 0002:00004e4c       ??_C@_1M@GNDIPALM@?$AAa?$AAr?$AA?9?$AAj?$AAo?$AA?$AA@ 1003ce4c     LIBCMT:winapinls.obj
 0002:00004e58       ??_C@_1M@DDMJFMGJ@?$AAa?$AAr?$AA?9?$AAk?$AAw?$AA?$AA@ 1003ce58     LIBCMT:winapinls.obj
 0002:00004e64       ??_C@_1M@EJALMLHM@?$AAa?$AAr?$AA?9?$AAl?$AAb?$AA?$AA@ 1003ce64     LIBCMT:winapinls.obj
 0002:00004e70       ??_C@_1M@MOBDBLOC@?$AAa?$AAr?$AA?9?$AAl?$AAy?$AA?$AA@ 1003ce70     LIBCMT:winapinls.obj
 0002:00004e7c       ??_C@_1M@JAOCLHDH@?$AAa?$AAr?$AA?9?$AAm?$AAa?$AA?$AA@ 1003ce7c     LIBCMT:winapinls.obj
 0002:00004e88       ??_C@_1M@JHPMKJIE@?$AAa?$AAr?$AA?9?$AAo?$AAm?$AA?$AA@ 1003ce88     LIBCMT:winapinls.obj
 0002:00004e94       ??_C@_1M@OEPGHFNH@?$AAa?$AAr?$AA?9?$AAq?$AAa?$AA?$AA@ 1003ce94     LIBCMT:winapinls.obj
 0002:00004ea0       ??_C@_1M@KJDONENM@?$AAa?$AAr?$AA?9?$AAs?$AAa?$AA?$AA@ 1003cea0     LIBCMT:winapinls.obj
 0002:00004eac       ??_C@_1M@DMJDKLKM@?$AAa?$AAr?$AA?9?$AAs?$AAy?$AA?$AA@ 1003ceac     LIBCMT:winapinls.obj
 0002:00004eb8       ??_C@_1M@OMFIPEDC@?$AAa?$AAr?$AA?9?$AAt?$AAn?$AA?$AA@ 1003ceb8     LIBCMT:winapinls.obj
 0002:00004ec4       ??_C@_1M@IHMHGAON@?$AAa?$AAr?$AA?9?$AAy?$AAe?$AA?$AA@ 1003cec4     LIBCMT:winapinls.obj
 0002:00004ed0       ??_C@_1BG@KDCPGJGB@?$AAa?$AAz?$AA?9?$AAa?$AAz?$AA?9?$AAc?$AAy?$AAr?$AAl?$AA?$AA@ 1003ced0     LIBCMT:winapinls.obj
 0002:00004ee8       ??_C@_1BG@IBCKDDOE@?$AAa?$AAz?$AA?9?$AAa?$AAz?$AA?9?$AAl?$AAa?$AAt?$AAn?$AA?$AA@ 1003cee8     LIBCMT:winapinls.obj
 0002:00004f00       ??_C@_1M@EGPFDCPD@?$AAb?$AAe?$AA?9?$AAb?$AAy?$AA?$AA@ 1003cf00     LIBCMT:winapinls.obj
 0002:00004f0c       ??_C@_1M@PCMGMCGC@?$AAb?$AAg?$AA?9?$AAb?$AAg?$AA?$AA@ 1003cf0c     LIBCMT:winapinls.obj
 0002:00004f18       ??_C@_1M@BJBMFGOB@?$AAb?$AAn?$AA?9?$AAi?$AAn?$AA?$AA@ 1003cf18     LIBCMT:winapinls.obj
 0002:00004f24       ??_C@_1BG@EAKMMACD@?$AAb?$AAs?$AA?9?$AAb?$AAa?$AA?9?$AAl?$AAa?$AAt?$AAn?$AA?$AA@ 1003cf24     LIBCMT:winapinls.obj
 0002:00004f3c       ??_C@_1M@KGADAODK@?$AAc?$AAa?$AA?9?$AAe?$AAs?$AA?$AA@ 1003cf3c     LIBCMT:winapinls.obj
 0002:00004f48       ??_C@_1M@COAJPDHI@?$AAc?$AAs?$AA?9?$AAc?$AAz?$AA?$AA@ 1003cf48     LIBCMT:winapinls.obj
 0002:00004f54       ??_C@_1M@DHBHFONH@?$AAc?$AAy?$AA?9?$AAg?$AAb?$AA?$AA@ 1003cf54     LIBCMT:winapinls.obj
 0002:00004f60       ??_C@_1M@IMGKELGA@?$AAd?$AAa?$AA?9?$AAd?$AAk?$AA?$AA@ 1003cf60     LIBCMT:winapinls.obj
 0002:00004f6c       ??_C@_1M@NNDGDNGA@?$AAd?$AAe?$AA?9?$AAa?$AAt?$AA?$AA@ 1003cf6c     LIBCMT:winapinls.obj
 0002:00004f78       ??_C@_1M@IKDBHEEM@?$AAd?$AAe?$AA?9?$AAc?$AAh?$AA?$AA@ 1003cf78     LIBCMT:winapinls.obj
 0002:00004f84       ??_C@_1M@GFFOJMCJ@?$AAd?$AAe?$AA?9?$AAd?$AAe?$AA?$AA@ 1003cf84     LIBCMT:winapinls.obj
 0002:00004f90       ??_C@_1M@MDNLKBPM@?$AAd?$AAe?$AA?9?$AAl?$AAi?$AA?$AA@ 1003cf90     LIBCMT:winapinls.obj
 0002:00004f9c       ??_C@_1M@NJBEEJNL@?$AAd?$AAe?$AA?9?$AAl?$AAu?$AA?$AA@ 1003cf9c     LIBCMT:winapinls.obj
 0002:00004fa8       ??_C@_1O@GNNELBAP@?$AAd?$AAi?$AAv?$AA?9?$AAm?$AAv?$AA?$AA@ 1003cfa8     LIBCMT:winapinls.obj
 0002:00004fb8       ??_C@_1M@EJLEOGAE@?$AAe?$AAl?$AA?9?$AAg?$AAr?$AA?$AA@ 1003cfb8     LIBCMT:winapinls.obj
 0002:00004fc4       ??_C@_1M@GMPONJN@?$AAe?$AAn?$AA?9?$AAa?$AAu?$AA?$AA@ 1003cfc4     LIBCMT:winapinls.obj
 0002:00004fd0       ??_C@_1M@NIDIIPGF@?$AAe?$AAn?$AA?9?$AAb?$AAz?$AA?$AA@ 1003cfd0     LIBCMT:winapinls.obj
 0002:00004fdc       ??_C@_1M@JEHMIMFO@?$AAe?$AAn?$AA?9?$AAc?$AAa?$AA?$AA@ 1003cfdc     LIBCMT:winapinls.obj
 0002:00004fe8       ??_C@_1M@IGMJCDLA@?$AAe?$AAn?$AA?9?$AAc?$AAb?$AA?$AA@ 1003cfe8     LIBCMT:winapinls.obj
 0002:00004ff4       ??_C@_1M@BNFIGBKG@?$AAe?$AAn?$AA?9?$AAg?$AAb?$AA?$AA@ 1003cff4     LIBCMT:winapinls.obj
 0002:00005000       ??_C@_1M@LKIFDIGP@?$AAe?$AAn?$AA?9?$AAi?$AAe?$AA?$AA@ 1003d000     LIBCMT:winapinls.obj
 0002:0000500c       ??_C@_1M@PJKFGCCO@?$AAe?$AAn?$AA?9?$AAj?$AAm?$AA?$AA@ 1003d00c     LIBCMT:winapinls.obj
 0002:00005018       ??_C@_1M@KPPKEPBO@?$AAe?$AAn?$AA?9?$AAn?$AAz?$AA?$AA@ 1003d018     LIBCMT:winapinls.obj
 0002:00005024       ??_C@_1M@GMDGLDOB@?$AAe?$AAn?$AA?9?$AAp?$AAh?$AA?$AA@ 1003d024     LIBCMT:winapinls.obj
 0002:00005030       ??_C@_1M@ONGIBJNA@?$AAe?$AAn?$AA?9?$AAt?$AAt?$AA?$AA@ 1003d030     LIBCMT:winapinls.obj
 0002:0000503c       ??_C@_1M@LLODPCMM@?$AAe?$AAn?$AA?9?$AAu?$AAs?$AA?$AA@ 1003d03c     LIBCMT:winapinls.obj
 0002:00005048       ??_C@_1M@LAKFNPAN@?$AAe?$AAn?$AA?9?$AAz?$AAa?$AA?$AA@ 1003d048     LIBCMT:winapinls.obj
 0002:00005054       ??_C@_1M@MFNHNHEO@?$AAe?$AAn?$AA?9?$AAz?$AAw?$AA?$AA@ 1003d054     LIBCMT:winapinls.obj
 0002:00005060       ??_C@_1M@EJEINPHM@?$AAe?$AAs?$AA?9?$AAa?$AAr?$AA?$AA@ 1003d060     LIBCMT:winapinls.obj
 0002:0000506c       ??_C@_1M@GNKPCCJA@?$AAe?$AAs?$AA?9?$AAb?$AAo?$AA?$AA@ 1003d06c     LIBCMT:winapinls.obj
 0002:00005078       ??_C@_1M@LEEGFONL@?$AAe?$AAs?$AA?9?$AAc?$AAl?$AA?$AA@ 1003d078     LIBCMT:winapinls.obj
 0002:00005084       ??_C@_1M@KGPDPBDF@?$AAe?$AAs?$AA?9?$AAc?$AAo?$AA?$AA@ 1003d084     LIBCMT:winapinls.obj
 0002:00005090       ??_C@_1M@EIAHOHH@?$AAe?$AAs?$AA?9?$AAc?$AAr?$AA?$AA@ 1003d090     LIBCMT:winapinls.obj
 0002:0000509c       ??_C@_1M@LLPGMBIN@?$AAe?$AAs?$AA?9?$AAd?$AAo?$AA?$AA@ 1003d09c     LIBCMT:winapinls.obj
 0002:000050a8       ??_C@_1M@DKHMKNJA@?$AAe?$AAs?$AA?9?$AAe?$AAc?$AA?$AA@ 1003d0a8     LIBCMT:winapinls.obj
 0002:000050b4       ??_C@_1M@GKGFPKAP@?$AAe?$AAs?$AA?9?$AAe?$AAs?$AA?$AA@ 1003d0b4     LIBCMT:winapinls.obj
 0002:000050c0       ??_C@_1M@LKHKGDLN@?$AAe?$AAs?$AA?9?$AAg?$AAt?$AA?$AA@ 1003d0c0     LIBCMT:winapinls.obj
 0002:000050cc       ??_C@_1M@HEIIGGJD@?$AAe?$AAs?$AA?9?$AAh?$AAn?$AA?$AA@ 1003d0cc     LIBCMT:winapinls.obj
 0002:000050d8       ??_C@_1M@FBDHPPGD@?$AAe?$AAs?$AA?9?$AAm?$AAx?$AA?$AA@ 1003d0d8     LIBCMT:winapinls.obj
 0002:000050e4       ??_C@_1M@DPAGLNDH@?$AAe?$AAs?$AA?9?$AAn?$AAi?$AA?$AA@ 1003d0e4     LIBCMT:winapinls.obj
 0002:000050f0       ??_C@_1M@MDGOPGDD@?$AAe?$AAs?$AA?9?$AAp?$AAa?$AA?$AA@ 1003d0f0     LIBCMT:winapinls.obj
 0002:000050fc       ??_C@_1M@EMAMGBGE@?$AAe?$AAs?$AA?9?$AAp?$AAe?$AA?$AA@ 1003d0fc     LIBCMT:winapinls.obj
 0002:00005108       ??_C@_1M@IBMCAOEC@?$AAe?$AAs?$AA?9?$AAp?$AAr?$AA?$AA@ 1003d108     LIBCMT:winapinls.obj
 0002:00005114       ??_C@_1M@FGMDIJED@?$AAe?$AAs?$AA?9?$AAp?$AAy?$AA?$AA@ 1003d114     LIBCMT:winapinls.obj
 0002:00005120       ??_C@_1M@IIDEOLLL@?$AAe?$AAs?$AA?9?$AAs?$AAv?$AA?$AA@ 1003d120     LIBCMT:winapinls.obj
 0002:0000512c       ??_C@_1M@GAOBIPA@?$AAe?$AAs?$AA?9?$AAu?$AAy?$AA?$AA@ 1003d12c     LIBCMT:winapinls.obj
 0002:00005138       ??_C@_1M@JKFFICHJ@?$AAe?$AAs?$AA?9?$AAv?$AAe?$AA?$AA@ 1003d138     LIBCMT:winapinls.obj
 0002:00005144       ??_C@_1M@PNMLOJDF@?$AAe?$AAt?$AA?9?$AAe?$AAe?$AA?$AA@ 1003d144     LIBCMT:winapinls.obj
 0002:00005150       ??_C@_1M@GHHLIKEI@?$AAe?$AAu?$AA?9?$AAe?$AAs?$AA?$AA@ 1003d150     LIBCMT:winapinls.obj
 0002:0000515c       ??_C@_1M@PBNONODE@?$AAf?$AAa?$AA?9?$AAi?$AAr?$AA?$AA@ 1003d15c     LIBCMT:winapinls.obj
 0002:00005168       ??_C@_1M@JEEHPMIL@?$AAf?$AAi?$AA?9?$AAf?$AAi?$AA?$AA@ 1003d168     LIBCMT:winapinls.obj
 0002:00005174       ??_C@_1M@LMDCNDBA@?$AAf?$AAo?$AA?9?$AAf?$AAo?$AA?$AA@ 1003d174     LIBCMT:winapinls.obj
 0002:00005180       ??_C@_1M@JKEOHLDK@?$AAf?$AAr?$AA?9?$AAb?$AAe?$AA?$AA@ 1003d180     LIBCMT:winapinls.obj
 0002:0000518c       ??_C@_1M@NOHADPMI@?$AAf?$AAr?$AA?9?$AAc?$AAa?$AA?$AA@ 1003d18c     LIBCMT:winapinls.obj
 0002:00005198       ??_C@_1M@KDHIHAEC@?$AAf?$AAr?$AA?9?$AAc?$AAh?$AA?$AA@ 1003d198     LIBCMT:winapinls.obj
 0002:000051a4       ??_C@_1M@MMBBFGAK@?$AAf?$AAr?$AA?9?$AAf?$AAr?$AA?$AA@ 1003d1a4     LIBCMT:winapinls.obj
 0002:000051b0       ??_C@_1M@PAFNENNF@?$AAf?$AAr?$AA?9?$AAl?$AAu?$AA?$AA@ 1003d1b0     LIBCMT:winapinls.obj
 0002:000051bc       ??_C@_1M@EOHDJGDD@?$AAf?$AAr?$AA?9?$AAm?$AAc?$AA?$AA@ 1003d1bc     LIBCMT:winapinls.obj
 0002:000051c8       ??_C@_1M@FAPLLOPF@?$AAg?$AAl?$AA?9?$AAe?$AAs?$AA?$AA@ 1003d1c8     LIBCMT:winapinls.obj
 0002:000051d4       ??_C@_1M@FOPBFLOO@?$AAg?$AAu?$AA?9?$AAi?$AAn?$AA?$AA@ 1003d1d4     LIBCMT:winapinls.obj
 0002:000051e0       ??_C@_1M@KBMCINPM@?$AAh?$AAe?$AA?9?$AAi?$AAl?$AA?$AA@ 1003d1e0     LIBCMT:winapinls.obj
 0002:000051ec       ??_C@_1M@BBPHKFPJ@?$AAh?$AAi?$AA?9?$AAi?$AAn?$AA?$AA@ 1003d1ec     LIBCMT:winapinls.obj
 0002:000051f8       ??_C@_1M@PMBNDPHD@?$AAh?$AAr?$AA?9?$AAb?$AAa?$AA?$AA@ 1003d1f8     LIBCMT:winapinls.obj
 0002:00005204       ??_C@_1M@BPCKOEGE@?$AAh?$AAr?$AA?9?$AAh?$AAr?$AA?$AA@ 1003d204     LIBCMT:winapinls.obj
 0002:00005210       ??_C@_1M@GACBMHKE@?$AAh?$AAu?$AA?9?$AAh?$AAu?$AA?$AA@ 1003d210     LIBCMT:winapinls.obj
 0002:0000521c       ??_C@_1M@MILPAJJC@?$AAh?$AAy?$AA?9?$AAa?$AAm?$AA?$AA@ 1003d21c     LIBCMT:winapinls.obj
 0002:00005228       ??_C@_1M@BABBICEC@?$AAi?$AAd?$AA?9?$AAi?$AAd?$AA?$AA@ 1003d228     LIBCMT:winapinls.obj
 0002:00005234       ??_C@_1M@BIKNHHPF@?$AAi?$AAs?$AA?9?$AAi?$AAs?$AA?$AA@ 1003d234     LIBCMT:winapinls.obj
 0002:00005240       ??_C@_1M@NMPCJPHE@?$AAi?$AAt?$AA?9?$AAc?$AAh?$AA?$AA@ 1003d240     LIBCMT:winapinls.obj
 0002:0000524c       ??_C@_1M@GHKGFEDF@?$AAi?$AAt?$AA?9?$AAi?$AAt?$AA?$AA@ 1003d24c     LIBCMT:winapinls.obj
 0002:00005258       ??_C@_1M@NIEJCJJA@?$AAj?$AAa?$AA?9?$AAj?$AAp?$AA?$AA@ 1003d258     LIBCMT:winapinls.obj
 0002:00005264       ??_C@_1M@JILFNBIM@?$AAk?$AAa?$AA?9?$AAg?$AAe?$AA?$AA@ 1003d264     LIBCMT:winapinls.obj
 0002:00005270       ??_C@_1M@PACPMGPH@?$AAk?$AAk?$AA?9?$AAk?$AAz?$AA?$AA@ 1003d270     LIBCMT:winapinls.obj
 0002:0000527c       ??_C@_1M@IELFGMHA@?$AAk?$AAn?$AA?9?$AAi?$AAn?$AA?$AA@ 1003d27c     LIBCMT:winapinls.obj
 0002:00005288       ??_C@_1O@IBBJHCH@?$AAk?$AAo?$AAk?$AA?9?$AAi?$AAn?$AA?$AA@ 1003d288     LIBCMT:winapinls.obj
 0002:00005298       ??_C@_1M@DMHAEOGC@?$AAk?$AAo?$AA?9?$AAk?$AAr?$AA?$AA@ 1003d298     LIBCMT:winapinls.obj
 0002:000052a4       ??_C@_1M@HBAHBIGA@?$AAk?$AAy?$AA?9?$AAk?$AAg?$AA?$AA@ 1003d2a4     LIBCMT:winapinls.obj
 0002:000052b0       ??_C@_1M@KPMILCJG@?$AAl?$AAt?$AA?9?$AAl?$AAt?$AA?$AA@ 1003d2b0     LIBCMT:winapinls.obj
 0002:000052bc       ??_C@_1M@BDEKKCA@?$AAl?$AAv?$AA?9?$AAl?$AAv?$AA?$AA@ 1003d2bc     LIBCMT:winapinls.obj
 0002:000052c8       ??_C@_1M@ELCKCCJJ@?$AAm?$AAi?$AA?9?$AAn?$AAz?$AA?$AA@ 1003d2c8     LIBCMT:winapinls.obj
 0002:000052d4       ??_C@_1M@CBOOLAPA@?$AAm?$AAk?$AA?9?$AAm?$AAk?$AA?$AA@ 1003d2d4     LIBCMT:winapinls.obj
 0002:000052e0       ??_C@_1M@GPHNBJKN@?$AAm?$AAl?$AA?9?$AAi?$AAn?$AA?$AA@ 1003d2e0     LIBCMT:winapinls.obj
 0002:000052ec       ??_C@_1M@PABJILIG@?$AAm?$AAn?$AA?9?$AAm?$AAn?$AA?$AA@ 1003d2ec     LIBCMT:winapinls.obj
 0002:000052f8       ??_C@_1M@FGBKKIPG@?$AAm?$AAr?$AA?9?$AAi?$AAn?$AA?$AA@ 1003d2f8     LIBCMT:winapinls.obj
 0002:00005304       ??_C@_1M@NDBPDDAL@?$AAm?$AAs?$AA?9?$AAb?$AAn?$AA?$AA@ 1003d304     LIBCMT:winapinls.obj
 0002:00005310       ??_C@_1M@OPIHOOPI@?$AAm?$AAs?$AA?9?$AAm?$AAy?$AA?$AA@ 1003d310     LIBCMT:winapinls.obj
 0002:0000531c       ??_C@_1M@PPDBCNFM@?$AAm?$AAt?$AA?9?$AAm?$AAt?$AA?$AA@ 1003d31c     LIBCMT:winapinls.obj
 0002:00005328       ??_C@_1M@KDJDKMDD@?$AAn?$AAb?$AA?9?$AAn?$AAo?$AA?$AA@ 1003d328     LIBCMT:winapinls.obj
 0002:00005334       ??_C@_1M@KFCFLMJP@?$AAn?$AAl?$AA?9?$AAb?$AAe?$AA?$AA@ 1003d334     LIBCMT:winapinls.obj
 0002:00005340       ??_C@_1M@KPOPDDGO@?$AAn?$AAl?$AA?9?$AAn?$AAl?$AA?$AA@ 1003d340     LIBCMT:winapinls.obj
 0002:0000534c       ??_C@_1M@LJKPEMLN@?$AAn?$AAn?$AA?9?$AAn?$AAo?$AA?$AA@ 1003d34c     LIBCMT:winapinls.obj
 0002:00005358       ??_C@_1M@BDGHHBFL@?$AAn?$AAs?$AA?9?$AAz?$AAa?$AA?$AA@ 1003d358     LIBCMT:winapinls.obj
 0002:00005364       ??_C@_1M@IDEHOAP@?$AAp?$AAa?$AA?9?$AAi?$AAn?$AA?$AA@ 1003d364     LIBCMT:winapinls.obj
 0002:00005370       ??_C@_1M@HDBKGOGH@?$AAp?$AAl?$AA?9?$AAp?$AAl?$AA?$AA@ 1003d370     LIBCMT:winapinls.obj
 0002:0000537c       ??_C@_1M@LJLLCMEH@?$AAp?$AAt?$AA?9?$AAb?$AAr?$AA?$AA@ 1003d37c     LIBCMT:winapinls.obj
 0002:00005388       ??_C@_1M@NCMONAAL@?$AAp?$AAt?$AA?9?$AAp?$AAt?$AA?$AA@ 1003d388     LIBCMT:winapinls.obj
 0002:00005394       ??_C@_1O@EAKMAJDN@?$AAq?$AAu?$AAz?$AA?9?$AAb?$AAo?$AA?$AA@ 1003d394     LIBCMT:winapinls.obj
 0002:000053a4       ??_C@_1O@BHHPIGDN@?$AAq?$AAu?$AAz?$AA?9?$AAe?$AAc?$AA?$AA@ 1003d3a4     LIBCMT:winapinls.obj
 0002:000053b4       ??_C@_1O@GBAPEKMJ@?$AAq?$AAu?$AAz?$AA?9?$AAp?$AAe?$AA?$AA@ 1003d3b4     LIBCMT:winapinls.obj
 0002:000053c4       ??_C@_1M@CLGLEFBO@?$AAr?$AAo?$AA?9?$AAr?$AAo?$AA?$AA@ 1003d3c4     LIBCMT:winapinls.obj
 0002:000053d0       ??_C@_1M@CEEDODME@?$AAr?$AAu?$AA?9?$AAr?$AAu?$AA?$AA@ 1003d3d0     LIBCMT:winapinls.obj
 0002:000053dc       ??_C@_1M@HPKKKMPP@?$AAs?$AAa?$AA?9?$AAi?$AAn?$AA?$AA@ 1003d3dc     LIBCMT:winapinls.obj
 0002:000053e8       ??_C@_1M@BKMAIGOJ@?$AAs?$AAe?$AA?9?$AAf?$AAi?$AA?$AA@ 1003d3e8     LIBCMT:winapinls.obj
 0002:000053f4       ??_C@_1M@NDPIFLFI@?$AAs?$AAe?$AA?9?$AAn?$AAo?$AA?$AA@ 1003d3f4     LIBCMT:winapinls.obj
 0002:00005400       ??_C@_1M@DANKKHJ@?$AAs?$AAe?$AA?9?$AAs?$AAe?$AA?$AA@ 1003d400     LIBCMT:winapinls.obj
 0002:0000540c       ??_C@_1M@PNBLONPJ@?$AAs?$AAk?$AA?9?$AAs?$AAk?$AA?$AA@ 1003d40c     LIBCMT:winapinls.obj
 0002:00005418       ??_C@_1M@LFMODOAL@?$AAs?$AAl?$AA?9?$AAs?$AAi?$AA?$AA@ 1003d418     LIBCMT:winapinls.obj
 0002:00005424       ??_C@_1O@DFKOMPG@?$AAs?$AAm?$AAa?$AA?9?$AAn?$AAo?$AA?$AA@ 1003d424     LIBCMT:winapinls.obj
 0002:00005434       ??_C@_1O@NDKPBNNH@?$AAs?$AAm?$AAa?$AA?9?$AAs?$AAe?$AA?$AA@ 1003d434     LIBCMT:winapinls.obj
 0002:00005444       ??_C@_1O@PLLKBHAB@?$AAs?$AAm?$AAj?$AA?9?$AAn?$AAo?$AA?$AA@ 1003d444     LIBCMT:winapinls.obj
 0002:00005454       ??_C@_1O@CLEPOGCA@?$AAs?$AAm?$AAj?$AA?9?$AAs?$AAe?$AA?$AA@ 1003d454     LIBCMT:winapinls.obj
 0002:00005464       ??_C@_1O@DLGJGKMK@?$AAs?$AAm?$AAn?$AA?9?$AAf?$AAi?$AA?$AA@ 1003d464     LIBCMT:winapinls.obj
 0002:00005474       ??_C@_1O@OJDJGAJC@?$AAs?$AAm?$AAs?$AA?9?$AAf?$AAi?$AA?$AA@ 1003d474     LIBCMT:winapinls.obj
 0002:00005484       ??_C@_1M@BOFOGHPB@?$AAs?$AAq?$AA?9?$AAa?$AAl?$AA?$AA@ 1003d484     LIBCMT:winapinls.obj
 0002:00005490       ??_C@_1BG@LJBBIPGB@?$AAs?$AAr?$AA?9?$AAb?$AAa?$AA?9?$AAc?$AAy?$AAr?$AAl?$AA?$AA@ 1003d490     LIBCMT:winapinls.obj
 0002:000054a8       ??_C@_1BG@JLBENFOE@?$AAs?$AAr?$AA?9?$AAb?$AAa?$AA?9?$AAl?$AAa?$AAt?$AAn?$AA?$AA@ 1003d4a8     LIBCMT:winapinls.obj
 0002:000054c0       ??_C@_1BG@KODPNHE@?$AAs?$AAr?$AA?9?$AAs?$AAp?$AA?9?$AAc?$AAy?$AAr?$AAl?$AA?$AA@ 1003d4c0     LIBCMT:winapinls.obj
 0002:000054d8       ??_C@_1BG@CIOGKHPB@?$AAs?$AAr?$AA?9?$AAs?$AAp?$AA?9?$AAl?$AAa?$AAt?$AAn?$AA?$AA@ 1003d4d8     LIBCMT:winapinls.obj
 0002:000054f0       ??_C@_1M@NGFJLMAC@?$AAs?$AAv?$AA?9?$AAf?$AAi?$AA?$AA@ 1003d4f0     LIBCMT:winapinls.obj
 0002:000054fc       ??_C@_1M@MPJEJAJC@?$AAs?$AAv?$AA?9?$AAs?$AAe?$AA?$AA@ 1003d4fc     LIBCMT:winapinls.obj
 0002:00005508       ??_C@_1M@MPNDHLFK@?$AAs?$AAw?$AA?9?$AAk?$AAe?$AA?$AA@ 1003d508     LIBCMT:winapinls.obj
 0002:00005514       ??_C@_1O@KOHBJJI@?$AAs?$AAy?$AAr?$AA?9?$AAs?$AAy?$AA?$AA@ 1003d514     LIBCMT:winapinls.obj
 0002:00005524       ??_C@_1M@LDCEFHA@?$AAt?$AAa?$AA?9?$AAi?$AAn?$AA?$AA@ 1003d524     LIBCMT:winapinls.obj
 0002:00005530       ??_C@_1M@CNJOFAK@?$AAt?$AAe?$AA?9?$AAi?$AAn?$AA?$AA@ 1003d530     LIBCMT:winapinls.obj
 0002:0000553c       ??_C@_1M@GNAECACD@?$AAt?$AAh?$AA?9?$AAt?$AAh?$AA?$AA@ 1003d53c     LIBCMT:winapinls.obj
 0002:00005548       ??_C@_1M@CHBIHOJO@?$AAt?$AAn?$AA?9?$AAz?$AAa?$AA?$AA@ 1003d548     LIBCMT:winapinls.obj
 0002:00005554       ??_C@_1M@GCCMIGPJ@?$AAt?$AAr?$AA?9?$AAt?$AAr?$AA?$AA@ 1003d554     LIBCMT:winapinls.obj
 0002:00005560       ??_C@_1M@CELMCNBK@?$AAt?$AAt?$AA?9?$AAr?$AAu?$AA?$AA@ 1003d560     LIBCMT:winapinls.obj
 0002:0000556c       ??_C@_1M@KLMCELGA@?$AAu?$AAk?$AA?9?$AAu?$AAa?$AA?$AA@ 1003d56c     LIBCMT:winapinls.obj
 0002:00005578       ??_C@_1M@EPAJJAJF@?$AAu?$AAr?$AA?9?$AAp?$AAk?$AA?$AA@ 1003d578     LIBCMT:winapinls.obj
 0002:00005584       ??_C@_1BG@GEGPMCDJ@?$AAu?$AAz?$AA?9?$AAu?$AAz?$AA?9?$AAc?$AAy?$AAr?$AAl?$AA?$AA@ 1003d584     LIBCMT:winapinls.obj
 0002:0000559c       ??_C@_1BG@EGGKJILM@?$AAu?$AAz?$AA?9?$AAu?$AAz?$AA?9?$AAl?$AAa?$AAt?$AAn?$AA?$AA@ 1003d59c     LIBCMT:winapinls.obj
 0002:000055b4       ??_C@_1M@GFOCLFF@?$AAv?$AAi?$AA?9?$AAv?$AAn?$AA?$AA@ 1003d5b4     LIBCMT:winapinls.obj
 0002:000055c0       ??_C@_1M@CPAMEDFI@?$AAx?$AAh?$AA?9?$AAz?$AAa?$AA?$AA@ 1003d5c0     LIBCMT:winapinls.obj
 0002:000055cc       ??_C@_1O@EBKIFIGN@?$AAz?$AAh?$AA?9?$AAc?$AAh?$AAs?$AA?$AA@ 1003d5cc     LIBCMT:winapinls.obj
 0002:000055dc       ??_C@_1O@NMHPGANE@?$AAz?$AAh?$AA?9?$AAc?$AAh?$AAt?$AA?$AA@ 1003d5dc     LIBCMT:winapinls.obj
 0002:000055ec       ??_C@_1M@LPINJOMC@?$AAz?$AAh?$AA?9?$AAc?$AAn?$AA?$AA@ 1003d5ec     LIBCMT:winapinls.obj
 0002:000055f8       ??_C@_1M@OCJEJODD@?$AAz?$AAh?$AA?9?$AAh?$AAk?$AA?$AA@ 1003d5f8     LIBCMT:winapinls.obj
 0002:00005604       ??_C@_1M@DNDLJINH@?$AAz?$AAh?$AA?9?$AAm?$AAo?$AA?$AA@ 1003d604     LIBCMT:winapinls.obj
 0002:00005610       ??_C@_1M@MBFDNDND@?$AAz?$AAh?$AA?9?$AAs?$AAg?$AA?$AA@ 1003d610     LIBCMT:winapinls.obj
 0002:0000561c       ??_C@_1M@IMEPLEPE@?$AAz?$AAh?$AA?9?$AAt?$AAw?$AA?$AA@ 1003d61c     LIBCMT:winapinls.obj
 0002:00005628       ??_C@_1M@BBGHNHJP@?$AAz?$AAu?$AA?9?$AAz?$AAa?$AA?$AA@ 1003d628     LIBCMT:winapinls.obj
 0002:00005638       ___newctype                1003d638     LIBCMT:ctype.obj
 0002:00005938       __wctype                   1003d938     LIBCMT:ctype.obj
 0002:00005b40       ___newclmap                1003db40     LIBCMT:ctype.obj
 0002:00005cc0       ___newcumap                1003dcc0     LIBCMT:ctype.obj
 0002:00005e40       ___lookuptable_s           1003de40     LIBCMT:outputs.obj
 0002:0000602c       ??_C@_08EHJDFFNH@__based?$CI?$AA@ 1003e02c     LIBCMT:undname.obj
 0002:00006038       ??_C@_07KOLFKCDI@__cdecl?$AA@ 1003e038     LIBCMT:undname.obj
 0002:00006040       ??_C@_08GHMPAG@__pascal?$AA@ 1003e040     LIBCMT:undname.obj
 0002:0000604c       ??_C@_09IFJBGAPI@__stdcall?$AA@ 1003e04c     LIBCMT:undname.obj
 0002:00006058       ??_C@_0L@NPHFGOKO@__thiscall?$AA@ 1003e058     LIBCMT:undname.obj
 0002:00006064       ??_C@_0L@JMKHOMEK@__fastcall?$AA@ 1003e064     LIBCMT:undname.obj
 0002:00006070       ??_C@_0N@BCKKPABJ@__vectorcall?$AA@ 1003e070     LIBCMT:undname.obj
 0002:00006080       ??_C@_09HIJEGCPM@__clrcall?$AA@ 1003e080     LIBCMT:undname.obj
 0002:0000608c       ??_C@_06GHPCKEAG@__eabi?$AA@ 1003e08c     LIBCMT:undname.obj
 0002:00006094       ??_C@_07JOMMBBKO@__ptr64?$AA@ 1003e094     LIBCMT:undname.obj
 0002:0000609c       ??_C@_0L@PILCLIHE@__restrict?$AA@ 1003e09c     LIBCMT:undname.obj
 0002:000060a8       ??_C@_0M@GFIIJFMG@__unaligned?$AA@ 1003e0a8     LIBCMT:undname.obj
 0002:000060b4       ??_C@_09DHDLOLLB@restrict?$CI?$AA@ 1003e0b4     LIBCMT:undname.obj
 0002:000060c0       ??_C@_04NIHEBCM@?5new?$AA@ 1003e0c0     LIBCMT:undname.obj
 0002:000060c8       ??_C@_07FPCDHGMM@?5delete?$AA@ 1003e0c8     LIBCMT:undname.obj
 0002:000060d0       ??_C@_02GPIOPFAK@?$DO?$DO?$AA@ 1003e0d0     LIBCMT:undname.obj
 0002:000060d4       ??_C@_02FODMEDOG@?$DM?$DM?$AA@ 1003e0d4     LIBCMT:undname.obj
 0002:000060d8       ??_C@_01DCLJPIOD@?$CB?$AA@ 1003e0d8     LIBCMT:undname.obj
 0002:000060dc       ??_C@_02EGOFBIJA@?$DN?$DN?$AA@ 1003e0dc     LIBCMT:undname.obj
 0002:000060e0       ??_C@_02FDNJECIE@?$CB?$DN?$AA@ 1003e0e0     LIBCMT:undname.obj
 0002:000060e4       ??_C@_02GPECMEKF@?$FL?$FN?$AA@ 1003e0e4     LIBCMT:undname.obj
 0002:000060e8       ??_C@_08LHJFAFGD@operator?$AA@ 1003e0e8     LIBCMT:undname.obj
 0002:000060f4       ??_C@_02HBOOOICD@?9?$DO?$AA@ 1003e0f4     LIBCMT:undname.obj
 0002:000060f8       ??_C@_01NBENCBCI@?$CK?$AA@ 1003e0f8     LIBCMT:undname.obj
 0002:000060fc       ??_C@_02ECNGHCIF@?$CL?$CL?$AA@ 1003e0fc     LIBCMT:undname.obj
 0002:00006100       ??_C@_01MIFGBAGJ@?$CL?$AA@ 1003e100     LIBCMT:undname.obj
 0002:00006104       ??_C@_03MNHNFDLC@?9?$DO?$CK?$AA@ 1003e104     LIBCMT:undname.obj
 0002:00006108       ??_C@_01FGNFDNOH@?$CF?$AA@ 1003e108     LIBCMT:undname.obj
 0002:0000610c       ??_C@_01MNNFJEPP@?$DM?$AA@ 1003e10c     LIBCMT:undname.obj
 0002:00006110       ??_C@_02EHCHHCKH@?$DM?$DN?$AA@ 1003e110     LIBCMT:undname.obj
 0002:00006114       ??_C@_02EEKDKGMJ@?$DO?$DN?$AA@ 1003e114     LIBCMT:undname.obj
 0002:00006118       ??_C@_01IHBHIGKO@?0?$AA@   1003e118     LIBCMT:undname.obj
 0002:0000611c       ??_C@_02HCKGKOFO@?$CI?$CJ?$AA@ 1003e11c     LIBCMT:undname.obj
 0002:00006120       ??_C@_01PJKLJHI@?$HO?$AA@  1003e120     LIBCMT:undname.obj
 0002:00006124       ??_C@_01JKBOJNNK@?$FO?$AA@ 1003e124     LIBCMT:undname.obj
 0002:00006128       ??_C@_01DNKMNLPK@?$HM?$AA@ 1003e128     LIBCMT:undname.obj
 0002:0000612c       ??_C@_02PPKAJPJL@?$CG?$CG?$AA@ 1003e12c     LIBCMT:undname.obj
 0002:00006130       ??_C@_02NONPIBCD@?$HM?$HM?$AA@ 1003e130     LIBCMT:undname.obj
 0002:00006134       ??_C@_02FPIMKNGF@?$CK?$DN?$AA@ 1003e134     LIBCMT:undname.obj
 0002:00006138       ??_C@_02FOEOMHFC@?$CL?$DN?$AA@ 1003e138     LIBCMT:undname.obj
 0002:0000613c       ??_C@_02FKMDLLOA@?9?$DN?$AA@ 1003e13c     LIBCMT:undname.obj
 0002:00006140       ??_C@_02FJEHGPIO@?1?$DN?$AA@ 1003e140     LIBCMT:undname.obj
 0002:00006144       ??_C@_02FENAOKFI@?$CF?$DN?$AA@ 1003e144     LIBCMT:undname.obj
 0002:00006148       ??_C@_03IKFCCPFF@?$DO?$DO?$DN?$AA@ 1003e148     LIBCMT:undname.obj
 0002:0000614c       ??_C@_03CDNPDDLA@?$DM?$DM?$DN?$AA@ 1003e14c     LIBCMT:undname.obj
 0002:00006150       ??_C@_02FGJGFEAB@?$CG?$DN?$AA@ 1003e150     LIBCMT:undname.obj
 0002:00006154       ??_C@_02DHLNPPGH@?$HM?$DN?$AA@ 1003e154     LIBCMT:undname.obj
 0002:00006158       ??_C@_02MHEGNOJ@?$FO?$DN?$AA@ 1003e158     LIBCMT:undname.obj
 0002:0000615c       ??_C@_09IFPLHPGF@?$GAvftable?8?$AA@ 1003e15c     LIBCMT:undname.obj
 0002:00006168       ??_C@_09BLBHBJP@?$GAvbtable?8?$AA@ 1003e168     LIBCMT:undname.obj
 0002:00006174       ??_C@_07FEEIOKP@?$GAvcall?8?$AA@ 1003e174     LIBCMT:undname.obj
 0002:0000617c       ??_C@_08LLFFHHDJ@?$GAtypeof?8?$AA@ 1003e17c     LIBCMT:undname.obj
 0002:00006188       ??_C@_0BF@KDPPACIK@?$GAlocal?5static?5guard?8?$AA@ 1003e188     LIBCMT:undname.obj
 0002:000061a0       ??_C@_08OBABFOLI@?$GAstring?8?$AA@ 1003e1a0     LIBCMT:undname.obj
 0002:000061ac       ??_C@_0BD@JDLKDPAB@?$GAvbase?5destructor?8?$AA@ 1003e1ac     LIBCMT:undname.obj
 0002:000061c0       ??_C@_0BN@DEGPLNFK@?$GAvector?5deleting?5destructor?8?$AA@ 1003e1c0     LIBCMT:undname.obj
 0002:000061e0       ??_C@_0BO@OBMKPJIG@?$GAdefault?5constructor?5closure?8?$AA@ 1003e1e0     LIBCMT:undname.obj
 0002:00006200       ??_C@_0BN@IMDCHIKM@?$GAscalar?5deleting?5destructor?8?$AA@ 1003e200     LIBCMT:undname.obj
 0002:00006220       ??_C@_0BO@PFGOCPJJ@?$GAvector?5constructor?5iterator?8?$AA@ 1003e220     LIBCMT:undname.obj
 0002:00006240       ??_C@_0BN@LFPFMEDL@?$GAvector?5destructor?5iterator?8?$AA@ 1003e240     LIBCMT:undname.obj
 0002:00006260       ??_C@_0CE@IKBNEHA@?$GAvector?5vbase?5constructor?5iterat@ 1003e260     LIBCMT:undname.obj
 0002:00006284       ??_C@_0BL@NILFHHPC@?$GAvirtual?5displacement?5map?8?$AA@ 1003e284     LIBCMT:undname.obj
 0002:000062a0       ??_C@_0CB@JONCMFFK@?$GAeh?5vector?5constructor?5iterator?8@ 1003e2a0     LIBCMT:undname.obj
 0002:000062c4       ??_C@_0CA@GCEOPDGL@?$GAeh?5vector?5destructor?5iterator?8?$AA@ 1003e2c4     LIBCMT:undname.obj
 0002:000062e4       ??_C@_0CH@OOJPLCPH@?$GAeh?5vector?5vbase?5constructor?5ite@ 1003e2e4     LIBCMT:undname.obj
 0002:0000630c       ??_C@_0BL@LLKPOHJI@?$GAcopy?5constructor?5closure?8?$AA@ 1003e30c     LIBCMT:undname.obj
 0002:00006328       ??_C@_0BA@KBCDOMBN@?$GAudt?5returning?8?$AA@ 1003e328     LIBCMT:undname.obj
 0002:00006338       ??_C@_03KLGMFNMG@?$GAEH?$AA@ 1003e338     LIBCMT:undname.obj
 0002:0000633c       ??_C@_05KHLCHHI@?$GARTTI?$AA@ 1003e33c     LIBCMT:undname.obj
 0002:00006344       ??_C@_0BA@KKLDJDLB@?$GAlocal?5vftable?8?$AA@ 1003e344     LIBCMT:undname.obj
 0002:00006354       ??_C@_0CE@IIHCMGGL@?$GAlocal?5vftable?5constructor?5closu@ 1003e354     LIBCMT:undname.obj
 0002:00006378       ??_C@_06FHBGPFGH@?5new?$FL?$FN?$AA@ 1003e378     LIBCMT:undname.obj
 0002:00006380       ??_C@_09LBNFPBCA@?5delete?$FL?$FN?$AA@ 1003e380     LIBCMT:undname.obj
 0002:0000638c       ??_C@_0P@HJKNJFNN@?$GAomni?5callsig?8?$AA@ 1003e38c     LIBCMT:undname.obj
 0002:0000639c       ??_C@_0BL@CNOONJFP@?$GAplacement?5delete?5closure?8?$AA@ 1003e39c     LIBCMT:undname.obj
 0002:000063b8       ??_C@_0BN@CKNJLHMB@?$GAplacement?5delete?$FL?$FN?5closure?8?$AA@ 1003e3b8     LIBCMT:undname.obj
 0002:000063d8       ??_C@_0CG@CFDHKGGD@?$GAmanaged?5vector?5constructor?5iter@ 1003e3d8     LIBCMT:undname.obj
 0002:00006400       ??_C@_0CF@IMGKMJNO@?$GAmanaged?5vector?5destructor?5itera@ 1003e400     LIBCMT:undname.obj
 0002:00006428       ??_C@_0CG@HLDDJMAG@?$GAeh?5vector?5copy?5constructor?5iter@ 1003e428     LIBCMT:undname.obj
 0002:00006450       ??_C@_0CM@FCBBDIGB@?$GAeh?5vector?5vbase?5copy?5constructo@ 1003e450     LIBCMT:undname.obj
 0002:0000647c       ??_C@_0BL@CLIPGLGB@?$GAdynamic?5initializer?5for?5?8?$AA@ 1003e47c     LIBCMT:undname.obj
 0002:00006498       ??_C@_0CB@PDBIFEP@?$GAdynamic?5atexit?5destructor?5for?5?8@ 1003e498     LIBCMT:undname.obj
 0002:000064bc       ??_C@_0CD@CGAJBKEJ@?$GAvector?5copy?5constructor?5iterato@ 1003e4bc     LIBCMT:undname.obj
 0002:000064e0       ??_C@_0CJ@GJELGAMM@?$GAvector?5vbase?5copy?5constructor?5i@ 1003e4e0     LIBCMT:undname.obj
 0002:0000650c       ??_C@_0CL@FGIJHLCE@?$GAmanaged?5vector?5copy?5constructor@ 1003e50c     LIBCMT:undname.obj
 0002:00006538       ??_C@_0BM@PMGGMLDN@?$GAlocal?5static?5thread?5guard?8?$AA@ 1003e538     LIBCMT:undname.obj
 0002:00006554       ??_C@_0BC@DAFEJGAK@?5Type?5Descriptor?8?$AA@ 1003e554     LIBCMT:undname.obj
 0002:00006568       ??_C@_0BM@LDKODKLH@?5Base?5Class?5Descriptor?5at?5?$CI?$AA@ 1003e568     LIBCMT:undname.obj
 0002:00006584       ??_C@_0BD@LGICGFMM@?5Base?5Class?5Array?8?$AA@ 1003e584     LIBCMT:undname.obj
 0002:00006598       ??_C@_0BN@MECKDCOJ@?5Class?5Hierarchy?5Descriptor?8?$AA@ 1003e598     LIBCMT:undname.obj
 0002:000065b8       ??_C@_0BK@CFCOFLF@?5Complete?5Object?5Locator?8?$AA@ 1003e5b8     LIBCMT:undname.obj
 0002:000065d4       ??_C@_04HEJADOOB@CV?3?5?$AA@ 1003e5d4     LIBCMT:undname.obj
 0002:000065dc       ??_C@_02MOLJINC@?3?3?$AA@  1003e5dc     LIBCMT:undname.obj
 0002:000065e0       ??_C@_0BE@JAEOCHPE@template?9parameter?9?$AA@ 1003e5e0     LIBCMT:undname.obj
 0002:000065f4       ??_C@_0O@KHGCOMHP@generic?9type?9?$AA@ 1003e5f4     LIBCMT:undname.obj
 0002:00006604       ??_C@_01NLNLIGKH@?$GA?$AA@ 1003e604     LIBCMT:undname.obj
 0002:00006608       ??_C@_01GEODFPGF@?8?$AA@   1003e608     LIBCMT:undname.obj
 0002:0000660c       ??_C@_0BG@JNJLAMPM@?$GAanonymous?5namespace?8?$AA@ 1003e60c     LIBCMT:undname.obj
 0002:00006624       ??_C@_02OHHJMEON@?8?8?$AA@ 1003e624     LIBCMT:undname.obj
 0002:00006628       ??_C@_0BN@IBLMMFAP@?$GAnon?9type?9template?9parameter?$AA@ 1003e628     LIBCMT:undname.obj
 0002:00006648       ??_C@_04GKJNKENE@void?$AA@ 1003e648     LIBCMT:undname.obj
 0002:00006650       ??_C@_0BE@EODMJLIF@?$GAtemplate?9parameter?$AA@ 1003e650     LIBCMT:undname.obj
 0002:00006664       ??_C@_03KHICJKCI@?4?4?4?$AA@ 1003e664     LIBCMT:undname.obj
 0002:00006668       ??_C@_04HIBGFPH@NULL?$AA@  1003e668     LIBCMT:undname.obj
 0002:00006670       ??_C@_03OPGICMGF@?$HN?8?5?$AA@ 1003e670     LIBCMT:undname.obj
 0002:00006674       ??_C@_02IGFCGPIL@?$HN?8?$AA@ 1003e674     LIBCMT:undname.obj
 0002:00006678       ??_C@_01CLKCMJKC@?5?$AA@   1003e678     LIBCMT:undname.obj
 0002:0000667c       ??_C@_0N@CBHHHENL@?$GAvtordispex?$HL?$AA@ 1003e67c     LIBCMT:undname.obj
 0002:0000668c       ??_C@_0L@GHPFDFH@?$GAvtordisp?$HL?$AA@ 1003e68c     LIBCMT:undname.obj
 0002:00006698       ??_C@_0L@HNGCOGAE@?$GAadjustor?$HL?$AA@ 1003e698     LIBCMT:undname.obj
 0002:000066a4       ??_C@_0CB@KJDOOODE@?$GAlocal?5static?5destructor?5helper?8@ 1003e6a4     LIBCMT:undname.obj
 0002:000066c8       ??_C@_0DB@ILEFOCIJ@?$GAtemplate?5static?5data?5member?5con@ 1003e6c8     LIBCMT:undname.obj
 0002:000066fc       ??_C@_0DA@HGFJFBBE@?$GAtemplate?5static?5data?5member?5des@ 1003e6fc     LIBCMT:undname.obj
 0002:0000672c       ??_C@_07PGOEDBHP@static?5?$AA@ 1003e72c     LIBCMT:undname.obj
 0002:00006734       ??_C@_08NIEOINHE@virtual?5?$AA@ 1003e734     LIBCMT:undname.obj
 0002:00006740       ??_C@_09LAPHOOG@private?3?5?$AA@ 1003e740     LIBCMT:undname.obj
 0002:0000674c       ??_C@_0M@GAIFPFIP@protected?3?5?$AA@ 1003e74c     LIBCMT:undname.obj
 0002:00006758       ??_C@_08GPDDCMKI@public?3?5?$AA@ 1003e758     LIBCMT:undname.obj
 0002:00006764       ??_C@_08KJLFOPNE@?$FLthunk?$FN?3?$AA@ 1003e764     LIBCMT:undname.obj
 0002:00006770       ??_C@_0M@DHNBOJMP@extern?5?$CCC?$CC?5?$AA@ 1003e770     LIBCMT:undname.obj
 0002:0000677c       ??_C@_02KCKGHPCA@?$CJ?5?$AA@ 1003e77c     LIBCMT:undname.obj
 0002:00006780       ??_C@_05CIHEBHNO@char?5?$AA@ 1003e780     LIBCMT:undname.obj
 0002:00006788       ??_C@_06EHJMALKF@short?5?$AA@ 1003e788     LIBCMT:undname.obj
 0002:00006790       ??_C@_04LAHKHJMA@int?5?$AA@ 1003e790     LIBCMT:undname.obj
 0002:00006798       ??_C@_05CJIMAING@long?5?$AA@ 1003e798     LIBCMT:undname.obj
 0002:000067a0       ??_C@_09EBBEKKIH@unsigned?5?$AA@ 1003e7a0     LIBCMT:undname.obj
 0002:000067ac       ??_C@_05BEFAKPML@void?5?$AA@ 1003e7ac     LIBCMT:undname.obj
 0002:000067b4       ??_C@_08PABEKFH@volatile?$AA@ 1003e7b4     LIBCMT:undname.obj
 0002:000067c0       ??_C@_0P@GCOCNKDM@std?3?3nullptr_t?$AA@ 1003e7c0     LIBCMT:undname.obj
 0002:000067d0       ??_C@_0L@EGPHHEKN@?$DMellipsis?$DO?$AA@ 1003e7d0     LIBCMT:undname.obj
 0002:000067dc       ??_C@_04EENFHACM@?0?4?4?4?$AA@ 1003e7dc     LIBCMT:undname.obj
 0002:000067e4       ??_C@_0M@ELJOJFFH@?0?$DMellipsis?$DO?$AA@ 1003e7e4     LIBCMT:undname.obj
 0002:000067f0       ??_C@_07HDJPLPEK@?5throw?$CI?$AA@ 1003e7f0     LIBCMT:undname.obj
 0002:000067f8       ??_C@_03PBJBJNON@cpu?$AA@  1003e7f8     LIBCMT:undname.obj
 0002:000067fc       ??_C@_03DCBBJBAA@amp?$AA@  1003e7fc     LIBCMT:undname.obj
 0002:00006800       ??_C@_02KEGNLNML@?0?5?$AA@ 1003e800     LIBCMT:undname.obj
 0002:00006804       ??_C@_04ENMBGAPA@char?$AA@ 1003e804     LIBCMT:undname.obj
 0002:0000680c       ??_C@_05BFKKPKCG@short?$AA@ 1003e80c     LIBCMT:undname.obj
 0002:00006814       ??_C@_03JBIPMCLC@int?$AA@  1003e814     LIBCMT:undname.obj
 0002:00006818       ??_C@_04GOKPGOLB@long?$AA@ 1003e818     LIBCMT:undname.obj
 0002:00006820       ??_C@_05KNFBNCOH@float?$AA@ 1003e820     LIBCMT:undname.obj
 0002:00006828       ??_C@_06BNJCAIGJ@double?$AA@ 1003e828     LIBCMT:undname.obj
 0002:00006830       ??_C@_04DDKJGDCM@bool?$AA@ 1003e830     LIBCMT:undname.obj
 0002:00006838       ??_C@_06EBGKOKIG@__int8?$AA@ 1003e838     LIBCMT:undname.obj
 0002:00006840       ??_C@_07ICFHOGAF@__int16?$AA@ 1003e840     LIBCMT:undname.obj
 0002:00006848       ??_C@_07OFLPPHGP@__int32?$AA@ 1003e848     LIBCMT:undname.obj
 0002:00006850       ??_C@_07LFCOJCAC@__int64?$AA@ 1003e850     LIBCMT:undname.obj
 0002:00006858       ??_C@_08GAHOLHEO@__int128?$AA@ 1003e858     LIBCMT:undname.obj
 0002:00006864       ??_C@_09EEKGDCPH@?$DMunknown?$DO?$AA@ 1003e864     LIBCMT:undname.obj
 0002:00006870       ??_C@_07CLGGIAMF@wchar_t?$AA@ 1003e870     LIBCMT:undname.obj
 0002:00006878       ??_C@_06GCICPBLB@__w64?5?$AA@ 1003e878     LIBCMT:undname.obj
 0002:00006880       ??_C@_07NFANNNEC@UNKNOWN?$AA@ 1003e880     LIBCMT:undname.obj
 0002:00006888       ??_C@_07EDHNAJHC@signed?5?$AA@ 1003e888     LIBCMT:undname.obj
 0002:00006890       ??_C@_05BNCCCJPP@const?$AA@ 1003e890     LIBCMT:undname.obj
 0002:00006898       ??_C@_09EFNPDFFP@?5volatile?$AA@ 1003e898     LIBCMT:undname.obj
 0002:000068a4       ??_C@_0P@GCIFDJCJ@?$GAunknown?5ecsu?8?$AA@ 1003e8a4     LIBCMT:undname.obj
 0002:000068b4       ??_C@_06MOJHIBMG@union?5?$AA@ 1003e8b4     LIBCMT:undname.obj
 0002:000068bc       ??_C@_07DIBCDNGL@struct?5?$AA@ 1003e8bc     LIBCMT:undname.obj
 0002:000068c4       ??_C@_06LJBABKPM@class?5?$AA@ 1003e8c4     LIBCMT:undname.obj
 0002:000068cc       ??_C@_08KOFANOFK@coclass?5?$AA@ 1003e8cc     LIBCMT:undname.obj
 0002:000068d8       ??_C@_0N@DLIEFKNA@cointerface?5?$AA@ 1003e8d8     LIBCMT:undname.obj
 0002:000068e8       ??_C@_05LJGMCFOG@enum?5?$AA@ 1003e8e8     LIBCMT:undname.obj
 0002:000068f0       ??_C@_09GAIEOBLP@volatile?5?$AA@ 1003e8f0     LIBCMT:undname.obj
 0002:000068fc       ??_C@_06LIJLOJAG@const?5?$AA@ 1003e8fc     LIBCMT:undname.obj
 0002:00006904       ??_C@_0M@EALIELKG@cli?3?3array?$DM?$AA@ 1003e904     LIBCMT:undname.obj
 0002:00006910       ??_C@_0O@GKABPPIF@cli?3?3pin_ptr?$DM?$AA@ 1003e910     LIBCMT:undname.obj
 0002:00006920       ??_C@_02GOGNNPBN@?$CJ?$FL?$AA@ 1003e920     LIBCMT:undname.obj
 0002:00006924       ??_C@_06EEGAIFAK@?$HLflat?$HN?$AA@ 1003e924     LIBCMT:undname.obj
 0002:0000692c       ??_C@_05JIBOFOHK@?$HLfor?5?$AA@ 1003e92c     LIBCMT:undname.obj
 0002:00006934       ??_C@_02MDINNEEG@s?5?$AA@  1003e934     LIBCMT:undname.obj
 0002:0000693c       ??_7DNameNode@@6B@         1003e93c     LIBCMT:undname.obj
 0002:0000694c       ??_7charNode@@6B@          1003e94c     LIBCMT:undname.obj
 0002:0000695c       ??_7pcharNode@@6B@         1003e95c     LIBCMT:undname.obj
 0002:0000696c       ??_7pDNameNode@@6B@        1003e96c     LIBCMT:undname.obj
 0002:0000697c       ??_7DNameStatusNode@@6B@   1003e97c     LIBCMT:undname.obj
 0002:0000698c       ??_7pairNode@@6B@          1003e98c     LIBCMT:undname.obj
 0002:00006998       ??_C@_04OKOHEJBO@?5?$DP?$DP?5?$AA@ 1003e998     LIBCMT:undname.obj
 0002:000069a0       ___lc_category             1003e9a0     LIBCMT:wsetloca.obj
 0002:000069e8       ??_C@_1O@GIFLHMA@?$AAL?$AAC?$AA_?$AAA?$AAL?$AAL?$AA?$AA@ 1003e9e8     LIBCMT:wsetloca.obj
 0002:000069f8       ??_C@_1BG@PPOMIBNJ@?$AAL?$AAC?$AA_?$AAC?$AAO?$AAL?$AAL?$AAA?$AAT?$AAE?$AA?$AA@ 1003e9f8     LIBCMT:wsetloca.obj
 0002:00006a10       ??_C@_1BC@FFJGAPJM@?$AAL?$AAC?$AA_?$AAC?$AAT?$AAY?$AAP?$AAE?$AA?$AA@ 1003ea10     LIBCMT:wsetloca.obj
 0002:00006a24       ??_C@_1BI@PCKFNJFB@?$AAL?$AAC?$AA_?$AAM?$AAO?$AAN?$AAE?$AAT?$AAA?$AAR?$AAY?$AA?$AA@ 1003ea24     LIBCMT:wsetloca.obj
 0002:00006a3c       ??_C@_1BG@ENIEDKID@?$AAL?$AAC?$AA_?$AAN?$AAU?$AAM?$AAE?$AAR?$AAI?$AAC?$AA?$AA@ 1003ea3c     LIBCMT:wsetloca.obj
 0002:00006a54       ??_C@_1BA@HAAOMIIG@?$AAL?$AAC?$AA_?$AAT?$AAI?$AAM?$AAE?$AA?$AA@ 1003ea54     LIBCMT:wsetloca.obj
 0002:00006ae8       ??_C@_15NBPDDFIP@?$AA?$DN?$AA?$DL?$AA?$AA@ 1003eae8     LIBCMT:wsetloca.obj
 0002:00006af0       ??_C@_13PJJBFPED@?$AA?$DL?$AA?$AA@ 1003eaf0     LIBCMT:wsetloca.obj
 0002:00006af4       ??_C@_13NMPKAAJP@?$AA?$DN?$AA?$AA@ 1003eaf4     LIBCMT:wsetloca.obj
 0002:00006af8       ??_C@_13FHBKNHDA@?$AAC?$AA?$AA@ 1003eaf8     LIBCMT:wsetloca.obj
 0002:00006afc       ??_C@_17MBJJLFDM@?$AA_?$AA?4?$AA?0?$AA?$AA@ 1003eafc     LIBCMT:wsetloca.obj
 0002:00006b04       ??_C@_13ENNFDPBH@?$AA_?$AA?$AA@ 1003eb04     LIBCMT:wsetloca.obj
 0002:00006b08       ??_C@_13JOFGPIOO@?$AA?4?$AA?$AA@ 1003eb08     LIBCMT:wsetloca.obj
 0002:00006b10       __indefinite               1003eb10     LIBCMT:87disp.obj
 0002:00006b1a       __piby2                    1003eb1a     LIBCMT:87disp.obj
 0002:00006b48       __DEFAULT_CW_in_mem        1003eb48     LIBCMT:common.obj
 0002:00006b4a       __pi_by_2_to_61            1003eb4a     LIBCMT:common.obj
 0002:00006b88       ___rg_language             1003eb88     LIBCMT:getqloc.obj
 0002:00006e94       ??_C@_1BC@LLOKLNP@?$AAa?$AAm?$AAe?$AAr?$AAi?$AAc?$AAa?$AAn?$AA?$AA@ 1003ee94     LIBCMT:getqloc.obj
 0002:00006ea8       ??_C@_1CC@HEIGCDGG@?$AAa?$AAm?$AAe?$AAr?$AAi?$AAc?$AAa?$AAn?$AA?5?$AAe?$AAn?$AAg?$AAl?$AAi?$AAs?$AAh?$AA?$AA@ 1003eea8     LIBCMT:getqloc.obj
 0002:00006ecc       ??_C@_1CC@IHCNOMIN@?$AAa?$AAm?$AAe?$AAr?$AAi?$AAc?$AAa?$AAn?$AA?9?$AAe?$AAn?$AAg?$AAl?$AAi?$AAs?$AAh?$AA?$AA@ 1003eecc     LIBCMT:getqloc.obj
 0002:00006ef0       ??_C@_1BG@GKAGPCGG@?$AAa?$AAu?$AAs?$AAt?$AAr?$AAa?$AAl?$AAi?$AAa?$AAn?$AA?$AA@ 1003eef0     LIBCMT:getqloc.obj
 0002:00006f08       ??_C@_1BA@GMENCENF@?$AAb?$AAe?$AAl?$AAg?$AAi?$AAa?$AAn?$AA?$AA@ 1003ef08     LIBCMT:getqloc.obj
 0002:00006f18       ??_C@_1BC@PJMIIAAN@?$AAc?$AAa?$AAn?$AAa?$AAd?$AAi?$AAa?$AAn?$AA?$AA@ 1003ef18     LIBCMT:getqloc.obj
 0002:00006f2c       ??_C@_17NOIMNFBF@?$AAc?$AAh?$AAh?$AA?$AA@ 1003ef2c     LIBCMT:getqloc.obj
 0002:00006f34       ??_C@_17GGDALCHA@?$AAc?$AAh?$AAi?$AA?$AA@ 1003ef34     LIBCMT:getqloc.obj
 0002:00006f3c       ??_C@_1BA@NPNJKIBL@?$AAc?$AAh?$AAi?$AAn?$AAe?$AAs?$AAe?$AA?$AA@ 1003ef3c     LIBCMT:getqloc.obj
 0002:00006f4c       ??_C@_1CC@DINBAMMJ@?$AAc?$AAh?$AAi?$AAn?$AAe?$AAs?$AAe?$AA?9?$AAh?$AAo?$AAn?$AAg?$AAk?$AAo?$AAn?$AAg?$AA?$AA@ 1003ef4c     LIBCMT:getqloc.obj
 0002:00006f70       ??_C@_1CG@IOBJPACO@?$AAc?$AAh?$AAi?$AAn?$AAe?$AAs?$AAe?$AA?9?$AAs?$AAi?$AAm?$AAp?$AAl?$AAi?$AAf?$AAi?$AAe?$AAd?$AA?$AA@ 1003ef70     LIBCMT:getqloc.obj
 0002:00006f98       ??_C@_1CE@GAJNDCKG@?$AAc?$AAh?$AAi?$AAn?$AAe?$AAs?$AAe?$AA?9?$AAs?$AAi?$AAn?$AAg?$AAa?$AAp?$AAo?$AAr?$AAe?$AA?$AA@ 1003ef98     LIBCMT:getqloc.obj
 0002:00006fbc       ??_C@_1CI@PAJPIOOD@?$AAc?$AAh?$AAi?$AAn?$AAe?$AAs?$AAe?$AA?9?$AAt?$AAr?$AAa?$AAd?$AAi?$AAt?$AAi?$AAo?$AAn?$AAa?$AAl?$AA?$AA@ 1003efbc     LIBCMT:getqloc.obj
 0002:00006fe4       ??_C@_1BM@NILJBMMD@?$AAd?$AAu?$AAt?$AAc?$AAh?$AA?9?$AAb?$AAe?$AAl?$AAg?$AAi?$AAa?$AAn?$AA?$AA@ 1003efe4     LIBCMT:getqloc.obj
 0002:00007000       ??_C@_1CC@OOJPJNEJ@?$AAe?$AAn?$AAg?$AAl?$AAi?$AAs?$AAh?$AA?9?$AAa?$AAm?$AAe?$AAr?$AAi?$AAc?$AAa?$AAn?$AA?$AA@ 1003f000     LIBCMT:getqloc.obj
 0002:00007024       ??_C@_1BI@IOLFEEM@?$AAe?$AAn?$AAg?$AAl?$AAi?$AAs?$AAh?$AA?9?$AAa?$AAu?$AAs?$AA?$AA@ 1003f024     LIBCMT:getqloc.obj
 0002:0000703c       ??_C@_1BO@HFFNLENJ@?$AAe?$AAn?$AAg?$AAl?$AAi?$AAs?$AAh?$AA?9?$AAb?$AAe?$AAl?$AAi?$AAz?$AAe?$AA?$AA@ 1003f03c     LIBCMT:getqloc.obj
 0002:0000705c       ??_C@_1BI@HAPKJMPO@?$AAe?$AAn?$AAg?$AAl?$AAi?$AAs?$AAh?$AA?9?$AAc?$AAa?$AAn?$AA?$AA@ 1003f05c     LIBCMT:getqloc.obj
 0002:00007074       ??_C@_1CE@HLNDMIOJ@?$AAe?$AAn?$AAg?$AAl?$AAi?$AAs?$AAh?$AA?9?$AAc?$AAa?$AAr?$AAi?$AAb?$AAb?$AAe?$AAa?$AAn?$AA?$AA@ 1003f074     LIBCMT:getqloc.obj
 0002:00007098       ??_C@_1BI@LDHJHHAC@?$AAe?$AAn?$AAg?$AAl?$AAi?$AAs?$AAh?$AA?9?$AAi?$AAr?$AAe?$AA?$AA@ 1003f098     LIBCMT:getqloc.obj
 0002:000070b0       ??_C@_1CA@NJMMCFOC@?$AAe?$AAn?$AAg?$AAl?$AAi?$AAs?$AAh?$AA?9?$AAj?$AAa?$AAm?$AAa?$AAi?$AAc?$AAa?$AA?$AA@ 1003f0b0     LIBCMT:getqloc.obj
 0002:000070d0       ??_C@_1BG@BHJEBBGG@?$AAe?$AAn?$AAg?$AAl?$AAi?$AAs?$AAh?$AA?9?$AAn?$AAz?$AA?$AA@ 1003f0d0     LIBCMT:getqloc.obj
 0002:000070e8       ??_C@_1CK@FGOEJJCO@?$AAe?$AAn?$AAg?$AAl?$AAi?$AAs?$AAh?$AA?9?$AAs?$AAo?$AAu?$AAt?$AAh?$AA?5?$AAa?$AAf?$AAr?$AAi?$AAc?$AAa?$AA?$AA@ 1003f0e8     LIBCMT:getqloc.obj
 0002:00007114       ??_C@_1DE@PDBJPCJ@?$AAe?$AAn?$AAg?$AAl?$AAi?$AAs?$AAh?$AA?9?$AAt?$AAr?$AAi?$AAn?$AAi?$AAd?$AAa?$AAd?$AA?5?$AAy?$AA?5?$AAt?$AAo?$AAb?$AAa?$AAg?$AAo?$AA?$AA@ 1003f114     LIBCMT:getqloc.obj
 0002:00007148       ??_C@_1BG@JGCANDME@?$AAe?$AAn?$AAg?$AAl?$AAi?$AAs?$AAh?$AA?9?$AAu?$AAk?$AA?$AA@ 1003f148     LIBCMT:getqloc.obj
 0002:00007160       ??_C@_1BG@DINKMLE@?$AAe?$AAn?$AAg?$AAl?$AAi?$AAs?$AAh?$AA?9?$AAu?$AAs?$AA?$AA@ 1003f160     LIBCMT:getqloc.obj
 0002:00007178       ??_C@_1BI@NMFDBHJE@?$AAe?$AAn?$AAg?$AAl?$AAi?$AAs?$AAh?$AA?9?$AAu?$AAs?$AAa?$AA?$AA@ 1003f178     LIBCMT:getqloc.obj
 0002:00007190       ??_C@_1BO@OIHKJKII@?$AAf?$AAr?$AAe?$AAn?$AAc?$AAh?$AA?9?$AAb?$AAe?$AAl?$AAg?$AAi?$AAa?$AAn?$AA?$AA@ 1003f190     LIBCMT:getqloc.obj
 0002:000071b0       ??_C@_1CA@NKAELJKI@?$AAf?$AAr?$AAe?$AAn?$AAc?$AAh?$AA?9?$AAc?$AAa?$AAn?$AAa?$AAd?$AAi?$AAa?$AAn?$AA?$AA@ 1003f1b0     LIBCMT:getqloc.obj
 0002:000071d0       ??_C@_1CE@MGKCNLGN@?$AAf?$AAr?$AAe?$AAn?$AAc?$AAh?$AA?9?$AAl?$AAu?$AAx?$AAe?$AAm?$AAb?$AAo?$AAu?$AAr?$AAg?$AA?$AA@ 1003f1d0     LIBCMT:getqloc.obj
 0002:000071f4       ??_C@_1BK@CEGEAILM@?$AAf?$AAr?$AAe?$AAn?$AAc?$AAh?$AA?9?$AAs?$AAw?$AAi?$AAs?$AAs?$AA?$AA@ 1003f1f4     LIBCMT:getqloc.obj
 0002:00007210       ??_C@_1CA@PAFKEOCC@?$AAg?$AAe?$AAr?$AAm?$AAa?$AAn?$AA?9?$AAa?$AAu?$AAs?$AAt?$AAr?$AAi?$AAa?$AAn?$AA?$AA@ 1003f210     LIBCMT:getqloc.obj
 0002:00007230       ??_C@_1CI@HCFHGOFD@?$AAg?$AAe?$AAr?$AAm?$AAa?$AAn?$AA?9?$AAl?$AAi?$AAc?$AAh?$AAt?$AAe?$AAn?$AAs?$AAt?$AAe?$AAi?$AAn?$AA?$AA@ 1003f230     LIBCMT:getqloc.obj
 0002:00007258       ??_C@_1CE@FEDDNPDG@?$AAg?$AAe?$AAr?$AAm?$AAa?$AAn?$AA?9?$AAl?$AAu?$AAx?$AAe?$AAm?$AAb?$AAo?$AAu?$AAr?$AAg?$AA?$AA@ 1003f258     LIBCMT:getqloc.obj
 0002:0000727c       ??_C@_1BK@LIMINNMN@?$AAg?$AAe?$AAr?$AAm?$AAa?$AAn?$AA?9?$AAs?$AAw?$AAi?$AAs?$AAs?$AA?$AA@ 1003f27c     LIBCMT:getqloc.obj
 0002:00007298       ??_C@_1BM@LGMDBEPD@?$AAi?$AAr?$AAi?$AAs?$AAh?$AA?9?$AAe?$AAn?$AAg?$AAl?$AAi?$AAs?$AAh?$AA?$AA@ 1003f298     LIBCMT:getqloc.obj
 0002:000072b4       ??_C@_1BM@NNCFBAEE@?$AAi?$AAt?$AAa?$AAl?$AAi?$AAa?$AAn?$AA?9?$AAs?$AAw?$AAi?$AAs?$AAs?$AA?$AA@ 1003f2b4     LIBCMT:getqloc.obj
 0002:000072d0       ??_C@_1BE@FEDJNPIB@?$AAn?$AAo?$AAr?$AAw?$AAe?$AAg?$AAi?$AAa?$AAn?$AA?$AA@ 1003f2d0     LIBCMT:getqloc.obj
 0002:000072e4       ??_C@_1CC@CILKDEIE@?$AAn?$AAo?$AAr?$AAw?$AAe?$AAg?$AAi?$AAa?$AAn?$AA?9?$AAb?$AAo?$AAk?$AAm?$AAa?$AAl?$AA?$AA@ 1003f2e4     LIBCMT:getqloc.obj
 0002:00007308       ??_C@_1CE@DHMMHEPL@?$AAn?$AAo?$AAr?$AAw?$AAe?$AAg?$AAi?$AAa?$AAn?$AA?9?$AAn?$AAy?$AAn?$AAo?$AAr?$AAs?$AAk?$AA?$AA@ 1003f308     LIBCMT:getqloc.obj
 0002:0000732c       ??_C@_1CK@OPNMHECD@?$AAp?$AAo?$AAr?$AAt?$AAu?$AAg?$AAu?$AAe?$AAs?$AAe?$AA?9?$AAb?$AAr?$AAa?$AAz?$AAi?$AAl?$AAi?$AAa?$AAn?$AA?$AA@ 1003f32c     LIBCMT:getqloc.obj
 0002:00007358       ??_C@_1CE@KEEHCDB@?$AAs?$AAp?$AAa?$AAn?$AAi?$AAs?$AAh?$AA?9?$AAa?$AAr?$AAg?$AAe?$AAn?$AAt?$AAi?$AAn?$AAa?$AA?$AA@ 1003f358     LIBCMT:getqloc.obj
 0002:0000737c       ??_C@_1CA@GIAOLHJD@?$AAs?$AAp?$AAa?$AAn?$AAi?$AAs?$AAh?$AA?9?$AAb?$AAo?$AAl?$AAi?$AAv?$AAi?$AAa?$AA?$AA@ 1003f37c     LIBCMT:getqloc.obj
 0002:0000739c       ??_C@_1BM@OJNDFNPD@?$AAs?$AAp?$AAa?$AAn?$AAi?$AAs?$AAh?$AA?9?$AAc?$AAh?$AAi?$AAl?$AAe?$AA?$AA@ 1003f39c     LIBCMT:getqloc.obj
 0002:000073b8       ??_C@_1CC@OCOLPALL@?$AAs?$AAp?$AAa?$AAn?$AAi?$AAs?$AAh?$AA?9?$AAc?$AAo?$AAl?$AAo?$AAm?$AAb?$AAi?$AAa?$AA?$AA@ 1003f3b8     LIBCMT:getqloc.obj
 0002:000073dc       ??_C@_1CG@BPOFMKBB@?$AAs?$AAp?$AAa?$AAn?$AAi?$AAs?$AAh?$AA?9?$AAc?$AAo?$AAs?$AAt?$AAa?$AA?5?$AAr?$AAi?$AAc?$AAa?$AA?$AA@ 1003f3dc     LIBCMT:getqloc.obj
 0002:00007404       ??_C@_1DG@IGOBAPBB@?$AAs?$AAp?$AAa?$AAn?$AAi?$AAs?$AAh?$AA?9?$AAd?$AAo?$AAm?$AAi?$AAn?$AAi?$AAc?$AAa?$AAn?$AA?5?$AAr?$AAe?$AAp?$AAu?$AAb?$AAl?$AAi?$AAc?$AA?$AA@ 1003f404     LIBCMT:getqloc.obj
 0002:0000743c       ??_C@_1CA@JHAPGEGI@?$AAs?$AAp?$AAa?$AAn?$AAi?$AAs?$AAh?$AA?9?$AAe?$AAc?$AAu?$AAa?$AAd?$AAo?$AAr?$AA?$AA@ 1003f43c     LIBCMT:getqloc.obj
 0002:0000745c       ??_C@_1CI@LAPALJPP@?$AAs?$AAp?$AAa?$AAn?$AAi?$AAs?$AAh?$AA?9?$AAe?$AAl?$AA?5?$AAs?$AAa?$AAl?$AAv?$AAa?$AAd?$AAo?$AAr?$AA?$AA@ 1003f45c     LIBCMT:getqloc.obj
 0002:00007484       ??_C@_1CE@PDGBOFOM@?$AAs?$AAp?$AAa?$AAn?$AAi?$AAs?$AAh?$AA?9?$AAg?$AAu?$AAa?$AAt?$AAe?$AAm?$AAa?$AAl?$AAa?$AA?$AA@ 1003f484     LIBCMT:getqloc.obj
 0002:000074a8       ??_C@_1CC@NBEBAODI@?$AAs?$AAp?$AAa?$AAn?$AAi?$AAs?$AAh?$AA?9?$AAh?$AAo?$AAn?$AAd?$AAu?$AAr?$AAa?$AAs?$AA?$AA@ 1003f4a8     LIBCMT:getqloc.obj
 0002:000074cc       ??_C@_1CA@LLKGHBMF@?$AAs?$AAp?$AAa?$AAn?$AAi?$AAs?$AAh?$AA?9?$AAm?$AAe?$AAx?$AAi?$AAc?$AAa?$AAn?$AA?$AA@ 1003f4cc     LIBCMT:getqloc.obj
 0002:000074ec       ??_C@_1BO@LKNDOIGD@?$AAs?$AAp?$AAa?$AAn?$AAi?$AAs?$AAh?$AA?9?$AAm?$AAo?$AAd?$AAe?$AAr?$AAn?$AA?$AA@ 1003f4ec     LIBCMT:getqloc.obj
 0002:0000750c       ??_C@_1CE@NMDMOEEB@?$AAs?$AAp?$AAa?$AAn?$AAi?$AAs?$AAh?$AA?9?$AAn?$AAi?$AAc?$AAa?$AAr?$AAa?$AAg?$AAu?$AAa?$AA?$AA@ 1003f50c     LIBCMT:getqloc.obj
 0002:00007530       ??_C@_1BO@LLCBEJGB@?$AAs?$AAp?$AAa?$AAn?$AAi?$AAs?$AAh?$AA?9?$AAp?$AAa?$AAn?$AAa?$AAm?$AAa?$AA?$AA@ 1003f530     LIBCMT:getqloc.obj
 0002:00007550       ??_C@_1CC@FKPGGIHO@?$AAs?$AAp?$AAa?$AAn?$AAi?$AAs?$AAh?$AA?9?$AAp?$AAa?$AAr?$AAa?$AAg?$AAu?$AAa?$AAy?$AA?$AA@ 1003f550     LIBCMT:getqloc.obj
 0002:00007574       ??_C@_1BK@CDEIHOOP@?$AAs?$AAp?$AAa?$AAn?$AAi?$AAs?$AAh?$AA?9?$AAp?$AAe?$AAr?$AAu?$AA?$AA@ 1003f574     LIBCMT:getqloc.obj
 0002:00007590       ??_C@_1CI@GAHAKKGP@?$AAs?$AAp?$AAa?$AAn?$AAi?$AAs?$AAh?$AA?9?$AAp?$AAu?$AAe?$AAr?$AAt?$AAo?$AA?5?$AAr?$AAi?$AAc?$AAo?$AA?$AA@ 1003f590     LIBCMT:getqloc.obj
 0002:000075b8       ??_C@_1CA@NKJBCAGP@?$AAs?$AAp?$AAa?$AAn?$AAi?$AAs?$AAh?$AA?9?$AAu?$AAr?$AAu?$AAg?$AAu?$AAa?$AAy?$AA?$AA@ 1003f5b8     LIBCMT:getqloc.obj
 0002:000075d8       ??_C@_1CE@ODILCONM@?$AAs?$AAp?$AAa?$AAn?$AAi?$AAs?$AAh?$AA?9?$AAv?$AAe?$AAn?$AAe?$AAz?$AAu?$AAe?$AAl?$AAa?$AA?$AA@ 1003f5d8     LIBCMT:getqloc.obj
 0002:000075fc       ??_C@_1CA@OBNMCGFO@?$AAs?$AAw?$AAe?$AAd?$AAi?$AAs?$AAh?$AA?9?$AAf?$AAi?$AAn?$AAl?$AAa?$AAn?$AAd?$AA?$AA@ 1003f5fc     LIBCMT:getqloc.obj
 0002:0000761c       ??_C@_1M@PIPDDPPI@?$AAs?$AAw?$AAi?$AAs?$AAs?$AA?$AA@ 1003f61c     LIBCMT:getqloc.obj
 0002:00007628       ??_C@_15GMFIMNFM@?$AAu?$AAs?$AA?$AA@ 1003f628     LIBCMT:getqloc.obj
 0002:00007630       ??_C@_17HAEBFAGL@?$AAu?$AAs?$AAa?$AA?$AA@ 1003f630     LIBCMT:getqloc.obj
 0002:00007638       ___rg_country              1003f638     LIBCMT:getqloc.obj
 0002:0000774c       ??_C@_1BA@DPFJEPHB@?$AAa?$AAm?$AAe?$AAr?$AAi?$AAc?$AAa?$AA?$AA@ 1003f74c     LIBCMT:getqloc.obj
 0002:0000775c       ??_C@_1BA@ELOGGFK@?$AAb?$AAr?$AAi?$AAt?$AAa?$AAi?$AAn?$AA?$AA@ 1003f75c     LIBCMT:getqloc.obj
 0002:0000776c       ??_C@_1M@GHBGIGDA@?$AAc?$AAh?$AAi?$AAn?$AAa?$AA?$AA@ 1003f76c     LIBCMT:getqloc.obj
 0002:00007778       ??_C@_1M@NCHEJOPO@?$AAc?$AAz?$AAe?$AAc?$AAh?$AA?$AA@ 1003f778     LIBCMT:getqloc.obj
 0002:00007784       ??_C@_1BA@BKPAPBLA@?$AAe?$AAn?$AAg?$AAl?$AAa?$AAn?$AAd?$AA?$AA@ 1003f784     LIBCMT:getqloc.obj
 0002:00007794       ??_C@_1BM@HKBCKIPC@?$AAg?$AAr?$AAe?$AAa?$AAt?$AA?5?$AAb?$AAr?$AAi?$AAt?$AAa?$AAi?$AAn?$AA?$AA@ 1003f794     LIBCMT:getqloc.obj
 0002:000077b0       ??_C@_1BA@PPCHPGJB@?$AAh?$AAo?$AAl?$AAl?$AAa?$AAn?$AAd?$AA?$AA@ 1003f7b0     LIBCMT:getqloc.obj
 0002:000077c0       ??_C@_1BE@JBMPEGDG@?$AAh?$AAo?$AAn?$AAg?$AA?9?$AAk?$AAo?$AAn?$AAg?$AA?$AA@ 1003f7c0     LIBCMT:getqloc.obj
 0002:000077d4       ??_C@_1BI@KOELBBPJ@?$AAn?$AAe?$AAw?$AA?9?$AAz?$AAe?$AAa?$AAl?$AAa?$AAn?$AAd?$AA?$AA@ 1003f7d4     LIBCMT:getqloc.obj
 0002:000077ec       ??_C@_15HIEBHAIO@?$AAn?$AAz?$AA?$AA@ 1003f7ec     LIBCMT:getqloc.obj
 0002:000077f4       ??_C@_1BC@CHBCPFPI@?$AAp?$AAr?$AA?5?$AAc?$AAh?$AAi?$AAn?$AAa?$AA?$AA@ 1003f7f4     LIBCMT:getqloc.obj
 0002:00007808       ??_C@_1BC@JAOIIFKD@?$AAp?$AAr?$AA?9?$AAc?$AAh?$AAi?$AAn?$AAa?$AA?$AA@ 1003f808     LIBCMT:getqloc.obj
 0002:0000781c       ??_C@_1BI@BEHPPHKC@?$AAp?$AAu?$AAe?$AAr?$AAt?$AAo?$AA?9?$AAr?$AAi?$AAc?$AAo?$AA?$AA@ 1003f81c     LIBCMT:getqloc.obj
 0002:00007834       ??_C@_1O@PAEOFKDI@?$AAs?$AAl?$AAo?$AAv?$AAa?$AAk?$AA?$AA@ 1003f834     LIBCMT:getqloc.obj
 0002:00007844       ??_C@_1BK@FIHMCKAM@?$AAs?$AAo?$AAu?$AAt?$AAh?$AA?5?$AAa?$AAf?$AAr?$AAi?$AAc?$AAa?$AA?$AA@ 1003f844     LIBCMT:getqloc.obj
 0002:00007860       ??_C@_1BI@NAEOODKB@?$AAs?$AAo?$AAu?$AAt?$AAh?$AA?5?$AAk?$AAo?$AAr?$AAe?$AAa?$AA?$AA@ 1003f860     LIBCMT:getqloc.obj
 0002:00007878       ??_C@_1BK@FBDGGIFF@?$AAs?$AAo?$AAu?$AAt?$AAh?$AA?9?$AAa?$AAf?$AAr?$AAi?$AAc?$AAa?$AA?$AA@ 1003f878     LIBCMT:getqloc.obj
 0002:00007894       ??_C@_1BI@GHLEJDPK@?$AAs?$AAo?$AAu?$AAt?$AAh?$AA?9?$AAk?$AAo?$AAr?$AAe?$AAa?$AA?$AA@ 1003f894     LIBCMT:getqloc.obj
 0002:000078ac       ??_C@_1CE@PLHLOMJF@?$AAt?$AAr?$AAi?$AAn?$AAi?$AAd?$AAa?$AAd?$AA?5?$AA?$CG?$AA?5?$AAt?$AAo?$AAb?$AAa?$AAg?$AAo?$AA?$AA@ 1003f8ac     LIBCMT:getqloc.obj
 0002:000078d0       ??_C@_1BO@MODIMHHI@?$AAu?$AAn?$AAi?$AAt?$AAe?$AAd?$AA?9?$AAk?$AAi?$AAn?$AAg?$AAd?$AAo?$AAm?$AA?$AA@ 1003f8d0     LIBCMT:getqloc.obj
 0002:000078f0       ??_C@_1BM@FFHJONBJ@?$AAu?$AAn?$AAi?$AAt?$AAe?$AAd?$AA?9?$AAs?$AAt?$AAa?$AAt?$AAe?$AAs?$AA?$AA@ 1003f8f0     LIBCMT:getqloc.obj
 0002:0000790c       ___rg_language_count       1003f90c     LIBCMT:getqloc.obj
 0002:00007910       ___rg_country_count        1003f910     LIBCMT:getqloc.obj
 0002:00007914       ??_C@_17DNCLJFIF@?$AAA?$AAC?$AAP?$AA?$AA@ 1003f914     LIBCMT:getqloc.obj
 0002:0000791c       ??_C@_17CIKBIHLH@?$AAO?$AAC?$AAP?$AA?$AA@ 1003f91c     LIBCMT:getqloc.obj
 0002:00007924       ___rglangidNotDefault      1003f924     LIBCMT:getqloc_downlevel.obj
 0002:00007938       ??_C@_06PGGFOGJG@1?$CDSNAN?$AA@ 1003f938     LIBCMT:x10fout.obj
 0002:00007940       ??_C@_05PHHOCPM@1?$CDIND?$AA@ 1003f940     LIBCMT:x10fout.obj
 0002:00007948       ??_C@_05DNEBIAHO@1?$CDINF?$AA@ 1003f948     LIBCMT:x10fout.obj
 0002:00007950       ??_C@_06IMKFLFPG@1?$CDQNAN?$AA@ 1003f950     LIBCMT:x10fout.obj
 0002:00007958       ??_C@_0M@HHGEPIBF@CreateFile2?$AA@ 1003f958     LIBCMT:wopen.obj
 0002:00007964       ??_C@_1BA@BALFACEM@?$AAC?$AAO?$AAN?$AAO?$AAU?$AAT?$AA$?$AA?$AA@ 1003f964     LIBCMT:initcon.obj
 0002:00007974       __real@00000000            1003f974     LIBCMT:wcstoq.obj
 0002:00007978       ?has_quiet_NaN@_Num_float_base@std@@2_NB 1003f978     libcpmt:xthrow.obj
 0002:00007979       ?has_signaling_NaN@_Num_float_base@std@@2_NB 1003f979     libcpmt:xthrow.obj
 0002:0000797a       ?is_bounded@_Num_float_base@std@@2_NB 1003f97a     libcpmt:xthrow.obj
 0002:0000797c       ??_C@_1M@KLMEPMCM@?$AAa?$AAl?$AAn?$AAu?$AAm?$AA?$AA@ 1003f97c     libcpmt:xthrow.obj
 0002:00007988       ??_C@_1M@DHGLHBMI@?$AAa?$AAl?$AAp?$AAh?$AAa?$AA?$AA@ 1003f988     libcpmt:xthrow.obj
 0002:00007994       ?is_exact@_Num_float_base@std@@2_NB 1003f994     libcpmt:xthrow.obj
 0002:00007998       ??_C@_1M@EJAAJBPE@?$AAb?$AAl?$AAa?$AAn?$AAk?$AA?$AA@ 1003f998     libcpmt:xthrow.obj
 0002:000079a4       ??_C@_1M@LMIMILA@?$AAc?$AAn?$AAt?$AAr?$AAl?$AA?$AA@ 1003f9a4     libcpmt:xthrow.obj
 0002:000079b0       ??_C@_13GKPPEALH@?$AAd?$AA?$AA@ 1003f9b0     libcpmt:xthrow.obj
 0002:000079b4       ?is_iec559@_Num_float_base@std@@2_NB 1003f9b4     libcpmt:xthrow.obj
 0002:000079b8       ??_C@_1M@JDAEIBKG@?$AAd?$AAi?$AAg?$AAi?$AAt?$AA?$AA@ 1003f9b8     libcpmt:xthrow.obj
 0002:000079c4       ??_C@_1M@MDKNJLLK@?$AAg?$AAr?$AAa?$AAp?$AAh?$AA?$AA@ 1003f9c4     libcpmt:xthrow.obj
 0002:000079d0       ??_C@_1M@LGAECJJD@?$AAl?$AAo?$AAw?$AAe?$AAr?$AA?$AA@ 1003f9d0     libcpmt:xthrow.obj
 0002:000079dc       ?is_integer@_Num_float_base@std@@2_NB 1003f9dc     libcpmt:xthrow.obj
 0002:000079e0       ??_C@_1M@ELNLAPLA@?$AAp?$AAr?$AAi?$AAn?$AAt?$AA?$AA@ 1003f9e0     libcpmt:xthrow.obj
 0002:000079ec       ??_C@_1M@BPFMAOAO@?$AAp?$AAu?$AAn?$AAc?$AAt?$AA?$AA@ 1003f9ec     libcpmt:xthrow.obj
 0002:000079f8       ??_C@_1M@LPGODFOM@?$AAs?$AAp?$AAa?$AAc?$AAe?$AA?$AA@ 1003f9f8     libcpmt:xthrow.obj
 0002:00007a04       ?is_modulo@_Num_float_base@std@@2_NB 1003fa04     libcpmt:xthrow.obj
 0002:00007a08       ??_C@_13KHDBCPJB@?$AAs?$AA?$AA@ 1003fa08     libcpmt:xthrow.obj
 0002:00007a0c       ??_C@_1M@PLNFCNIC@?$AAu?$AAp?$AAp?$AAe?$AAr?$AA?$AA@ 1003fa0c     libcpmt:xthrow.obj
 0002:00007a18       ??_C@_13CIFDLIMG@?$AAw?$AA?$AA@ 1003fa18     libcpmt:xthrow.obj
 0002:00007a1c       ?is_signed@_Num_float_base@std@@2_NB 1003fa1c     libcpmt:xthrow.obj
 0002:00007a20       ??_C@_1O@OAFMJDHN@?$AAx?$AAd?$AAi?$AAg?$AAi?$AAt?$AA?$AA@ 1003fa20     libcpmt:xthrow.obj
 0002:00007a2e       ?is_specialized@_Num_float_base@std@@2_NB 1003fa2e     libcpmt:xthrow.obj
 0002:00007a2f       ?tinyness_before@_Num_float_base@std@@2_NB 1003fa2f     libcpmt:xthrow.obj
 0002:00007a30       ?traps@_Num_float_base@std@@2_NB 1003fa30     libcpmt:xthrow.obj
 0002:00007a34       ?round_style@_Num_float_base@std@@2W4float_round_style@2@B 1003fa34     libcpmt:xthrow.obj
 0002:00007a38       ?radix@_Num_float_base@std@@2HB 1003fa38     libcpmt:xthrow.obj
 0002:00007a3c       ?is_signed@?$numeric_limits@D@std@@2_NB 1003fa3c     libcpmt:xthrow.obj
 0002:00007a40       ?digits@?$numeric_limits@D@std@@2HB 1003fa40     libcpmt:xthrow.obj
 0002:00007a44       ?digits10@?$numeric_limits@D@std@@2HB 1003fa44     libcpmt:xthrow.obj
 0002:00007a48       ?is_signed@?$numeric_limits@_W@std@@2_NB 1003fa48     libcpmt:xthrow.obj
 0002:00007a4c       ?digits@?$numeric_limits@_W@std@@2HB 1003fa4c     libcpmt:xthrow.obj
 0002:00007a50       ?digits10@?$numeric_limits@_W@std@@2HB 1003fa50     libcpmt:xthrow.obj
 0002:00007a54       ?is_modulo@?$numeric_limits@_N@std@@2_NB 1003fa54     libcpmt:xthrow.obj
 0002:00007a55       ?is_signed@?$numeric_limits@_N@std@@2_NB 1003fa55     libcpmt:xthrow.obj
 0002:00007a58       ?digits@?$numeric_limits@_N@std@@2HB 1003fa58     libcpmt:xthrow.obj
 0002:00007a5c       ?digits10@?$numeric_limits@_N@std@@2HB 1003fa5c     libcpmt:xthrow.obj
 0002:00007a60       ?_VBITS@?$vector@_NV?$allocator@_N@std@@@std@@2HB 1003fa60     libcpmt:xthrow.obj
 0002:00007a64       ?is_signed@?$numeric_limits@C@std@@2_NB 1003fa64     libcpmt:xthrow.obj
 0002:00007a68       ?digits@?$numeric_limits@C@std@@2HB 1003fa68     libcpmt:xthrow.obj
 0002:00007a6c       ?digits10@?$numeric_limits@C@std@@2HB 1003fa6c     libcpmt:xthrow.obj
 0002:00007a70       ?is_signed@?$numeric_limits@E@std@@2_NB 1003fa70     libcpmt:xthrow.obj
 0002:00007a74       ?digits@?$numeric_limits@E@std@@2HB 1003fa74     libcpmt:xthrow.obj
 0002:00007a78       ?digits10@?$numeric_limits@E@std@@2HB 1003fa78     libcpmt:xthrow.obj
 0002:00007a7c       ?skipws@?$_Iosb@H@std@@2W4_Fmtflags@12@B 1003fa7c     libcpmt:xthrow.obj
 0002:00007a80       ?unitbuf@?$_Iosb@H@std@@2W4_Fmtflags@12@B 1003fa80     libcpmt:xthrow.obj
 0002:00007a84       ?uppercase@?$_Iosb@H@std@@2W4_Fmtflags@12@B 1003fa84     libcpmt:xthrow.obj
 0002:00007a88       ?showbase@?$_Iosb@H@std@@2W4_Fmtflags@12@B 1003fa88     libcpmt:xthrow.obj
 0002:00007a8c       ?showpoint@?$_Iosb@H@std@@2W4_Fmtflags@12@B 1003fa8c     libcpmt:xthrow.obj
 0002:00007a90       ?showpos@?$_Iosb@H@std@@2W4_Fmtflags@12@B 1003fa90     libcpmt:xthrow.obj
 0002:00007a94       ?left@?$_Iosb@H@std@@2W4_Fmtflags@12@B 1003fa94     libcpmt:xthrow.obj
 0002:00007a98       ?right@?$_Iosb@H@std@@2W4_Fmtflags@12@B 1003fa98     libcpmt:xthrow.obj
 0002:00007a9c       ?internal@?$_Iosb@H@std@@2W4_Fmtflags@12@B 1003fa9c     libcpmt:xthrow.obj
 0002:00007aa0       ?is_signed@?$numeric_limits@F@std@@2_NB 1003faa0     libcpmt:xthrow.obj
 0002:00007aa4       ?dec@?$_Iosb@H@std@@2W4_Fmtflags@12@B 1003faa4     libcpmt:xthrow.obj
 0002:00007aa8       ?digits@?$numeric_limits@F@std@@2HB 1003faa8     libcpmt:xthrow.obj
 0002:00007aac       ?oct@?$_Iosb@H@std@@2W4_Fmtflags@12@B 1003faac     libcpmt:xthrow.obj
 0002:00007ab0       ?digits10@?$numeric_limits@F@std@@2HB 1003fab0     libcpmt:xthrow.obj
 0002:00007ab4       ?hex@?$_Iosb@H@std@@2W4_Fmtflags@12@B 1003fab4     libcpmt:xthrow.obj
 0002:00007ab8       ?scientific@?$_Iosb@H@std@@2W4_Fmtflags@12@B 1003fab8     libcpmt:xthrow.obj
 0002:00007abc       ?fixed@?$_Iosb@H@std@@2W4_Fmtflags@12@B 1003fabc     libcpmt:xthrow.obj
 0002:00007ac0       ?hexfloat@?$_Iosb@H@std@@2W4_Fmtflags@12@B 1003fac0     libcpmt:xthrow.obj
 0002:00007ac4       ?boolalpha@?$_Iosb@H@std@@2W4_Fmtflags@12@B 1003fac4     libcpmt:xthrow.obj
 0002:00007ac8       ?_Stdio@?$_Iosb@H@std@@2W4_Fmtflags@12@B 1003fac8     libcpmt:xthrow.obj
 0002:00007acc       ?adjustfield@?$_Iosb@H@std@@2W4_Fmtflags@12@B 1003facc     libcpmt:xthrow.obj
 0002:00007ad0       ?basefield@?$_Iosb@H@std@@2W4_Fmtflags@12@B 1003fad0     libcpmt:xthrow.obj
 0002:00007ad4       ?floatfield@?$_Iosb@H@std@@2W4_Fmtflags@12@B 1003fad4     libcpmt:xthrow.obj
 0002:00007ad8       ?goodbit@?$_Iosb@H@std@@2W4_Iostate@12@B 1003fad8     libcpmt:xthrow.obj
 0002:00007adc       ?is_signed@?$numeric_limits@G@std@@2_NB 1003fadc     libcpmt:xthrow.obj
 0002:00007ae0       ?eofbit@?$_Iosb@H@std@@2W4_Iostate@12@B 1003fae0     libcpmt:xthrow.obj
 0002:00007ae4       ?digits@?$numeric_limits@G@std@@2HB 1003fae4     libcpmt:xthrow.obj
 0002:00007ae8       ?failbit@?$_Iosb@H@std@@2W4_Iostate@12@B 1003fae8     libcpmt:xthrow.obj
 0002:00007aec       ?digits10@?$numeric_limits@G@std@@2HB 1003faec     libcpmt:xthrow.obj
 0002:00007af0       ?badbit@?$_Iosb@H@std@@2W4_Iostate@12@B 1003faf0     libcpmt:xthrow.obj
 0002:00007af4       ?_Hardfail@?$_Iosb@H@std@@2W4_Iostate@12@B 1003faf4     libcpmt:xthrow.obj
 0002:00007af8       ?in@?$_Iosb@H@std@@2W4_Openmode@12@B 1003faf8     libcpmt:xthrow.obj
 0002:00007afc       ?out@?$_Iosb@H@std@@2W4_Openmode@12@B 1003fafc     libcpmt:xthrow.obj
 0002:00007b00       ?ate@?$_Iosb@H@std@@2W4_Openmode@12@B 1003fb00     libcpmt:xthrow.obj
 0002:00007b04       ?app@?$_Iosb@H@std@@2W4_Openmode@12@B 1003fb04     libcpmt:xthrow.obj
 0002:00007b08       ?trunc@?$_Iosb@H@std@@2W4_Openmode@12@B 1003fb08     libcpmt:xthrow.obj
 0002:00007b0c       ?_Nocreate@?$_Iosb@H@std@@2W4_Openmode@12@B 1003fb0c     libcpmt:xthrow.obj
 0002:00007b10       ?_Noreplace@?$_Iosb@H@std@@2W4_Openmode@12@B 1003fb10     libcpmt:xthrow.obj
 0002:00007b14       ?binary@?$_Iosb@H@std@@2W4_Openmode@12@B 1003fb14     libcpmt:xthrow.obj
 0002:00007b18       ?is_signed@?$numeric_limits@H@std@@2_NB 1003fb18     libcpmt:xthrow.obj
 0002:00007b1c       ?beg@?$_Iosb@H@std@@2W4_Seekdir@12@B 1003fb1c     libcpmt:xthrow.obj
 0002:00007b20       ?digits@?$numeric_limits@H@std@@2HB 1003fb20     libcpmt:xthrow.obj
 0002:00007b24       ?cur@?$_Iosb@H@std@@2W4_Seekdir@12@B 1003fb24     libcpmt:xthrow.obj
 0002:00007b28       ?digits10@?$numeric_limits@H@std@@2HB 1003fb28     libcpmt:xthrow.obj
 0002:00007b2c       ?end@?$_Iosb@H@std@@2W4_Seekdir@12@B 1003fb2c     libcpmt:xthrow.obj
 0002:00007b30       ?is_signed@?$numeric_limits@I@std@@2_NB 1003fb30     libcpmt:xthrow.obj
 0002:00007b34       ?digits@?$numeric_limits@I@std@@2HB 1003fb34     libcpmt:xthrow.obj
 0002:00007b38       ?digits10@?$numeric_limits@I@std@@2HB 1003fb38     libcpmt:xthrow.obj
 0002:00007b3c       ?value@?$integral_constant@H$0A@@std@@2HB 1003fb3c     libcpmt:xthrow.obj
 0002:00007b40       ?is_signed@?$numeric_limits@J@std@@2_NB 1003fb40     libcpmt:xthrow.obj
 0002:00007b44       ?digits@?$numeric_limits@J@std@@2HB 1003fb44     libcpmt:xthrow.obj
 0002:00007b48       ?digits10@?$numeric_limits@J@std@@2HB 1003fb48     libcpmt:xthrow.obj
 0002:00007b4c       ?is_signed@?$numeric_limits@K@std@@2_NB 1003fb4c     libcpmt:xthrow.obj
 0002:00007b50       ?digits@?$numeric_limits@K@std@@2HB 1003fb50     libcpmt:xthrow.obj
 0002:00007b54       ?digits10@?$numeric_limits@K@std@@2HB 1003fb54     libcpmt:xthrow.obj
 0002:00007b58       ?is_signed@?$numeric_limits@_J@std@@2_NB 1003fb58     libcpmt:xthrow.obj
 0002:00007b5c       ?digits@?$numeric_limits@_J@std@@2HB 1003fb5c     libcpmt:xthrow.obj
 0002:00007b60       ?digits10@?$numeric_limits@_J@std@@2HB 1003fb60     libcpmt:xthrow.obj
 0002:00007b64       ?is_signed@?$numeric_limits@_K@std@@2_NB 1003fb64     libcpmt:xthrow.obj
 0002:00007b68       ?digits@?$numeric_limits@_K@std@@2HB 1003fb68     libcpmt:xthrow.obj
 0002:00007b6c       ?digits10@?$numeric_limits@_K@std@@2HB 1003fb6c     libcpmt:xthrow.obj
 0002:00007b70       ?collate@?$_Locbase@H@std@@2HB 1003fb70     libcpmt:xthrow.obj
 0002:00007b74       ?ctype@?$_Locbase@H@std@@2HB 1003fb74     libcpmt:xthrow.obj
 0002:00007b78       ?monetary@?$_Locbase@H@std@@2HB 1003fb78     libcpmt:xthrow.obj
 0002:00007b7c       ?numeric@?$_Locbase@H@std@@2HB 1003fb7c     libcpmt:xthrow.obj
 0002:00007b80       ?time@?$_Locbase@H@std@@2HB 1003fb80     libcpmt:xthrow.obj
 0002:00007b84       ?messages@?$_Locbase@H@std@@2HB 1003fb84     libcpmt:xthrow.obj
 0002:00007b88       ?all@?$_Locbase@H@std@@2HB 1003fb88     libcpmt:xthrow.obj
 0002:00007b8c       ?none@?$_Locbase@H@std@@2HB 1003fb8c     libcpmt:xthrow.obj
 0002:00007b90       ?digits@?$numeric_limits@M@std@@2HB 1003fb90     libcpmt:xthrow.obj
 0002:00007b94       ?digits10@?$numeric_limits@M@std@@2HB 1003fb94     libcpmt:xthrow.obj
 0002:00007b98       ?max_digits10@?$numeric_limits@M@std@@2HB 1003fb98     libcpmt:xthrow.obj
 0002:00007b9c       ?max_exponent@?$numeric_limits@M@std@@2HB 1003fb9c     libcpmt:xthrow.obj
 0002:00007ba0       ?max_exponent10@?$numeric_limits@M@std@@2HB 1003fba0     libcpmt:xthrow.obj
 0002:00007ba4       ?min_exponent@?$numeric_limits@M@std@@2HB 1003fba4     libcpmt:xthrow.obj
 0002:00007ba8       ?min_exponent10@?$numeric_limits@M@std@@2HB 1003fba8     libcpmt:xthrow.obj
 0002:00007bac       ?digits@?$numeric_limits@N@std@@2HB 1003fbac     libcpmt:xthrow.obj
 0002:00007bb0       ?digits10@?$numeric_limits@N@std@@2HB 1003fbb0     libcpmt:xthrow.obj
 0002:00007bb4       ?max_digits10@?$numeric_limits@N@std@@2HB 1003fbb4     libcpmt:xthrow.obj
 0002:00007bb8       ?max_exponent@?$numeric_limits@N@std@@2HB 1003fbb8     libcpmt:xthrow.obj
 0002:00007bbc       ?max_exponent10@?$numeric_limits@N@std@@2HB 1003fbbc     libcpmt:xthrow.obj
 0002:00007bc0       ?min_exponent@?$numeric_limits@N@std@@2HB 1003fbc0     libcpmt:xthrow.obj
 0002:00007bc4       ?min_exponent10@?$numeric_limits@N@std@@2HB 1003fbc4     libcpmt:xthrow.obj
 0002:00007bc8       ?digits@?$numeric_limits@O@std@@2HB 1003fbc8     libcpmt:xthrow.obj
 0002:00007bcc       ?digits10@?$numeric_limits@O@std@@2HB 1003fbcc     libcpmt:xthrow.obj
 0002:00007bd0       ?max_digits10@?$numeric_limits@O@std@@2HB 1003fbd0     libcpmt:xthrow.obj
 0002:00007bd4       ?max_exponent@?$numeric_limits@O@std@@2HB 1003fbd4     libcpmt:xthrow.obj
 0002:00007bd8       ?max_exponent10@?$numeric_limits@O@std@@2HB 1003fbd8     libcpmt:xthrow.obj
 0002:00007bdc       ?min_exponent@?$numeric_limits@O@std@@2HB 1003fbdc     libcpmt:xthrow.obj
 0002:00007be0       ?min_exponent10@?$numeric_limits@O@std@@2HB 1003fbe0     libcpmt:xthrow.obj
 0002:00007be4       ?table_size@?$ctype@D@std@@2IB 1003fbe4     libcpmt:xthrow.obj
 0002:00007be8       ?value@?$integral_constant@I$07@std@@2IB 1003fbe8     libcpmt:xthrow.obj
 0002:00007bec       ?value@?$integral_constant@I$03@std@@2IB 1003fbec     libcpmt:xthrow.obj
 0002:00007bf0       ?value@?$integral_constant@I$01@std@@2IB 1003fbf0     libcpmt:xthrow.obj
 0002:00007bf4       ?value@?$integral_constant@I$00@std@@2IB 1003fbf4     libcpmt:xthrow.obj
 0002:00007bf8       ?value@?$_Maximum@$S@std@@2IB 1003fbf8     libcpmt:xthrow.obj
 0002:00007c00       ?_Names@?$_Regex_traits@D@std@@0QBU?$_Cl_names@D@2@B 1003fc00     libcpmt:xthrow.obj
 0002:00007cc0       ?has_denorm@_Num_base@std@@2W4float_denorm_style@2@B 1003fcc0     libcpmt:xthrow.obj
 0002:00007cc4       ?has_denorm_loss@_Num_base@std@@2_NB 1003fcc4     libcpmt:xthrow.obj
 0002:00007cc5       ?has_infinity@_Num_base@std@@2_NB 1003fcc5     libcpmt:xthrow.obj
 0002:00007cc6       ?has_quiet_NaN@_Num_base@std@@2_NB 1003fcc6     libcpmt:xthrow.obj
 0002:00007cc7       ?has_signaling_NaN@_Num_base@std@@2_NB 1003fcc7     libcpmt:xthrow.obj
 0002:00007cc8       ?is_bounded@_Num_base@std@@2_NB 1003fcc8     libcpmt:xthrow.obj
 0002:00007cc9       ?is_exact@_Num_base@std@@2_NB 1003fcc9     libcpmt:xthrow.obj
 0002:00007cca       ?is_iec559@_Num_base@std@@2_NB 1003fcca     libcpmt:xthrow.obj
 0002:00007ccb       ?is_integer@_Num_base@std@@2_NB 1003fccb     libcpmt:xthrow.obj
 0002:00007ccc       ?is_modulo@_Num_base@std@@2_NB 1003fccc     libcpmt:xthrow.obj
 0002:00007ccd       ?is_signed@_Num_base@std@@2_NB 1003fccd     libcpmt:xthrow.obj
 0002:00007cd0       ??_C@_05IIMHCHIO@alnum?$AA@ 1003fcd0     libcpmt:xthrow.obj
 0002:00007cd8       ??_C@_05IAEKHIAN@alpha?$AA@ 1003fcd8     libcpmt:xthrow.obj
 0002:00007ce0       ??_C@_05BABJKOGB@blank?$AA@ 1003fce0     libcpmt:xthrow.obj
 0002:00007ce8       ?value@?$integral_constant@I$0A@@std@@2IB 1003fce8     libcpmt:xthrow.obj
 0002:00007cec       ?is_specialized@_Num_base@std@@2_NB 1003fcec     libcpmt:xthrow.obj
 0002:00007cf0       ??_C@_05JMDPEFNK@cntrl?$AA@ 1003fcf0     libcpmt:xthrow.obj
 0002:00007cf8       ??_C@_01LPLHEDKD@d?$AA@    1003fcf8     libcpmt:xthrow.obj
 0002:00007cfc       ??_C@_05ODNOIFML@digit?$AA@ 1003fcfc     libcpmt:xthrow.obj
 0002:00007d02       ?tinyness_before@_Num_base@std@@2_NB 1003fd02     libcpmt:xthrow.obj
 0002:00007d04       ??_C@_05KCJBMLII@graph?$AA@ 1003fd04     libcpmt:xthrow.obj
 0002:00007d0c       ??_C@_05IPJEPLHL@lower?$AA@ 1003fd0c     libcpmt:xthrow.obj
 0002:00007d14       ??_C@_05IJDJACGD@print?$AA@ 1003fd14     libcpmt:xthrow.obj
 0002:00007d1a       ?traps@_Num_base@std@@2_NB 1003fd1a     libcpmt:xthrow.obj
 0002:00007d1c       ??_C@_05KOBGHFJJ@punct?$AA@ 1003fd1c     libcpmt:xthrow.obj
 0002:00007d24       ??_C@_05OLNILLAB@space?$AA@ 1003fd24     libcpmt:xthrow.obj
 0002:00007d2c       ??_C@_01LKDEMHDF@s?$AA@    1003fd2c     libcpmt:xthrow.obj
 0002:00007d30       ?round_style@_Num_base@std@@2W4float_round_style@2@B 1003fd30     libcpmt:xthrow.obj
 0002:00007d34       ??_C@_05NECKJAMC@upper?$AA@ 1003fd34     libcpmt:xthrow.obj
 0002:00007d3c       ??_C@_01NOFIACDB@w?$AA@    1003fd3c     libcpmt:xthrow.obj
 0002:00007d40       ??_C@_06BAPHGFFK@xdigit?$AA@ 1003fd40     libcpmt:xthrow.obj
 0002:00007d48       ?digits@_Num_base@std@@2HB 1003fd48     libcpmt:xthrow.obj
 0002:00007d4c       ?digits10@_Num_base@std@@2HB 1003fd4c     libcpmt:xthrow.obj
 0002:00007d50       ?max_digits10@_Num_base@std@@2HB 1003fd50     libcpmt:xthrow.obj
 0002:00007d54       ?max_exponent@_Num_base@std@@2HB 1003fd54     libcpmt:xthrow.obj
 0002:00007d58       ?max_exponent10@_Num_base@std@@2HB 1003fd58     libcpmt:xthrow.obj
 0002:00007d5c       ?min_exponent@_Num_base@std@@2HB 1003fd5c     libcpmt:xthrow.obj
 0002:00007d60       ?min_exponent10@_Num_base@std@@2HB 1003fd60     libcpmt:xthrow.obj
 0002:00007d64       ?radix@_Num_base@std@@2HB  1003fd64     libcpmt:xthrow.obj
 0002:00007d68       ?is_bounded@_Num_int_base@std@@2_NB 1003fd68     libcpmt:xthrow.obj
 0002:00007d69       ?is_exact@_Num_int_base@std@@2_NB 1003fd69     libcpmt:xthrow.obj
 0002:00007d6a       ?is_integer@_Num_int_base@std@@2_NB 1003fd6a     libcpmt:xthrow.obj
 0002:00007d6b       ?is_modulo@_Num_int_base@std@@2_NB 1003fd6b     libcpmt:xthrow.obj
 0002:00007d70       ?_Names@?$_Regex_traits@_W@std@@0QBU?$_Cl_names@_W@2@B 1003fd70     libcpmt:xthrow.obj
 0002:00007e30       ?is_specialized@_Num_int_base@std@@2_NB 1003fe30     libcpmt:xthrow.obj
 0002:00007e34       ?radix@_Num_int_base@std@@2HB 1003fe34     libcpmt:xthrow.obj
 0002:00007e38       ?has_denorm@_Num_float_base@std@@2W4float_denorm_style@2@B 1003fe38     libcpmt:xthrow.obj
 0002:00007e3c       ?has_denorm_loss@_Num_float_base@std@@2_NB 1003fe3c     libcpmt:xthrow.obj
 0002:00007e3d       ?has_infinity@_Num_float_base@std@@2_NB 1003fe3d     libcpmt:xthrow.obj
 0002:00007e44       ??_7logic_error@std@@6B@   1003fe44     libcpmt:xthrow.obj
 0002:00007e50       ??_7invalid_argument@std@@6B@ 1003fe50     libcpmt:xthrow.obj
 0002:00007e5c       ??_7length_error@std@@6B@  1003fe5c     libcpmt:xthrow.obj
 0002:00007e68       ??_7out_of_range@std@@6B@  1003fe68     libcpmt:xthrow.obj
 0002:00007e74       ??_7runtime_error@std@@6B@ 1003fe74     libcpmt:xthrow.obj
 0002:00007e80       ??_7overflow_error@std@@6B@ 1003fe80     libcpmt:xthrow.obj
 0002:00007e8c       ??_7bad_function_call@std@@6B@ 1003fe8c     libcpmt:xthrow.obj
 0002:00007e94       ??_C@_0BC@DPJNKNAF@bad?5function?5call?$AA@ 1003fe94     libcpmt:xthrow.obj
 0002:00007eac       ??_7regex_error@std@@6B@   1003feac     libcpmt:xthrow.obj
 0002:00007eb8       ??_C@_0FI@CMNGHIFF@regex_error?$CIerror_collate?$CJ?3?5The?5@ 1003feb8     libcpmt:xthrow.obj
 0002:00007f10       ??_C@_0FE@LJMHKIOC@regex_error?$CIerror_ctype?$CJ?3?5The?5ex@ 1003ff10     libcpmt:xthrow.obj
 0002:00007f68       ??_C@_0GI@HEGGMMDL@regex_error?$CIerror_escape?$CJ?3?5The?5e@ 1003ff68     libcpmt:xthrow.obj
 0002:00007fd0       ??_C@_0FA@HFMLPGNN@regex_error?$CIerror_backref?$CJ?3?5The?5@ 1003ffd0     libcpmt:xthrow.obj
 0002:00008020       ??_C@_0EH@LGEANNAL@regex_error?$CIerror_brack?$CJ?3?5The?5ex@ 10040020     libcpmt:xthrow.obj
 0002:00008068       ??_C@_0EH@CAGOJGLE@regex_error?$CIerror_paren?$CJ?3?5The?5ex@ 10040068     libcpmt:xthrow.obj
 0002:000080b0       ??_C@_0EH@DICJJKLO@regex_error?$CIerror_brace?$CJ?3?5The?5ex@ 100400b0     libcpmt:xthrow.obj
 0002:000080f8       ??_C@_0FM@BLDIHIBB@regex_error?$CIerror_badbrace?$CJ?3?5The@ 100400f8     libcpmt:xthrow.obj
 0002:00008158       ??_C@_0HA@ICNJLCMC@regex_error?$CIerror_range?$CJ?3?5The?5ex@ 10040158     libcpmt:xthrow.obj
 0002:000081c8       ??_C@_0GP@PICOBCHA@regex_error?$CIerror_space?$CJ?3?5There?5@ 100401c8     libcpmt:xthrow.obj
 0002:00008238       ??_C@_0FK@LCHHHEOA@regex_error?$CIerror_badrepeat?$CJ?3?5On@ 10040238     libcpmt:xthrow.obj
 0002:00008298       ??_C@_0HL@NEKOFBJA@regex_error?$CIerror_complexity?$CJ?3?5T@ 10040298     libcpmt:xthrow.obj
 0002:00008318       ??_C@_0JC@HCDLJLGO@regex_error?$CIerror_stack?$CJ?3?5There?5@ 10040318     libcpmt:xthrow.obj
 0002:000083ac       ??_C@_0BJ@CHBLKGNM@regex_error?$CIerror_parse?$CJ?$AA@ 100403ac     libcpmt:xthrow.obj
 0002:000083c8       ??_C@_0BK@DFJCACNI@regex_error?$CIerror_syntax?$CJ?$AA@ 100403c8     libcpmt:xthrow.obj
 0002:000083e4       ??_C@_0M@KGKAAGCA@regex_error?$AA@ 100403e4     libcpmt:xthrow.obj
 0002:000088c0       ??_C@_0BC@CIJDGCDI@permission?5denied?$AA@ 100408c0     libcpmt:syserror.obj
 0002:000088d4       ??_C@_0M@MIDIAGJP@file?5exists?$AA@ 100408d4     libcpmt:syserror.obj
 0002:000088e0       ??_C@_0P@FDINDDOK@no?5such?5device?$AA@ 100408e0     libcpmt:syserror.obj
 0002:000088f0       ??_C@_0BC@EJHOMAAK@filename?5too?5long?$AA@ 100408f0     libcpmt:syserror.obj
 0002:00008904       ??_C@_0BI@NGCEHDD@device?5or?5resource?5busy?$AA@ 10040904     libcpmt:syserror.obj
 0002:0000891c       ??_C@_08GLNPIFBN@io?5error?$AA@ 1004091c     libcpmt:syserror.obj
 0002:00008928       ??_C@_0BE@JIDOCPHM@directory?5not?5empty?$AA@ 10040928     libcpmt:syserror.obj
 0002:0000893c       ??_C@_0BB@FCMFBGOM@invalid?5argument?$AA@ 1004093c     libcpmt:syserror.obj
 0002:00008950       ??_C@_0BD@IJDJKDEA@no?5space?5on?5device?$AA@ 10040950     libcpmt:syserror.obj
 0002:00008964       ??_C@_0BK@NDOCBPGE@no?5such?5file?5or?5directory?$AA@ 10040964     libcpmt:syserror.obj
 0002:00008980       ??_C@_0BH@KEFGLDAF@function?5not?5supported?$AA@ 10040980     libcpmt:syserror.obj
 0002:00008998       ??_C@_0BC@NJECKMKE@no?5lock?5available?$AA@ 10040998     libcpmt:syserror.obj
 0002:000089ac       ??_C@_0BC@ENOOLCNF@not?5enough?5memory?$AA@ 100409ac     libcpmt:syserror.obj
 0002:000089c0       ??_C@_0BP@LKNGHENJ@resource?5unavailable?5try?5again?$AA@ 100409c0     libcpmt:syserror.obj
 0002:000089e0       ??_C@_0BC@PPHBOELF@cross?5device?5link?$AA@ 100409e0     libcpmt:syserror.obj
 0002:000089f4       ??_C@_0BD@MOLBPMEA@operation?5canceled?$AA@ 100409f4     libcpmt:syserror.obj
 0002:00008a08       ??_C@_0BE@GHAFMPAH@too?5many?5files?5open?$AA@ 10040a08     libcpmt:syserror.obj
 0002:00008a1c       ??_C@_0BC@FNODOBAE@permission_denied?$AA@ 10040a1c     libcpmt:syserror.obj
 0002:00008a30       ??_C@_0P@LNDJPBFK@address_in_use?$AA@ 10040a30     libcpmt:syserror.obj
 0002:00008a40       ??_C@_0BG@IPMGOJF@address_not_available?$AA@ 10040a40     libcpmt:syserror.obj
 0002:00008a58       ??_C@_0BN@LCBDHODA@address_family_not_supported?$AA@ 10040a58     libcpmt:syserror.obj
 0002:00008a78       ??_C@_0BP@FOJJHMCC@connection_already_in_progress?$AA@ 10040a78     libcpmt:syserror.obj
 0002:00008a98       ??_C@_0BE@DLHHIBGN@bad_file_descriptor?$AA@ 10040a98     libcpmt:syserror.obj
 0002:00008aac       ??_C@_0BD@OJMJDIGI@connection_aborted?$AA@ 10040aac     libcpmt:syserror.obj
 0002:00008ac0       ??_C@_0BD@NGKCIFEP@connection_refused?$AA@ 10040ac0     libcpmt:syserror.obj
 0002:00008ad4       ??_C@_0BB@JOANDNCK@connection_reset?$AA@ 10040ad4     libcpmt:syserror.obj
 0002:00008ae8       ??_C@_0BN@JLJNLKLK@destination_address_required?$AA@ 10040ae8     libcpmt:syserror.obj
 0002:00008b08       ??_C@_0M@IJGMGFGP@bad_address?$AA@ 10040b08     libcpmt:syserror.obj
 0002:00008b14       ??_C@_0BB@KKNHPPIN@host_unreachable?$AA@ 10040b14     libcpmt:syserror.obj
 0002:00008b28       ??_C@_0BG@DJGBJIIK@operation_in_progress?$AA@ 10040b28     libcpmt:syserror.obj
 0002:00008b40       ??_C@_0M@EGEKIIMP@interrupted?$AA@ 10040b40     libcpmt:syserror.obj
 0002:00008b4c       ??_C@_0BB@FFIHMIPJ@invalid_argument?$AA@ 10040b4c     libcpmt:syserror.obj
 0002:00008b60       ??_C@_0BC@FIFLCHLO@already_connected?$AA@ 10040b60     libcpmt:syserror.obj
 0002:00008b74       ??_C@_0BE@GJJJJDDA@too_many_files_open?$AA@ 10040b74     libcpmt:syserror.obj
 0002:00008b88       ??_C@_0N@HPMLKHPL@message_size?$AA@ 10040b88     libcpmt:syserror.obj
 0002:00008b98       ??_C@_0BC@LEEIKBAL@filename_too_long?$AA@ 10040b98     libcpmt:syserror.obj
 0002:00008bac       ??_C@_0N@FCPALPJK@network_down?$AA@ 10040bac     libcpmt:syserror.obj
 0002:00008bbc       ??_C@_0O@EHNDLHIG@network_reset?$AA@ 10040bbc     libcpmt:syserror.obj
 0002:00008bcc       ??_C@_0BE@JFNJIDNF@network_unreachable?$AA@ 10040bcc     libcpmt:syserror.obj
 0002:00008be0       ??_C@_0BA@FDIJKJCL@no_buffer_space?$AA@ 10040be0     libcpmt:syserror.obj
 0002:00008bf0       ??_C@_0BD@JHIHCGKP@no_protocol_option?$AA@ 10040bf0     libcpmt:syserror.obj
 0002:00008c04       ??_C@_0O@GBCLHHD@not_connected?$AA@ 10040c04     libcpmt:syserror.obj
 0002:00008c14       ??_C@_0N@IMHKKLEM@not_a_socket?$AA@ 10040c14     libcpmt:syserror.obj
 0002:00008c24       ??_C@_0BI@ICEIDKLJ@operation_not_supported?$AA@ 10040c24     libcpmt:syserror.obj
 0002:00008c3c       ??_C@_0BH@KAPBAIJF@protocol_not_supported?$AA@ 10040c3c     libcpmt:syserror.obj
 0002:00008c54       ??_C@_0BE@GAOJJFPC@wrong_protocol_type?$AA@ 10040c54     libcpmt:syserror.obj
 0002:00008c68       ??_C@_09NCHNLHPG@timed_out?$AA@ 10040c68     libcpmt:syserror.obj
 0002:00008c74       ??_C@_0BG@GDGHKFDH@operation_would_block?$AA@ 10040c74     libcpmt:syserror.obj
 0002:00008c8c       ??_C@_0BN@LKKBCCDB@address?5family?5not?5supported?$AA@ 10040c8c     libcpmt:syserror.obj
 0002:00008cac       ??_C@_0P@LDMLAFHI@address?5in?5use?$AA@ 10040cac     libcpmt:syserror.obj
 0002:00008cbc       ??_C@_0BG@DHPCNBJB@address?5not?5available?$AA@ 10040cbc     libcpmt:syserror.obj
 0002:00008cd4       ??_C@_0BC@DFIBIBIL@already?5connected?$AA@ 10040cd4     libcpmt:syserror.obj
 0002:00008ce8       ??_C@_0BH@CAKOHOMI@argument?5list?5too?5long?$AA@ 10040ce8     libcpmt:syserror.obj
 0002:00008d00       ??_C@_0BH@CGIMPKIM@argument?5out?5of?5domain?$AA@ 10040d00     libcpmt:syserror.obj
 0002:00008d18       ??_C@_0M@KGHGGJGL@bad?5address?$AA@ 10040d18     libcpmt:syserror.obj
 0002:00008d24       ??_C@_0BE@MPJPGCEO@bad?5file?5descriptor?$AA@ 10040d24     libcpmt:syserror.obj
 0002:00008d38       ??_C@_0M@PMMIEFCP@bad?5message?$AA@ 10040d38     libcpmt:syserror.obj
 0002:00008d44       ??_C@_0M@KPHOFDBE@broken?5pipe?$AA@ 10040d44     libcpmt:syserror.obj
 0002:00008d50       ??_C@_0BD@MGNDDEGM@connection?5aborted?$AA@ 10040d50     libcpmt:syserror.obj
 0002:00008d64       ??_C@_0BP@KAIHPOGN@connection?5already?5in?5progress?$AA@ 10040d64     libcpmt:syserror.obj
 0002:00008d84       ??_C@_0BD@PJLIIJEL@connection?5refused?$AA@ 10040d84     libcpmt:syserror.obj
 0002:00008d98       ??_C@_0BB@IECNJNOI@connection?5reset?$AA@ 10040d98     libcpmt:syserror.obj
 0002:00008dac       ??_C@_0BN@KDMIFEIP@destination?5address?5required?$AA@ 10040dac     libcpmt:syserror.obj
 0002:00008dcc       ??_C@_0BI@BNCLIGPB@executable?5format?5error?$AA@ 10040dcc     libcpmt:syserror.obj
 0002:00008de4       ??_C@_0P@DNAJLBJK@file?5too?5large?$AA@ 10040de4     libcpmt:syserror.obj
 0002:00008df4       ??_C@_0BB@DHFDFGDM@host?5unreachable?$AA@ 10040df4     libcpmt:syserror.obj
 0002:00008e08       ??_C@_0BD@JPHBMONG@identifier?5removed?$AA@ 10040e08     libcpmt:syserror.obj
 0002:00008e1c       ??_C@_0BG@CDNPAGJK@illegal?5byte?5sequence?$AA@ 10040e1c     libcpmt:syserror.obj
 0002:00008e34       ??_C@_0CD@BNPLBMNA@inappropriate?5io?5control?5operati@ 10040e34     libcpmt:syserror.obj
 0002:00008e58       ??_C@_0N@OHAFKDEK@invalid?5seek?$AA@ 10040e58     libcpmt:syserror.obj
 0002:00008e68       ??_C@_0P@FLLDBIDK@is?5a?5directory?$AA@ 10040e68     libcpmt:syserror.obj
 0002:00008e78       ??_C@_0N@IFLPBIOP@message?5size?$AA@ 10040e78     libcpmt:syserror.obj
 0002:00008e88       ??_C@_0N@KIIEAAIO@network?5down?$AA@ 10040e88     libcpmt:syserror.obj
 0002:00008e98       ??_C@_0O@FNPDBHEE@network?5reset?$AA@ 10040e98     libcpmt:syserror.obj
 0002:00008ea8       ??_C@_0BE@IFNCKGE@network?5unreachable?$AA@ 10040ea8     libcpmt:syserror.obj
 0002:00008ebc       ??_C@_0BA@PFFCAOFK@no?5buffer?5space?$AA@ 10040ebc     libcpmt:syserror.obj
 0002:00008ecc       ??_C@_0BB@IEPBLJHK@no?5child?5process?$AA@ 10040ecc     libcpmt:syserror.obj
 0002:00008ee0       ??_C@_07PLECNNKG@no?5link?$AA@ 10040ee0     libcpmt:syserror.obj
 0002:00008ee8       ??_C@_0BF@PBGGPKKE@no?5message?5available?$AA@ 10040ee8     libcpmt:syserror.obj
 0002:00008f00       ??_C@_0L@EDOLMPAK@no?5message?$AA@ 10040f00     libcpmt:syserror.obj
 0002:00008f0c       ??_C@_0BD@EAMBFIDF@no?5protocol?5option?$AA@ 10040f0c     libcpmt:syserror.obj
 0002:00008f20       ??_C@_0BE@MKFDAFMP@no?5stream?5resources?$AA@ 10040f20     libcpmt:syserror.obj
 0002:00008f34       ??_C@_0BK@IMCPHCBI@no?5such?5device?5or?5address?$AA@ 10040f34     libcpmt:syserror.obj
 0002:00008f50       ??_C@_0BA@ENLPPKBN@no?5such?5process?$AA@ 10040f50     libcpmt:syserror.obj
 0002:00008f60       ??_C@_0BA@DOCPFFJG@not?5a?5directory?$AA@ 10040f60     libcpmt:syserror.obj
 0002:00008f70       ??_C@_0N@POEIPGGF@not?5a?5socket?$AA@ 10040f70     libcpmt:syserror.obj
 0002:00008f80       ??_C@_0N@LGAPMMPI@not?5a?5stream?$AA@ 10040f80     libcpmt:syserror.obj
 0002:00008f90       ??_C@_0O@GLMIBBEG@not?5connected?$AA@ 10040f90     libcpmt:syserror.obj
 0002:00008fa0       ??_C@_0O@NHEDABJP@not?5supported?$AA@ 10040fa0     libcpmt:syserror.obj
 0002:00008fb0       ??_C@_0BG@KDKHOPCO@operation?5in?5progress?$AA@ 10040fb0     libcpmt:syserror.obj
 0002:00008fc8       ??_C@_0BI@OHIEJAAB@operation?5not?5permitted?$AA@ 10040fc8     libcpmt:syserror.obj
 0002:00008fe0       ??_C@_0BI@LNEGIFLN@operation?5not?5supported?$AA@ 10040fe0     libcpmt:syserror.obj
 0002:00008ff8       ??_C@_0BG@OEMDKMEE@operation?5would?5block?$AA@ 10040ff8     libcpmt:syserror.obj
 0002:00009010       ??_C@_0L@BLPOFLNJ@owner?5dead?$AA@ 10041010     libcpmt:syserror.obj
 0002:0000901c       ??_C@_0P@FNPOCJBE@protocol?5error?$AA@ 1004101c     libcpmt:syserror.obj
 0002:0000902c       ??_C@_0BH@JPPPLHJB@protocol?5not?5supported?$AA@ 1004102c     libcpmt:syserror.obj
 0002:00009044       ??_C@_0BG@EICBIHDP@read?5only?5file?5system?$AA@ 10041044     libcpmt:syserror.obj
 0002:0000905c       ??_C@_0BO@BJBOMOEJ@resource?5deadlock?5would?5occur?$AA@ 1004105c     libcpmt:syserror.obj
 0002:0000907c       ??_C@_0BE@GOIPJJHG@result?5out?5of?5range?$AA@ 1004107c     libcpmt:syserror.obj
 0002:00009090       ??_C@_0BG@MPLKFPAE@state?5not?5recoverable?$AA@ 10041090     libcpmt:syserror.obj
 0002:000090a8       ??_C@_0P@DIIFGFCG@stream?5timeout?$AA@ 100410a8     libcpmt:syserror.obj
 0002:000090b8       ??_C@_0P@IPFDMIFL@text?5file?5busy?$AA@ 100410b8     libcpmt:syserror.obj
 0002:000090c8       ??_C@_09KJPPMAOI@timed?5out?$AA@ 100410c8     libcpmt:syserror.obj
 0002:000090d4       ??_C@_0BO@HACHBEKI@too?5many?5files?5open?5in?5system?$AA@ 100410d4     libcpmt:syserror.obj
 0002:000090f4       ??_C@_0P@HCOMKFCC@too?5many?5links?$AA@ 100410f4     libcpmt:syserror.obj
 0002:00009104       ??_C@_0BO@EFGOJEF@too?5many?5symbolic?5link?5levels?$AA@ 10041104     libcpmt:syserror.obj
 0002:00009124       ??_C@_0BA@KGKGOOJA@value?5too?5large?$AA@ 10041124     libcpmt:syserror.obj
 0002:00009134       ??_C@_0BE@MIEJDDNH@wrong?5protocol?5type?$AA@ 10041134     libcpmt:syserror.obj
 0002:00009148       __load_config_used         10041148     LIBCMT:loadcfg.obj
 0002:000091e4       ??_R4MiniDmpSender@@6B@    100411e4     BugSplatImp.obj
 0002:000091f8       ??_R3MiniDmpSender@@8      100411f8     BugSplatImp.obj
 0002:00009208       ??_R2MiniDmpSender@@8      10041208     BugSplatImp.obj
 0002:00009210       ??_R1A@?0A@EA@MiniDmpSender@@8 10041210     BugSplatImp.obj
 0002:0000922c       ??_R4GenericHTTPClient@@6B@ 1004122c     GenericHTTPClientA.obj
 0002:00009240       ??_R3GenericHTTPClient@@8  10041240     GenericHTTPClientA.obj
 0002:00009250       ??_R2GenericHTTPClient@@8  10041250     GenericHTTPClientA.obj
 0002:00009258       ??_R1A@?0A@EA@GenericHTTPClient@@8 10041258     GenericHTTPClientA.obj
 0002:00009274       ??_R4MiniDumper@@6B@       10041274     mdump.obj
 0002:00009288       ??_R3MiniDumper@@8         10041288     mdump.obj
 0002:00009298       ??_R2MiniDumper@@8         10041298     mdump.obj
 0002:000092a0       ??_R1A@?0A@EA@MiniDumper@@8 100412a0     mdump.obj
 0002:000092bc       ??_R4error_category@std@@6B@ 100412bc     mdump.obj
 0002:000092d0       ??_R3error_category@std@@8 100412d0     mdump.obj
 0002:000092e0       ??_R2error_category@std@@8 100412e0     mdump.obj
 0002:000092e8       ??_R1A@?0A@EA@error_category@std@@8 100412e8     mdump.obj
 0002:00009304       ??_R4_Generic_error_category@std@@6B@ 10041304     mdump.obj
 0002:00009318       ??_R3_Generic_error_category@std@@8 10041318     mdump.obj
 0002:00009328       ??_R2_Generic_error_category@std@@8 10041328     mdump.obj
 0002:00009334       ??_R1A@?0A@EA@_Generic_error_category@std@@8 10041334     mdump.obj
 0002:00009350       ??_R4_Iostream_error_category@std@@6B@ 10041350     mdump.obj
 0002:00009364       ??_R3_Iostream_error_category@std@@8 10041364     mdump.obj
 0002:00009374       ??_R2_Iostream_error_category@std@@8 10041374     mdump.obj
 0002:00009384       ??_R1A@?0A@EA@_Iostream_error_category@std@@8 10041384     mdump.obj
 0002:000093a0       ??_R4_System_error_category@std@@6B@ 100413a0     mdump.obj
 0002:000093b4       ??_R3_System_error_category@std@@8 100413b4     mdump.obj
 0002:000093c4       ??_R2_System_error_category@std@@8 100413c4     mdump.obj
 0002:000093d4       ??_R1A@?0A@EA@_System_error_category@std@@8 100413d4     mdump.obj
 0002:000093f0       ??_R3IUnknown@@8           100413f0     sbSenderApp.obj
 0002:00009400       ??_R2IUnknown@@8           10041400     sbSenderApp.obj
 0002:00009408       ??_R1A@?0A@EA@IUnknown@@8  10041408     sbSenderApp.obj
 0002:00009424       ??_R3IRegistrarBase@@8     10041424     sbSenderApp.obj
 0002:00009434       ??_R2IRegistrarBase@@8     10041434     sbSenderApp.obj
 0002:00009440       ??_R1A@?0A@EA@IRegistrarBase@@8 10041440     sbSenderApp.obj
 0002:0000945c       ??_R3CAtlModule@ATL@@8     1004145c     sbSenderApp.obj
 0002:0000946c       ??_R2CAtlModule@ATL@@8     1004146c     sbSenderApp.obj
 0002:00009478       ??_R1A@?0A@EA@CAtlModule@ATL@@8 10041478     sbSenderApp.obj
 0002:00009494       ??_R13?0A@EA@_ATL_MODULE70@ATL@@8 10041494     sbSenderApp.obj
 0002:000094b0       ??_R3_ATL_MODULE70@ATL@@8  100414b0     sbSenderApp.obj
 0002:000094c0       ??_R2_ATL_MODULE70@ATL@@8  100414c0     sbSenderApp.obj
 0002:000094c8       ??_R1A@?0A@EA@_ATL_MODULE70@ATL@@8 100414c8     sbSenderApp.obj
 0002:000094e4       ??_R4CComModule@ATL@@6B@   100414e4     sbSenderApp.obj
 0002:000094f8       ??_R3CComModule@ATL@@8     100414f8     sbSenderApp.obj
 0002:00009508       ??_R2CComModule@ATL@@8     10041508     sbSenderApp.obj
 0002:0000951c       ??_R1A@?0A@EA@CComModule@ATL@@8 1004151c     sbSenderApp.obj
 0002:00009538       ??_R1A@?0A@EA@?$CAtlModuleT@VCComModule@ATL@@@ATL@@8 10041538     sbSenderApp.obj
 0002:00009554       ??_R3?$CAtlModuleT@VCComModule@ATL@@@ATL@@8 10041554     sbSenderApp.obj
 0002:00009564       ??_R2?$CAtlModuleT@VCComModule@ATL@@@ATL@@8 10041564     sbSenderApp.obj
 0002:00009574       ??_R4CRegObject@ATL@@6B@   10041574     sbSenderApp.obj
 0002:00009588       ??_R3CRegObject@ATL@@8     10041588     sbSenderApp.obj
 0002:00009598       ??_R2CRegObject@ATL@@8     10041598     sbSenderApp.obj
 0002:000095a8       ??_R1A@?0A@EA@CRegObject@ATL@@8 100415a8     sbSenderApp.obj
 0002:000095c4       ??_R4CAppModule@WTL@@6B@   100415c4     sbSenderApp.obj
 0002:000095d8       ??_R3CAppModule@WTL@@8     100415d8     sbSenderApp.obj
 0002:000095e8       ??_R2CAppModule@WTL@@8     100415e8     sbSenderApp.obj
 0002:00009600       ??_R1A@?0A@EA@CAppModule@WTL@@8 10041600     sbSenderApp.obj
 0002:0000961c       ??_R4type_info@@6B@        1004161c     LIBCMT:typinfo.obj
 0002:00009630       ??_R3type_info@@8          10041630     LIBCMT:typinfo.obj
 0002:00009640       ??_R2type_info@@8          10041640     LIBCMT:typinfo.obj
 0002:00009648       ??_R1A@?0A@EA@type_info@@8 10041648     LIBCMT:typinfo.obj
 0002:00009664       ??_R1A@?0A@EA@exception@std@@8 10041664     LIBCMT:new.obj
 0002:00009680       ??_R3exception@std@@8      10041680     LIBCMT:new.obj
 0002:00009690       ??_R2exception@std@@8      10041690     LIBCMT:new.obj
 0002:00009698       ??_R4bad_alloc@std@@6B@    10041698     LIBCMT:new.obj
 0002:000096ac       ??_R3bad_alloc@std@@8      100416ac     LIBCMT:new.obj
 0002:000096bc       ??_R2bad_alloc@std@@8      100416bc     LIBCMT:new.obj
 0002:000096c8       ??_R1A@?0A@EA@bad_alloc@std@@8 100416c8     LIBCMT:new.obj
 0002:000096e4       ??_R4bad_exception@std@@6B@ 100416e4     LIBCMT:frame.obj
 0002:000096f8       ??_R3bad_exception@std@@8  100416f8     LIBCMT:frame.obj
 0002:00009708       ??_R2bad_exception@std@@8  10041708     LIBCMT:frame.obj
 0002:00009714       ??_R1A@?0A@EA@bad_exception@std@@8 10041714     LIBCMT:frame.obj
 0002:00009730       ??_R4exception@std@@6B@    10041730     LIBCMT:stdexcpt.obj
 0002:00009744       ??_R4bad_cast@std@@6B@     10041744     LIBCMT:stdexcpt.obj
 0002:00009758       ??_R3bad_cast@std@@8       10041758     LIBCMT:stdexcpt.obj
 0002:00009768       ??_R2bad_cast@std@@8       10041768     LIBCMT:stdexcpt.obj
 0002:00009774       ??_R1A@?0A@EA@bad_cast@std@@8 10041774     LIBCMT:stdexcpt.obj
 0002:00009790       ??_R4bad_typeid@std@@6B@   10041790     LIBCMT:stdexcpt.obj
 0002:000097a4       ??_R3bad_typeid@std@@8     100417a4     LIBCMT:stdexcpt.obj
 0002:000097b4       ??_R2bad_typeid@std@@8     100417b4     LIBCMT:stdexcpt.obj
 0002:000097c0       ??_R1A@?0A@EA@bad_typeid@std@@8 100417c0     LIBCMT:stdexcpt.obj
 0002:000097dc       ??_R4__non_rtti_object@std@@6B@ 100417dc     LIBCMT:stdexcpt.obj
 0002:000097f0       ??_R3__non_rtti_object@std@@8 100417f0     LIBCMT:stdexcpt.obj
 0002:00009800       ??_R2__non_rtti_object@std@@8 10041800     LIBCMT:stdexcpt.obj
 0002:00009810       ??_R1A@?0A@EA@__non_rtti_object@std@@8 10041810     LIBCMT:stdexcpt.obj
 0002:0000982c       ??_R4DNameNode@@6B@        1004182c     LIBCMT:undname.obj
 0002:00009840       ??_R3DNameNode@@8          10041840     LIBCMT:undname.obj
 0002:00009850       ??_R2DNameNode@@8          10041850     LIBCMT:undname.obj
 0002:00009858       ??_R1A@?0A@EA@DNameNode@@8 10041858     LIBCMT:undname.obj
 0002:00009874       ??_R4charNode@@6B@         10041874     LIBCMT:undname.obj
 0002:00009888       ??_R3charNode@@8           10041888     LIBCMT:undname.obj
 0002:00009898       ??_R2charNode@@8           10041898     LIBCMT:undname.obj
 0002:000098a4       ??_R1A@?0A@EA@charNode@@8  100418a4     LIBCMT:undname.obj
 0002:000098c0       ??_R4pcharNode@@6B@        100418c0     LIBCMT:undname.obj
 0002:000098d4       ??_R3pcharNode@@8          100418d4     LIBCMT:undname.obj
 0002:000098e4       ??_R2pcharNode@@8          100418e4     LIBCMT:undname.obj
 0002:000098f0       ??_R1A@?0A@EA@pcharNode@@8 100418f0     LIBCMT:undname.obj
 0002:0000990c       ??_R4pDNameNode@@6B@       1004190c     LIBCMT:undname.obj
 0002:00009920       ??_R3pDNameNode@@8         10041920     LIBCMT:undname.obj
 0002:00009930       ??_R2pDNameNode@@8         10041930     LIBCMT:undname.obj
 0002:0000993c       ??_R1A@?0A@EA@pDNameNode@@8 1004193c     LIBCMT:undname.obj
 0002:00009958       ??_R4DNameStatusNode@@6B@  10041958     LIBCMT:undname.obj
 0002:0000996c       ??_R3DNameStatusNode@@8    1004196c     LIBCMT:undname.obj
 0002:0000997c       ??_R2DNameStatusNode@@8    1004197c     LIBCMT:undname.obj
 0002:00009988       ??_R1A@?0A@EA@DNameStatusNode@@8 10041988     LIBCMT:undname.obj
 0002:000099a4       ??_R4pairNode@@6B@         100419a4     LIBCMT:undname.obj
 0002:000099b8       ??_R3pairNode@@8           100419b8     LIBCMT:undname.obj
 0002:000099c8       ??_R2pairNode@@8           100419c8     LIBCMT:undname.obj
 0002:000099d4       ??_R1A@?0A@EA@pairNode@@8  100419d4     LIBCMT:undname.obj
 0002:000099f0       ??_R4logic_error@std@@6B@  100419f0     libcpmt:xthrow.obj
 0002:00009a04       ??_R3logic_error@std@@8    10041a04     libcpmt:xthrow.obj
 0002:00009a14       ??_R2logic_error@std@@8    10041a14     libcpmt:xthrow.obj
 0002:00009a20       ??_R1A@?0A@EA@logic_error@std@@8 10041a20     libcpmt:xthrow.obj
 0002:00009a3c       ??_R4invalid_argument@std@@6B@ 10041a3c     libcpmt:xthrow.obj
 0002:00009a50       ??_R3invalid_argument@std@@8 10041a50     libcpmt:xthrow.obj
 0002:00009a60       ??_R2invalid_argument@std@@8 10041a60     libcpmt:xthrow.obj
 0002:00009a70       ??_R1A@?0A@EA@invalid_argument@std@@8 10041a70     libcpmt:xthrow.obj
 0002:00009a8c       ??_R4length_error@std@@6B@ 10041a8c     libcpmt:xthrow.obj
 0002:00009aa0       ??_R3length_error@std@@8   10041aa0     libcpmt:xthrow.obj
 0002:00009ab0       ??_R2length_error@std@@8   10041ab0     libcpmt:xthrow.obj
 0002:00009ac0       ??_R1A@?0A@EA@length_error@std@@8 10041ac0     libcpmt:xthrow.obj
 0002:00009adc       ??_R4out_of_range@std@@6B@ 10041adc     libcpmt:xthrow.obj
 0002:00009af0       ??_R3out_of_range@std@@8   10041af0     libcpmt:xthrow.obj
 0002:00009b00       ??_R2out_of_range@std@@8   10041b00     libcpmt:xthrow.obj
 0002:00009b10       ??_R1A@?0A@EA@out_of_range@std@@8 10041b10     libcpmt:xthrow.obj
 0002:00009b2c       ??_R4runtime_error@std@@6B@ 10041b2c     libcpmt:xthrow.obj
 0002:00009b40       ??_R3runtime_error@std@@8  10041b40     libcpmt:xthrow.obj
 0002:00009b50       ??_R2runtime_error@std@@8  10041b50     libcpmt:xthrow.obj
 0002:00009b5c       ??_R1A@?0A@EA@runtime_error@std@@8 10041b5c     libcpmt:xthrow.obj
 0002:00009b78       ??_R4overflow_error@std@@6B@ 10041b78     libcpmt:xthrow.obj
 0002:00009b8c       ??_R3overflow_error@std@@8 10041b8c     libcpmt:xthrow.obj
 0002:00009b9c       ??_R2overflow_error@std@@8 10041b9c     libcpmt:xthrow.obj
 0002:00009bac       ??_R1A@?0A@EA@overflow_error@std@@8 10041bac     libcpmt:xthrow.obj
 0002:00009bc8       ??_R4bad_function_call@std@@6B@ 10041bc8     libcpmt:xthrow.obj
 0002:00009bdc       ??_R3bad_function_call@std@@8 10041bdc     libcpmt:xthrow.obj
 0002:00009bec       ??_R2bad_function_call@std@@8 10041bec     libcpmt:xthrow.obj
 0002:00009bf8       ??_R1A@?0A@EA@bad_function_call@std@@8 10041bf8     libcpmt:xthrow.obj
 0002:00009c14       ??_R4regex_error@std@@6B@  10041c14     libcpmt:xthrow.obj
 0002:00009c28       ??_R3regex_error@std@@8    10041c28     libcpmt:xthrow.obj
 0002:00009c38       ??_R2regex_error@std@@8    10041c38     libcpmt:xthrow.obj
 0002:00009c48       ??_R1A@?0A@EA@regex_error@std@@8 10041c48     libcpmt:xthrow.obj
 0002:00009c70       ___safe_se_handler_table   10041c70     <linker-defined>
 0002:00009d48       ___rtc_iaa                 10041d48     LIBCMT:initsect.obj
 0002:00009d4c       ___rtc_izz                 10041d4c     LIBCMT:initsect.obj
 0002:00009d50       ___rtc_taa                 10041d50     LIBCMT:initsect.obj
 0002:00009d54       ___rtc_tzz                 10041d54     LIBCMT:initsect.obj
 0002:00009ef4       __TI1H                     10041ef4     BugSplatImp.obj
 0002:00009f04       __CTA1H                    10041f04     BugSplatImp.obj
 0002:00009f0c       __CT??_R0H@84              10041f0c     BugSplatImp.obj
 0002:0000a96c       __TI1?AVCAtlException@ATL@@ 1004296c     sbSenderApp.obj
 0002:0000a97c       __CTA1?AVCAtlException@ATL@@ 1004297c     sbSenderApp.obj
 0002:0000a984       __CT??_R0?AVCAtlException@ATL@@@84 10042984     sbSenderApp.obj
 0002:0000aa1c       __TI2?AVbad_alloc@std@@    10042a1c     LIBCMT:new.obj
 0002:0000aa2c       __CTA2?AVbad_alloc@std@@   10042a2c     LIBCMT:new.obj
 0002:0000aa38       __CT??_R0?AVbad_alloc@std@@@8??0bad_alloc@std@@QAE@ABV01@@Z12 10042a38     LIBCMT:new.obj
 0002:0000aa54       __CT??_R0?AVexception@std@@@8??0exception@std@@QAE@ABV01@@Z12 10042a54     LIBCMT:new.obj
 0002:0000ade4       __TI2?AVbad_exception@std@@ 10042de4     LIBCMT:frame.obj
 0002:0000adf4       __CTA2?AVbad_exception@std@@ 10042df4     LIBCMT:frame.obj
 0002:0000ae00       __CT??_R0?AVbad_exception@std@@@8??0bad_exception@std@@QAE@ABV01@@Z12 10042e00     LIBCMT:frame.obj
 0002:0000b3cc       __TI3?AVinvalid_argument@std@@ 100433cc     libcpmt:xthrow.obj
 0002:0000b3dc       __CTA3?AVinvalid_argument@std@@ 100433dc     libcpmt:xthrow.obj
 0002:0000b3ec       __CT??_R0?AVinvalid_argument@std@@@8??0invalid_argument@std@@QAE@ABV01@@Z12 100433ec     libcpmt:xthrow.obj
 0002:0000b408       __CT??_R0?AVlogic_error@std@@@8??0logic_error@std@@QAE@ABV01@@Z12 10043408     libcpmt:xthrow.obj
 0002:0000b424       __TI3?AVlength_error@std@@ 10043424     libcpmt:xthrow.obj
 0002:0000b434       __CTA3?AVlength_error@std@@ 10043434     libcpmt:xthrow.obj
 0002:0000b444       __CT??_R0?AVlength_error@std@@@8??0length_error@std@@QAE@ABV01@@Z12 10043444     libcpmt:xthrow.obj
 0002:0000b460       __TI3?AVout_of_range@std@@ 10043460     libcpmt:xthrow.obj
 0002:0000b470       __CTA3?AVout_of_range@std@@ 10043470     libcpmt:xthrow.obj
 0002:0000b480       __CT??_R0?AVout_of_range@std@@@8??0out_of_range@std@@QAE@ABV01@@Z12 10043480     libcpmt:xthrow.obj
 0002:0000b49c       __TI3?AVoverflow_error@std@@ 1004349c     libcpmt:xthrow.obj
 0002:0000b4ac       __CTA3?AVoverflow_error@std@@ 100434ac     libcpmt:xthrow.obj
 0002:0000b4bc       __CT??_R0?AVoverflow_error@std@@@8??0overflow_error@std@@QAE@ABV01@@Z12 100434bc     libcpmt:xthrow.obj
 0002:0000b4d8       __CT??_R0?AVruntime_error@std@@@8??0runtime_error@std@@QAE@ABV01@@Z12 100434d8     libcpmt:xthrow.obj
 0002:0000b4f4       __TI2?AVruntime_error@std@@ 100434f4     libcpmt:xthrow.obj
 0002:0000b504       __CTA2?AVruntime_error@std@@ 10043504     libcpmt:xthrow.obj
 0002:0000b510       __TI2?AVbad_function_call@std@@ 10043510     libcpmt:xthrow.obj
 0002:0000b520       __CTA2?AVbad_function_call@std@@ 10043520     libcpmt:xthrow.obj
 0002:0000b52c       __CT??_R0?AVbad_function_call@std@@@8??0bad_function_call@std@@QAE@ABV01@@Z12 1004352c     libcpmt:xthrow.obj
 0002:0000b548       __TI3?AVregex_error@std@@  10043548     libcpmt:xthrow.obj
 0002:0000b558       __CTA3?AVregex_error@std@@ 10043558     libcpmt:xthrow.obj
 0002:0000b568       __CT??_R0?AVregex_error@std@@@8??0regex_error@std@@QAE@ABV01@@Z16 10043568     libcpmt:xthrow.obj
 0002:0000b584       ___pobjMapEntryFirst       10043584     BugSplatImp.obj
 0002:0000b588       ___pobjMapEntryLast        10043588     BugSplatImp.obj
 0002:0000c0a0       __IMPORT_DESCRIPTOR_WININET 100440a0     wininet:WININET.dll
 0002:0000c0b4       __IMPORT_DESCRIPTOR_SHLWAPI 100440b4     shlwapi:SHLWAPI.dll
 0002:0000c0c8       __IMPORT_DESCRIPTOR_KERNEL32 100440c8     kernel32:KERNEL32.dll
 0002:0000c0dc       __IMPORT_DESCRIPTOR_USER32 100440dc     user32:USER32.dll
 0002:0000c0f0       __IMPORT_DESCRIPTOR_ADVAPI32 100440f0     advapi32:ADVAPI32.dll
 0002:0000c104       __IMPORT_DESCRIPTOR_ole32  10044104     ole32:ole32.dll
 0002:0000c118       __IMPORT_DESCRIPTOR_OLEAUT32 10044118     oleaut32:OLEAUT32.dll
 0002:0000c12c       __IMPORT_DESCRIPTOR_VERSION 1004412c     version:VERSION.dll
 0002:0000c140       __IMPORT_DESCRIPTOR_RPCRT4 10044140     Rpcrt4:RPCRT4.dll
 0002:0000c154       __NULL_IMPORT_DESCRIPTOR   10044154     wininet:WININET.dll
 0003:00000000       ?rgInitData@WTL@@3PAHA     10046000     BugSplatImp.obj
 0003:00000010       ?_atltmpDataNil@WTL@@3PAUCStringData@1@A 10046010     BugSplatImp.obj
 0003:00000014       ?_atltmpPchNil@WTL@@3PBDB  10046014     BugSplatImp.obj
 0003:00000018       ?rcDefault@CWindow@ATL@@2UtagRECT@@A 10046018     BugSplatImp.obj
 0003:00000028       ?m_enableFilter@MiniDumper@@2_NA 10046028     mdump.obj
 0003:0000002c       ?m_waitCreateReportThreaded@MiniDumper@@2HA 1004602c     mdump.obj
 0003:00000030       ?m_waitSendReportThreaded@MiniDumper@@2HA 10046030     mdump.obj
 0003:00000034       ?_Generic_object@?$_Error_objects@H@std@@2V_Generic_error_category@2@A 10046034     mdump.obj
 0003:00000038       ?_Iostream_object@?$_Error_objects@H@std@@2V_Iostream_error_category@2@A 10046038     mdump.obj
 0003:0000003c       ?_System_object@?$_Error_objects@H@std@@2V_System_error_category@2@A 1004603c     mdump.obj
 0003:00000040       ___security_cookie         10046040     LIBCMT:gs_cookie.obj
 0003:00000044       ___security_cookie_complement 10046044     LIBCMT:gs_cookie.obj
 0003:00000050       __fltused                  10046050     LIBCMT:fpinit.obj
 0003:00000054       __ldused                   10046054     LIBCMT:fpinit.obj
 0003:00000058       ___abort_behavior          10046058     LIBCMT:abort.obj
 0003:000002f8       __cfltcvt_tab              100462f8     LIBCMT:cmiscdat.obj
 0003:00000320       __mbctype                  10046320     LIBCMT:mbctype.obj
 0003:00000428       __mbcasemap                10046428     LIBCMT:mbctype.obj
 0003:00000528       ___initialmbcinfo          10046528     LIBCMT:mbctype.obj
 0003:0000074c       ___ptmbcinfo               1004674c     LIBCMT:mbctype.obj
 0003:00000840       ___isa_enabled             10046840     LIBCMT:cpu_disp.obj
 0003:00000850       ___flsindex                10046850     LIBCMT:tidtable.obj
 0003:00000854       ___mb_cur_max              10046854     LIBCMT:nlsdata.obj
 0003:00000858       ___wclocalestr             10046858     LIBCMT:nlsdata.obj
 0003:00000860       ___lc_time_c               10046860     LIBCMT:nlsdata.obj
 0003:000009c4       ___ptlocinfo               100469c4     LIBCMT:nlsdata.obj
 0003:000009c8       ___initiallocinfo          100469c8     LIBCMT:nlsdata.obj
 0003:00000a80       ___initiallocalestructinfo 10046a80     LIBCMT:nlsdata.obj
 0003:00000a88       ___globallocalestatus      10046a88     LIBCMT:glstatus.obj
 0003:00000a8c       ___nullstring              10046a8c     LIBCMT:output.obj
 0003:00000a90       ___wnullstring             10046a90     LIBCMT:output.obj
 0003:00000aa8       __d_inf                    10046aa8     LIBCMT:util.obj
 0003:00000ab0       __d_ind                    10046ab0     LIBCMT:util.obj
 0003:00000ab8       __d_max                    10046ab8     LIBCMT:util.obj
 0003:00000ac0       __d_min                    10046ac0     LIBCMT:util.obj
 0003:00000ac8       __d_mzero                  10046ac8     LIBCMT:util.obj
 0003:00000be0       __iob                      10046be0     LIBCMT:_file.obj
 0003:00000e60       ___badioinfo               10046e60     LIBCMT:ioinit.obj
 0003:00000ea0       __timezone                 10046ea0     LIBCMT:timeset.obj
 0003:00000ea4       __daylight                 10046ea4     LIBCMT:timeset.obj
 0003:00000ea8       __dstbias                  10046ea8     LIBCMT:timeset.obj
 0003:00000f30       __tzname                   10046f30     LIBCMT:timeset.obj
 0003:00000f50       ___lconv                   10046f50     LIBCMT:lconv.obj
 0003:00000f54       ___lconv_static_decimal    10046f54     LIBCMT:lconv.obj
 0003:00000f58       ___lconv_c                 10046f58     LIBCMT:lconv.obj
 0003:00000fa8       ___lconv_static_W_decimal  10046fa8     LIBCMT:lconv.obj
 0003:00000fb0       __pctype                   10046fb0     LIBCMT:ctype.obj
 0003:00000fb4       __pwctype                  10046fb4     LIBCMT:ctype.obj
 0003:00000fc0       __NLG_Destination          10046fc0     LIBCMT:exsup.obj
 0003:00000fe0       __matherr_flag             10046fe0     LIBCMT:matherr.obj
 0003:00000ff0       __days                     10046ff0     LIBCMT:days.obj
 0003:00001024       __lpdays                   10047024     LIBCMT:days.obj
 0003:00001060       __HUGE                     10047060     LIBCMT:huge.obj
 0003:00001098       __confh                    10047098     LIBCMT:initcon.obj
 0003:000010a0       __pow10pos                 100470a0     LIBCMT:constpow.obj
 0003:00001200       __pow10neg                 10047200     LIBCMT:constpow.obj
 0003:00001360       __lookuptrailbytes         10047360     LIBCMT:read.obj
 0003:00001460       ??_R0H@8                   10047460     BugSplatImp.obj
 0003:0000146c       ??_R0?AVMiniDmpSender@@@8  1004746c     BugSplatImp.obj
 0003:00001488       ??_R0?AVGenericHTTPClient@@@8 10047488     GenericHTTPClientA.obj
 0003:000014a8       ??_R0?AVMiniDumper@@@8     100474a8     mdump.obj
 0003:000014c4       ??_R0?AVerror_category@std@@@8 100474c4     mdump.obj
 0003:000014e8       ??_R0?AV_Generic_error_category@std@@@8 100474e8     mdump.obj
 0003:00001514       ??_R0?AV_Iostream_error_category@std@@@8 10047514     mdump.obj
 0003:00001540       ??_R0?AV_System_error_category@std@@@8 10047540     mdump.obj
 0003:0000156c       ??_R0?AVCAtlException@ATL@@@8 1004756c     sbSenderApp.obj
 0003:0000158c       ??_R0?AUIUnknown@@@8       1004758c     sbSenderApp.obj
 0003:000015a4       ??_R0?AUIRegistrarBase@@@8 100475a4     sbSenderApp.obj
 0003:000015c4       ??_R0?AVCAtlModule@ATL@@@8 100475c4     sbSenderApp.obj
 0003:000015e4       ??_R0?AU_ATL_MODULE70@ATL@@@8 100475e4     sbSenderApp.obj
 0003:00001604       ??_R0?AVCComModule@ATL@@@8 10047604     sbSenderApp.obj
 0003:00001624       ??_R0?AV?$CAtlModuleT@VCComModule@ATL@@@ATL@@@8 10047624     sbSenderApp.obj
 0003:00001658       ??_R0?AVCRegObject@ATL@@@8 10047658     sbSenderApp.obj
 0003:00001678       ??_R0?AVCAppModule@WTL@@@8 10047678     sbSenderApp.obj
 0003:00001698       ??_R0?AVtype_info@@@8      10047698     LIBCMT:typinfo.obj
 0003:000016b0       ??_R0?AVbad_alloc@std@@@8  100476b0     LIBCMT:new.obj
 0003:000016cc       ??_R0?AVexception@std@@@8  100476cc     LIBCMT:new.obj
 0003:000016e8       ??_R0?AVbad_exception@std@@@8 100476e8     LIBCMT:frame.obj
 0003:00001708       ??_R0?AVbad_cast@std@@@8   10047708     LIBCMT:stdexcpt.obj
 0003:00001724       ??_R0?AVbad_typeid@std@@@8 10047724     LIBCMT:stdexcpt.obj
 0003:00001744       ??_R0?AV__non_rtti_object@std@@@8 10047744     LIBCMT:stdexcpt.obj
 0003:00001768       ??_R0?AVDNameNode@@@8      10047768     LIBCMT:undname.obj
 0003:00001780       ??_R0?AVcharNode@@@8       10047780     LIBCMT:undname.obj
 0003:00001798       ??_R0?AVpcharNode@@@8      10047798     LIBCMT:undname.obj
 0003:000017b0       ??_R0?AVpDNameNode@@@8     100477b0     LIBCMT:undname.obj
 0003:000017cc       ??_R0?AVDNameStatusNode@@@8 100477cc     LIBCMT:undname.obj
 0003:000017ec       ??_R0?AVpairNode@@@8       100477ec     LIBCMT:undname.obj
 0003:00001804       ??_R0?AVinvalid_argument@std@@@8 10047804     libcpmt:xthrow.obj
 0003:00001828       ??_R0?AVlogic_error@std@@@8 10047828     libcpmt:xthrow.obj
 0003:00001848       ??_R0?AVlength_error@std@@@8 10047848     libcpmt:xthrow.obj
 0003:00001868       ??_R0?AVout_of_range@std@@@8 10047868     libcpmt:xthrow.obj
 0003:00001888       ??_R0?AVoverflow_error@std@@@8 10047888     libcpmt:xthrow.obj
 0003:000018ac       ??_R0?AVruntime_error@std@@@8 100478ac     libcpmt:xthrow.obj
 0003:000018cc       ??_R0?AVbad_function_call@std@@@8 100478cc     libcpmt:xthrow.obj
 0003:000018f0       ??_R0?AVregex_error@std@@@8 100478f0     libcpmt:xthrow.obj
 0003:00001920       ?_pAtlModule@ATL@@3PAVCAtlModule@1@A 10047920     BugSplatImp.obj
 0003:00001924       ?m_libid@CAtlModule@ATL@@2U_GUID@@A 10047924     BugSplatImp.obj
 0003:00001934       ?DoFullMemoryDumpThenExit@BugSplatImp@@2_NA 10047934     BugSplatImp.obj
 0003:00001938       ?MiniDumpType@BugSplatImp@@2W4_MINIDUMP_TYPE@@A 10047938     BugSplatImp.obj
 0003:00001940       ?_pModule@ATL@@3PAVCComModule@1@A 10047940     BugSplatImp.obj
 0003:00001944       ?_pPerfRegFunc@ATL@@3P6AJPAUHINSTANCE__@@@ZA 10047944     BugSplatImp.obj
 0003:00001948       ?_pPerfUnRegFunc@ATL@@3P6AJXZA 10047948     BugSplatImp.obj
 0003:0000194c       ?_AtlRegisterPerUser@ATL@@3_NA 1004794c     BugSplatImp.obj
 0003:0000194d       ?m_bInitFailed@CAtlBaseModule@ATL@@2_NA 1004794d     BugSplatImp.obj
 0003:00001950       ?WM_ATLGETHOST@ATL@@3IA    10047950     BugSplatImp.obj
 0003:00001954       ?WM_ATLGETCONTROL@ATL@@3IA 10047954     BugSplatImp.obj
 0003:00001958       ?ATL_CREATE_OBJECT@CComApartment@ATL@@2IA 10047958     BugSplatImp.obj
 0003:0000195c       ?_pAtlAutoThreadModule@ATL@@3PAUIAtlAutoThreadModule@1@A 1004795c     BugSplatImp.obj
 0003:00001960       ?atlTraceGeneral@ATL@@3V?$CTraceCategoryEx@$00$0A@@1@A 10047960     BugSplatImp.obj
 0003:00001964       ?atlTraceCOM@ATL@@3V?$CTraceCategoryEx@$01$0A@@1@A 10047964     BugSplatImp.obj
 0003:00001968       ?atlTraceQI@ATL@@3V?$CTraceCategoryEx@$03$0A@@1@A 10047968     BugSplatImp.obj
 0003:0000196c       ?atlTraceRegistrar@ATL@@3V?$CTraceCategoryEx@$07$0A@@1@A 1004796c     BugSplatImp.obj
 0003:00001970       ?atlTraceRefcount@ATL@@3V?$CTraceCategoryEx@$0BA@$0A@@1@A 10047970     BugSplatImp.obj
 0003:00001974       ?atlTraceWindowing@ATL@@3V?$CTraceCategoryEx@$0CA@$0A@@1@A 10047974     BugSplatImp.obj
 0003:00001978       ?atlTraceControls@ATL@@3V?$CTraceCategoryEx@$0EA@$0A@@1@A 10047978     BugSplatImp.obj
 0003:0000197c       ?atlTraceHosting@ATL@@3V?$CTraceCategoryEx@$0IA@$0A@@1@A 1004797c     BugSplatImp.obj
 0003:00001980       ?atlTraceDBClient@ATL@@3V?$CTraceCategoryEx@$0BAA@$0A@@1@A 10047980     BugSplatImp.obj
 0003:00001984       ?atlTraceDBProvider@ATL@@3V?$CTraceCategoryEx@$0CAA@$0A@@1@A 10047984     BugSplatImp.obj
 0003:00001988       ?atlTraceSnapin@ATL@@3V?$CTraceCategoryEx@$0EAA@$0A@@1@A 10047988     BugSplatImp.obj
 0003:0000198c       ?atlTraceNotImpl@ATL@@3V?$CTraceCategoryEx@$0IAA@$0A@@1@A 1004798c     BugSplatImp.obj
 0003:00001990       ?atlTraceAllocation@ATL@@3V?$CTraceCategoryEx@$0BAAA@$0A@@1@A 10047990     BugSplatImp.obj
 0003:00001994       ?atlTraceException@ATL@@3V?$CTraceCategoryEx@$0CAAA@$0A@@1@A 10047994     BugSplatImp.obj
 0003:00001998       ?atlTraceTime@ATL@@3V?$CTraceCategoryEx@$0EAAA@$0A@@1@A 10047998     BugSplatImp.obj
 0003:0000199c       ?atlTraceCache@ATL@@3V?$CTraceCategoryEx@$0IAAA@$0A@@1@A 1004799c     BugSplatImp.obj
 0003:000019a0       ?atlTraceStencil@ATL@@3V?$CTraceCategoryEx@$0BAAAA@$0A@@1@A 100479a0     BugSplatImp.obj
 0003:000019a4       ?atlTraceString@ATL@@3V?$CTraceCategoryEx@$0CAAAA@$0A@@1@A 100479a4     BugSplatImp.obj
 0003:000019a8       ?atlTraceMap@ATL@@3V?$CTraceCategoryEx@$0EAAAA@$0A@@1@A 100479a8     BugSplatImp.obj
 0003:000019ac       ?atlTraceUtil@ATL@@3V?$CTraceCategoryEx@$0IAAAA@$0A@@1@A 100479ac     BugSplatImp.obj
 0003:000019b0       ?atlTraceSecurity@ATL@@3V?$CTraceCategoryEx@$0BAAAAA@$0A@@1@A 100479b0     BugSplatImp.obj
 0003:000019b4       ?atlTraceSync@ATL@@3V?$CTraceCategoryEx@$0CAAAAA@$0A@@1@A 100479b4     BugSplatImp.obj
 0003:000019b8       ?atlTraceISAPI@ATL@@3V?$CTraceCategoryEx@$0EAAAAA@$0A@@1@A 100479b8     BugSplatImp.obj
 0003:000019bc       ?_AtlComModule@ATL@@3VCAtlComModule@1@A 100479bc     BugSplatImp.obj
 0003:000019e4       ?_AtlWinModule@ATL@@3VCAtlWinModule@1@A 100479e4     BugSplatImp.obj
 0003:00001a10       ?szErr@@3PADA              10047a10     GenericHTTPClientA.obj
 0003:00001f18       ?hLibKern32@@3PAUHINSTANCE__@@A 10047f18     mdump.obj
 0003:00001f1c       ?pexceptionhandler@@3PAXA  10047f1c     mdump.obj
 0003:00001f20       ?s_pThis@MiniDumper@@2PAV1@A 10047f20     mdump.obj
 0003:00001f24       ?m_previousExceptionFilter@MiniDumper@@2P6GJPAU_EXCEPTION_POINTERS@@@ZA 10047f24     mdump.obj
 0003:00001f28       ?m_exceptionCaught@MiniDumper@@2_NA 10047f28     mdump.obj
 0003:00001f30       ?m_imp@MiniDumper@@1VBugSplatImp@@A 10047f30     mdump.obj
 0003:00003f38       ?id@?$num_put@DV?$back_insert_iterator@V?$basic_string@DU?$char_traits@D@std@@V?$allocator@D@2@@std@@@std@@@std@@2V0locale@2@A 10049f38     mdump.obj
 0003:00003f3c       ?id@?$num_put@GV?$back_insert_iterator@V?$basic_string@GU?$char_traits@G@std@@V?$allocator@G@2@@std@@@std@@@std@@2V0locale@2@A 10049f3c     mdump.obj
 0003:0000430c       ?id@?$numpunct@D@std@@2V0locale@2@A 1004a30c     mdump.obj
 0003:00004310       ?id@?$numpunct@G@std@@2V0locale@2@A 1004a310     mdump.obj
 0003:0000431c       ?pfnRegDeleteKeyEx@?6??DeleteSubKey@CRegKey@ATL@@QAEJPBD@Z@4P6GJPAUHKEY__@@0KK@ZA 1004a31c     sbSenderApp.obj
 0003:00004320       ?bInitialized@?6??DeleteSubKey@CRegKey@ATL@@QAEJPBD@Z@4_NA 1004a320     sbSenderApp.obj
 0003:00004324       ?map@?1??VTFromRegType@CRegParser@ATL@@KAHPBDAAG@Z@4QBUtypemap@?1??123@KAH01@Z@B 1004a324     sbSenderApp.obj
 0003:00004344       ??_B?1??VTFromRegType@CRegParser@ATL@@KAHPBDAAG@Z@51 1004a344     sbSenderApp.obj
 0003:00004348       ?_Module@@3VCAppModule@WTL@@A 1004a348     sbSenderApp.obj
 0003:0000438c       ___@@_PchSym_@00@UdddUhixUyfthkozgUhyhvmwviUdrmDCUivovzhvUhgwzucOlyq@4382F048161FA710 1004a38c     StdAfx.obj
 0003:00004394       ?_AtlBaseModule@ATL@@3VCAtlBaseModule@1@A 1004a394     atls:atlbase.obj
 0003:000043cc       ___@@_PchSym_@00@UwwUexgllohUexHoryhUhsrkUzgonuxUhixUzgoUzgohUlyqBiUrDIGUhgwzucOlyq@78CA5F0B165856AC 1004a3cc     atls:stdafx.obj
 0003:000043d0       __C_Exit_Done              1004a3d0     LIBCMT:crt0dat.obj
 0003:000043d4       ___argc                    1004a3d4     LIBCMT:crt0dat.obj
 0003:000043d8       ___argv                    1004a3d8     LIBCMT:crt0dat.obj
 0003:000043dc       ___wargv                   1004a3dc     LIBCMT:crt0dat.obj
 0003:000043e0       __environ                  1004a3e0     LIBCMT:crt0dat.obj
 0003:000043e4       __wenviron                 1004a3e4     LIBCMT:crt0dat.obj
 0003:000043e8       __pgmptr                   1004a3e8     LIBCMT:crt0dat.obj
 0003:000043ec       __wpgmptr                  1004a3ec     LIBCMT:crt0dat.obj
 0003:000043f0       __umaskval                 1004a3f0     LIBCMT:crt0dat.obj
 0003:000043f4       __exitflag                 1004a3f4     LIBCMT:crt0dat.obj
 0003:000043f8       __C_Termination_Done       1004a3f8     LIBCMT:crt0dat.obj
 0003:000043fc       ___winitenv                1004a3fc     LIBCMT:crt0dat.obj
 0003:00004400       ___initenv                 1004a400     LIBCMT:crt0dat.obj
 0003:00004404       ___fastflag                1004a404     LIBCMT:fpinit.obj
 0003:00004408       ___pInvalidArgHandler      1004a408     LIBCMT:invarg.obj
 0003:00004758       ?nothrow@std@@3Unothrow_t@1@B 1004a758     LIBCMT:nothrow0.obj
 0003:00004760       __aenvptr                  1004a760     LIBCMT:dllcrt0.obj
 0003:00004764       __wenvptr                  1004a764     LIBCMT:dllcrt0.obj
 0003:00004768       ?__pInconsistency@@3P6AXXZA 1004a768     LIBCMT:hooks.obj
 0003:0000476c       __maxwait                  1004a76c     LIBCMT:crtheap.obj
 0003:000048c0       ___app_type                1004a8c0     LIBCMT:crt0msg.obj
 0003:00004ef0       ?_pnhHeap@@3P6AHI@ZA       1004aef0     LIBCMT:handler.obj
 0003:00004ef4       ___pPurecall               1004aef4     LIBCMT:inithelp.obj
 0003:00004efc       ___mbcodepage              1004aefc     LIBCMT:mbctype.obj
 0003:00004f00       ___ismbcodepage            1004af00     LIBCMT:mbctype.obj
 0003:00004f04       ___mbulinfo                1004af04     LIBCMT:mbctype.obj
 0003:00004f10       ___mblocalename            1004af10     LIBCMT:mbctype.obj
 0003:00004f18       __stdbuf                   1004af18     LIBCMT:_sftbuf.obj
 0003:00004f20       __crtheap                  1004af20     LIBCMT:heapinit.obj
 0003:00004f24       ___isa_available           1004af24     LIBCMT:cpu_disp.obj
 0003:00004f28       ___favor                   1004af28     LIBCMT:cpu_disp.obj
 0003:00004f2c       ?g_OutOfMemoryExceptionCallback@@3P6GPAXXZA 1004af2c     LIBCMT:frame.obj
 0003:00004f38       __cflush                   1004af38     LIBCMT:_file.obj
 0003:00004f40       ___pioinfo                 1004af40     LIBCMT:ioinit.obj
 0003:000050fc       __newmode                  1004b0fc     LIBCMT:_newmode.obj
 0003:00005208       ___error_mode              1004b208     LIBCMT:errmode.obj
 0003:00005224       ___lconv_static_null       1004b224     LIBCMT:lconv.obj
 0003:00005228       ___lconv_static_W_null     1004b228     LIBCMT:lconv.obj
 0003:0000522c       ?pArgList@UnDecorator@@0PAVReplicator@@A 1004b22c     LIBCMT:undname.obj
 0003:00005230       ?pZNameList@UnDecorator@@0PAVReplicator@@A 1004b230     LIBCMT:undname.obj
 0003:00005234       ?pTemplateArgList@UnDecorator@@0PAVReplicator@@A 1004b234     LIBCMT:undname.obj
 0003:00005238       ?gName@UnDecorator@@0PBDB  1004b238     LIBCMT:undname.obj
 0003:0000523c       ?name@UnDecorator@@0PBDB   1004b23c     LIBCMT:undname.obj
 0003:00005240       ?outputString@UnDecorator@@0PADA 1004b240     LIBCMT:undname.obj
 0003:00005244       ?maxStringLength@UnDecorator@@0HA 1004b244     LIBCMT:undname.obj
 0003:00005248       ?disableFlags@UnDecorator@@0KA 1004b248     LIBCMT:undname.obj
 0003:0000524c       ?fExplicitTemplateParams@UnDecorator@@0_NA 1004b24c     LIBCMT:undname.obj
 0003:0000524d       ?fGetTemplateArgumentList@UnDecorator@@0_NA 1004b24d     LIBCMT:undname.obj
 0003:00005250       ?m_pGetParameter@UnDecorator@@0P6APADJ@ZA 1004b250     LIBCMT:undname.obj
 0003:00005268       ?nodes@?1??make@DNameStatusNode@@SAPAV2@W4DNameStatus@@@Z@4PAV2@A 1004b268     LIBCMT:undname.obj
 0003:00005298       ??_B?1??make@DNameStatusNode@@SAPAV1@W4DNameStatus@@@Z@51 1004b298     LIBCMT:undname.obj
 0003:0000529c       ___locale_changed          1004b29c     LIBCMT:wsetloca.obj
 0003:000052a0       __outputformat             1004b2a0     LIBCMT:outputformat.obj
 0003:000052a4       __commode                  1004b2a4     LIBCMT:ncommode.obj
 0003:000052a8       __fmode                    1004b2a8     LIBCMT:txtmode.obj
 0003:000052b0       ?id@?$num_put@_WV?$back_insert_iterator@V?$basic_string@_WU?$char_traits@_W@std@@V?$allocator@_W@2@@std@@@std@@@std@@2V0locale@2@A 1004b2b0     libcpmt:xthrow.obj
 0003:000052b4       ?id@?$numpunct@_W@std@@2V0locale@2@A 1004b2b4     libcpmt:xthrow.obj
 0003:000052bc       ___unguarded_readlc_active 1004b2bc     <common>
 0003:000052c0       ___setlc_active            1004b2c0     <common>
 0003:000052c4       __nhandle                  1004b2c4     <common>
 0003:000052e0       __bufin                    1004b2e0     <common>
 0003:000062e0       ___piob                    1004c2e0     <common>
 0003:000062e4       __nstream                  1004c2e4     <common>
 0003:000062e8       __debugger_hook_dummy      1004c2e8     <common>
 0003:00006300       _encodedKERNEL32Functions  1004c300     <common>
 0003:00006384       __acmdln                   1004c384     <common>
 0003:00006388       ___dyn_tls_init_callback   1004c388     <common>
 0003:0000638c       ___onexitend               1004c38c     <common>
 0003:00006390       ___onexitbegin             1004c390     <common>
 0003:00006394       ___mbctype_initialized     1004c394     <common>
 0003:00006398       ___env_initialized         1004c398     <common>

 entry point at        0001:0000ecfd

 Static symbols

 0000:fffaf000       .debug$S                   10000000     kernel32:KERNEL32.dll
 0000:fffaf000       .debug$S                   10000000     Rpcrt4:RPCRT4.dll
 0000:fffaf000       .debug$S                   10000000     Rpcrt4:RPCRT4.dll
 0001:fffff000       __ehhandler$?_Copy@?$basic_string@DU?$char_traits@D@std@@V?$allocator@D@2@@std@@QAEXII@Z 10000000 f   libcpmt:syserror.obj
 0002:fffc8000       __catchsym$?_Copy@?$basic_string@DU?$char_traits@D@std@@V?$allocator@D@2@@std@@QAEXII@Z$5 10000000     libcpmt:syserror.obj
 0000:fffaf000       .debug$S                   10000000     oleaut32:OLEAUT32.dll
 0000:fffaf000       .debug$S                   10000000     oleaut32:OLEAUT32.dll
 0000:fffaf000       .debug$S                   10000000     ole32:ole32.dll
 0000:fffaf000       .debug$S                   10000000     ole32:ole32.dll
 0000:fffaf000       .debug$S                   10000000     ole32:ole32.dll
 0000:fffaf000       .debug$S                   10000000     ole32:ole32.dll
 0000:fffaf000       .debug$S                   10000000     ole32:ole32.dll
 0000:fffaf000       .debug$S                   10000000     advapi32:ADVAPI32.dll
 0000:fffaf000       .debug$S                   10000000     advapi32:ADVAPI32.dll
 0000:fffaf000       .debug$S                   10000000     advapi32:ADVAPI32.dll
 0000:fffaf000       .debug$S                   10000000     advapi32:ADVAPI32.dll
 0000:fffaf000       .debug$S                   10000000     advapi32:ADVAPI32.dll
 0000:fffaf000       .debug$S                   10000000     advapi32:ADVAPI32.dll
 0000:fffaf000       .debug$S                   10000000     advapi32:ADVAPI32.dll
 0000:fffaf000       .debug$S                   10000000     advapi32:ADVAPI32.dll
 0000:fffaf000       .debug$S                   10000000     advapi32:ADVAPI32.dll
 0000:fffaf000       .debug$S                   10000000     advapi32:ADVAPI32.dll
 0000:fffaf000       .debug$S                   10000000     advapi32:ADVAPI32.dll
 0000:fffaf000       .debug$S                   10000000     user32:USER32.dll
 0000:fffaf000       .debug$S                   10000000     user32:USER32.dll
 0000:fffaf000       .debug$S                   10000000     user32:USER32.dll
 0000:fffaf000       .debug$S                   10000000     user32:USER32.dll
 0000:fffaf000       .debug$S                   10000000     user32:USER32.dll
 0000:fffaf000       .debug$S                   10000000     user32:USER32.dll
 0000:fffaf000       .debug$S                   10000000     user32:USER32.dll
 0000:fffaf000       .debug$S                   10000000     user32:USER32.dll
 0000:fffaf000       .debug$S                   10000000     kernel32:KERNEL32.dll
 0000:fffaf000       .debug$S                   10000000     kernel32:KERNEL32.dll
 0000:fffaf000       .debug$S                   10000000     kernel32:KERNEL32.dll
 0000:fffaf000       .debug$S                   10000000     kernel32:KERNEL32.dll
 0000:fffaf000       .debug$S                   10000000     kernel32:KERNEL32.dll
 0000:fffaf000       .debug$S                   10000000     kernel32:KERNEL32.dll
 0000:fffaf000       .debug$S                   10000000     kernel32:KERNEL32.dll
 0000:fffaf000       .debug$S                   10000000     kernel32:KERNEL32.dll
 0000:fffaf000       .debug$S                   10000000     kernel32:KERNEL32.dll
 0000:fffaf000       .debug$S                   10000000     kernel32:KERNEL32.dll
 0000:fffaf000       .debug$S                   10000000     kernel32:KERNEL32.dll
 0000:fffaf000       .debug$S                   10000000     kernel32:KERNEL32.dll
 0000:fffaf000       .debug$S                   10000000     kernel32:KERNEL32.dll
 0000:fffaf000       .debug$S                   10000000     kernel32:KERNEL32.dll
 0000:fffaf000       .debug$S                   10000000     kernel32:KERNEL32.dll
 0000:fffaf000       .debug$S                   10000000     kernel32:KERNEL32.dll
 0000:fffaf000       .debug$S                   10000000     kernel32:KERNEL32.dll
 0000:fffaf000       .debug$S                   10000000     kernel32:KERNEL32.dll
 0000:fffaf000       .debug$S                   10000000     kernel32:KERNEL32.dll
 0000:fffaf000       .debug$S                   10000000     kernel32:KERNEL32.dll
 0000:fffaf000       .debug$S                   10000000     kernel32:KERNEL32.dll
 0000:fffaf000       .debug$S                   10000000     kernel32:KERNEL32.dll
 0000:fffaf000       .debug$S                   10000000     kernel32:KERNEL32.dll
 0000:fffaf000       .debug$S                   10000000     kernel32:KERNEL32.dll
 0000:fffaf000       .debug$S                   10000000     kernel32:KERNEL32.dll
 0000:fffaf000       .debug$S                   10000000     kernel32:KERNEL32.dll
 0000:fffaf000       .debug$S                   10000000     kernel32:KERNEL32.dll
 0000:fffaf000       .debug$S                   10000000     kernel32:KERNEL32.dll
 0000:fffaf000       .debug$S                   10000000     kernel32:KERNEL32.dll
 0000:fffaf000       .debug$S                   10000000     kernel32:KERNEL32.dll
 0000:fffaf000       .debug$S                   10000000     kernel32:KERNEL32.dll
 0000:fffaf000       .debug$S                   10000000     kernel32:KERNEL32.dll
 0000:fffaf000       .debug$S                   10000000     kernel32:KERNEL32.dll
 0000:fffaf000       .debug$S                   10000000     kernel32:KERNEL32.dll
 0000:fffaf000       .debug$S                   10000000     kernel32:KERNEL32.dll
 0000:fffaf000       .debug$S                   10000000     kernel32:KERNEL32.dll
 0000:fffaf000       .debug$S                   10000000     kernel32:KERNEL32.dll
 0000:fffaf000       .debug$S                   10000000     version:VERSION.dll
 0002:fffc8000       __AtlComModule$initializer$ 10000000     StdAfx.obj
 0002:fffc8000       __AtlWinModule$initializer$ 10000000     StdAfx.obj
 0000:fffaf000       .debug$S                   10000000     kernel32:KERNEL32.dll
 0000:fffaf000       .debug$S                   10000000     kernel32:KERNEL32.dll
 0000:fffaf000       .debug$S                   10000000     kernel32:KERNEL32.dll
 0000:fffaf000       .debug$S                   10000000     kernel32:KERNEL32.dll
 0000:fffaf000       .debug$S                   10000000     version:VERSION.dll
 0002:fffc8000       __AtlComModule$initializer$ 10000000     sbSenderCFns.obj
 0002:fffc8000       __AtlWinModule$initializer$ 10000000     sbSenderCFns.obj
 0000:fffaf000       .debug$S                   10000000     kernel32:KERNEL32.dll
 0000:fffaf000       .debug$S                   10000000     kernel32:KERNEL32.dll
 0000:fffaf000       .debug$S                   10000000     kernel32:KERNEL32.dll
 0000:fffaf000       .debug$S                   10000000     kernel32:KERNEL32.dll
 0000:fffaf000       .debug$S                   10000000     kernel32:KERNEL32.dll
 0000:fffaf000       .debug$S                   10000000     kernel32:KERNEL32.dll
 0000:fffaf000       .debug$S                   10000000     kernel32:KERNEL32.dll
 0000:fffaf000       .debug$S                   10000000     kernel32:KERNEL32.dll
 0000:fffaf000       .debug$S                   10000000     kernel32:KERNEL32.dll
 0000:fffaf000       .debug$S                   10000000     kernel32:KERNEL32.dll
 0000:fffaf000       .debug$S                   10000000     kernel32:KERNEL32.dll
 0000:fffaf000       .debug$S                   10000000     kernel32:KERNEL32.dll
 0000:fffaf000       .debug$S                   10000000     kernel32:KERNEL32.dll
 0000:fffaf000       .debug$S                   10000000     kernel32:KERNEL32.dll
 0000:fffaf000       .debug$S                   10000000     kernel32:KERNEL32.dll
 0000:fffaf000       .debug$S                   10000000     kernel32:KERNEL32.dll
 0000:fffaf000       .debug$S                   10000000     kernel32:KERNEL32.dll
 0000:fffaf000       .debug$S                   10000000     kernel32:KERNEL32.dll
 0000:fffaf000       .debug$S                   10000000     kernel32:KERNEL32.dll
 0000:fffaf000       .debug$S                   10000000     kernel32:KERNEL32.dll
 0000:fffaf000       .debug$S                   10000000     kernel32:KERNEL32.dll
 0000:fffaf000       .debug$S                   10000000     kernel32:KERNEL32.dll
 0000:fffaf000       .debug$S                   10000000     kernel32:KERNEL32.dll
 0000:fffaf000       .debug$S                   10000000     kernel32:KERNEL32.dll
 0000:fffaf000       .debug$S                   10000000     kernel32:KERNEL32.dll
 0000:fffaf000       .debug$S                   10000000     kernel32:KERNEL32.dll
 0000:fffaf000       .debug$S                   10000000     kernel32:KERNEL32.dll
 0000:fffaf000       .debug$S                   10000000     kernel32:KERNEL32.dll
 0000:fffaf000       .debug$S                   10000000     kernel32:KERNEL32.dll
 0000:fffaf000       .debug$S                   10000000     kernel32:KERNEL32.dll
 0000:fffaf000       .debug$S                   10000000     kernel32:KERNEL32.dll
 0000:fffaf000       .debug$S                   10000000     kernel32:KERNEL32.dll
 0000:fffaf000       .debug$S                   10000000     kernel32:KERNEL32.dll
 0000:fffaf000       .debug$S                   10000000     kernel32:KERNEL32.dll
 0000:fffaf000       .debug$S                   10000000     kernel32:KERNEL32.dll
 0000:fffaf000       .debug$S                   10000000     kernel32:KERNEL32.dll
 0000:fffaf000       .debug$S                   10000000     kernel32:KERNEL32.dll
 0000:fffaf000       .debug$S                   10000000     kernel32:KERNEL32.dll
 0000:fffaf000       .debug$S                   10000000     kernel32:KERNEL32.dll
 0000:fffaf000       .debug$S                   10000000     kernel32:KERNEL32.dll
 0000:fffaf000       .debug$S                   10000000     kernel32:KERNEL32.dll
 0000:fffaf000       .debug$S                   10000000     kernel32:KERNEL32.dll
 0000:fffaf000       .debug$S                   10000000     kernel32:KERNEL32.dll
 0000:fffaf000       .debug$S                   10000000     kernel32:KERNEL32.dll
 0000:fffaf000       .debug$S                   10000000     kernel32:KERNEL32.dll
 0000:fffaf000       .debug$S                   10000000     kernel32:KERNEL32.dll
 0000:fffaf000       .debug$S                   10000000     kernel32:KERNEL32.dll
 0000:fffaf000       .debug$S                   10000000     kernel32:KERNEL32.dll
 0000:fffaf000       .debug$S                   10000000     kernel32:KERNEL32.dll
 0000:fffaf000       .debug$S                   10000000     kernel32:KERNEL32.dll
 0000:fffaf000       .debug$S                   10000000     kernel32:KERNEL32.dll
 0000:fffaf000       .debug$S                   10000000     kernel32:KERNEL32.dll
 0000:fffaf000       .debug$S                   10000000     kernel32:KERNEL32.dll
 0000:fffaf000       .debug$S                   10000000     kernel32:KERNEL32.dll
 0000:fffaf000       .debug$S                   10000000     kernel32:KERNEL32.dll
 0000:fffaf000       .debug$S                   10000000     kernel32:KERNEL32.dll
 0000:fffaf000       .debug$S                   10000000     kernel32:KERNEL32.dll
 0000:fffaf000       .debug$S                   10000000     kernel32:KERNEL32.dll
 0000:fffaf000       .debug$S                   10000000     kernel32:KERNEL32.dll
 0000:fffaf000       .debug$S                   10000000     kernel32:KERNEL32.dll
 0000:fffaf000       .debug$S                   10000000     kernel32:KERNEL32.dll
 0000:fffaf000       .debug$S                   10000000     kernel32:KERNEL32.dll
 0000:fffaf000       .debug$S                   10000000     kernel32:KERNEL32.dll
 0000:fffaf000       .debug$S                   10000000     kernel32:KERNEL32.dll
 0000:fffaf000       .debug$S                   10000000     kernel32:KERNEL32.dll
 0000:fffaf000       .debug$S                   10000000     kernel32:KERNEL32.dll
 0000:fffaf000       .debug$S                   10000000     kernel32:KERNEL32.dll
 0000:fffaf000       .debug$S                   10000000     kernel32:KERNEL32.dll
 0000:fffaf000       .debug$S                   10000000     kernel32:KERNEL32.dll
 0000:fffaf000       .debug$S                   10000000     kernel32:KERNEL32.dll
 0000:fffaf000       .debug$S                   10000000     kernel32:KERNEL32.dll
 0000:fffaf000       .debug$S                   10000000     kernel32:KERNEL32.dll
 0000:fffaf000       .debug$S                   10000000     kernel32:KERNEL32.dll
 0000:fffaf000       .debug$S                   10000000     kernel32:KERNEL32.dll
 0000:fffaf000       .debug$S                   10000000     kernel32:KERNEL32.dll
 0000:fffaf000       .debug$S                   10000000     kernel32:KERNEL32.dll
 0000:fffaf000       .debug$S                   10000000     kernel32:KERNEL32.dll
 0000:fffaf000       .debug$S                   10000000     kernel32:KERNEL32.dll
 0000:fffaf000       .debug$S                   10000000     kernel32:KERNEL32.dll
 0000:fffaf000       .debug$S                   10000000     kernel32:KERNEL32.dll
 0002:fffc8000       ?_System_object$initializer$@?$_Error_objects@H@std@@2P6AXXZA 10000000     libcpmt:xthrow.obj
 0002:fffc8000       __AtlComModule$initializer$ 10000000     sbSenderApp.obj
 0002:fffc8000       __AtlWinModule$initializer$ 10000000     sbSenderApp.obj
 0000:fffaf000       .debug$S                   10000000     shlwapi:SHLWAPI.dll
 0000:fffaf000       .debug$S                   10000000     shlwapi:SHLWAPI.dll
 0000:fffaf000       .debug$S                   10000000     shlwapi:SHLWAPI.dll
 0000:fffaf000       .debug$S                   10000000     shlwapi:SHLWAPI.dll
 0000:fffaf000       .debug$S                   10000000     wininet:WININET.dll
 0000:fffaf000       .debug$S                   10000000     wininet:WININET.dll
 0000:fffaf000       .debug$S                   10000000     wininet:WININET.dll
 0000:fffaf000       .debug$S                   10000000     wininet:WININET.dll
 0000:fffaf000       .debug$S                   10000000     wininet:WININET.dll
 0000:fffaf000       .debug$S                   10000000     wininet:WININET.dll
 0000:fffaf000       .debug$S                   10000000     wininet:WININET.dll
 0001:fffff000       __ehhandler$?_Copy@?$basic_string@DU?$char_traits@D@std@@V?$allocator@D@2@@std@@QAEXII@Z 10000000 f   sbSender.obj
 0000:fffaf000       .debug$S                   10000000     wininet:WININET.dll
 0000:fffaf000       .debug$S                   10000000     wininet:WININET.dll
 0000:fffaf000       .debug$S                   10000000     wininet:WININET.dll
 0000:fffaf000       .debug$S                   10000000     wininet:WININET.dll
 0000:fffaf000       .debug$S                   10000000     wininet:WININET.dll
 0002:fffc8000       ?_Generic_object$initializer$@?$_Error_objects@H@std@@2P6AXXZA 10000000     libcpmt:syserror.obj
 0002:fffc8000       ?_Iostream_object$initializer$@?$_Error_objects@H@std@@2P6AXXZA 10000000     libcpmt:syserror.obj
 0002:fffc8000       ?_System_object$initializer$@?$_Error_objects@H@std@@2P6AXXZA 10000000     libcpmt:syserror.obj
 0002:fffc8000       __AtlWinModule$initializer$ 10000000     mdump.obj
 0002:fffc8000       __AtlComModule$initializer$ 10000000     mdump.obj
 0001:fffff000       __ehhandler$?_Copy@?$basic_string@DU?$char_traits@D@std@@V?$allocator@D@2@@std@@QAEXII@Z 10000000 f   libcpmt:xthrow.obj
 0002:fffc8000       __catchsym$?AllocBuffer@CString@WTL@@IAEHH@Z$2 10000000     mdump.obj
 0002:fffc8000       __catchsym$?_Copy@?$basic_string@DU?$char_traits@D@std@@V?$allocator@D@2@@std@@QAEXII@Z$5 10000000     sbSender.obj
 0002:fffc8000       __unwindtable$?Left@CString@WTL@@QBE?AV12@H@Z 10000000     mdump.obj
 0002:fffc8000       __unwindtable$?Mid@CString@WTL@@QBE?AV12@HH@Z 10000000     mdump.obj
 0001:fffff000       __ehhandler$?AllocBuffer@CString@WTL@@IAEHH@Z 10000000 f   mdump.obj
 0001:fffff000       __unwindfunclet$?Left@CString@WTL@@QBE?AV12@H@Z$0 10000000 f   mdump.obj
 0001:fffff000       __unwindfunclet$?Mid@CString@WTL@@QBE?AV12@HH@Z$0 10000000 f   mdump.obj
 0002:fffc8000       ?_System_object$initializer$@?$_Error_objects@H@std@@2P6AXXZA 10000000     sbSender.obj
 0002:fffc8000       ?_Iostream_object$initializer$@?$_Error_objects@H@std@@2P6AXXZA 10000000     libcpmt:xthrow.obj
 0002:fffc8000       ?_Generic_object$initializer$@?$_Error_objects@H@std@@2P6AXXZA 10000000     libcpmt:xthrow.obj
 0002:fffc8000       __catchsym$?_Copy@?$basic_string@DU?$char_traits@D@std@@V?$allocator@D@2@@std@@QAEXII@Z$5 10000000     libcpmt:xthrow.obj
 0002:fffc8000       __AtlComModule$initializer$ 10000000     sbSender.obj
 0002:fffc8000       __AtlWinModule$initializer$ 10000000     sbSender.obj
 0002:fffc8000       ?_Generic_object$initializer$@?$_Error_objects@H@std@@2P6AXXZA 10000000     sbSender.obj
 0002:fffc8000       ?_Iostream_object$initializer$@?$_Error_objects@H@std@@2P6AXXZA 10000000     sbSender.obj
 0002:fffc8008       __ehfuncinfo$?Left@CString@WTL@@QBE?AV12@H@Z 10000008     mdump.obj
 0002:fffc8008       __ehfuncinfo$?Mid@CString@WTL@@QBE?AV12@HH@Z 10000008     mdump.obj
 0002:fffc8010       __catchsym$?_Copy@?$basic_string@DU?$char_traits@D@std@@V?$allocator@D@2@@std@@QAEXII@Z$4 10000010     libcpmt:xthrow.obj
 0002:fffc8010       __unwindtable$?AllocBuffer@CString@WTL@@IAEHH@Z 10000010     mdump.obj
 0002:fffc8010       __catchsym$?_Copy@?$basic_string@DU?$char_traits@D@std@@V?$allocator@D@2@@std@@QAEXII@Z$4 10000010     libcpmt:syserror.obj
 0002:fffc8010       __catchsym$?_Copy@?$basic_string@DU?$char_traits@D@std@@V?$allocator@D@2@@std@@QAEXII@Z$4 10000010     sbSender.obj
 0001:fffff019       __ehhandler$?Mid@CString@WTL@@QBE?AV12@HH@Z 10000019 f   mdump.obj
 0001:fffff019       __ehhandler$?Left@CString@WTL@@QBE?AV12@H@Z 10000019 f   mdump.obj
 0002:fffc8020       __unwindtable$?_Copy@?$basic_string@DU?$char_traits@D@std@@V?$allocator@D@2@@std@@QAEXII@Z 10000020     sbSender.obj
 0002:fffc8020       __unwindtable$?_Copy@?$basic_string@DU?$char_traits@D@std@@V?$allocator@D@2@@std@@QAEXII@Z 10000020     libcpmt:syserror.obj
 0002:fffc8020       __unwindtable$?_Copy@?$basic_string@DU?$char_traits@D@std@@V?$allocator@D@2@@std@@QAEXII@Z 10000020     libcpmt:xthrow.obj
 0002:fffc8020       __tryblocktable$?AllocBuffer@CString@WTL@@IAEHH@Z 10000020     mdump.obj
 0002:fffc8034       __ehfuncinfo$?AllocBuffer@CString@WTL@@IAEHH@Z 10000034     mdump.obj
 0001:fffff035       __catch$?AllocBuffer@CString@WTL@@IAEHH@Z$0 10000035 f   mdump.obj
 0002:fffc8040       __ehfuncinfo$?_Copy@?$basic_string@DU?$char_traits@D@std@@V?$allocator@D@2@@std@@QAEXII@Z 10000040     libcpmt:syserror.obj
 0002:fffc8040       __ehfuncinfo$?_Copy@?$basic_string@DU?$char_traits@D@std@@V?$allocator@D@2@@std@@QAEXII@Z 10000040     sbSender.obj
 0002:fffc8040       __ehfuncinfo$?_Copy@?$basic_string@DU?$char_traits@D@std@@V?$allocator@D@2@@std@@QAEXII@Z 10000040     libcpmt:xthrow.obj
 0001:fffff063       __catch$?_Copy@?$basic_string@DU?$char_traits@D@std@@V?$allocator@D@2@@std@@QAEXII@Z$0 10000063 f   libcpmt:xthrow.obj
 0001:fffff063       __catch$?_Copy@?$basic_string@DU?$char_traits@D@std@@V?$allocator@D@2@@std@@QAEXII@Z$0 10000063 f   libcpmt:syserror.obj
 0001:fffff063       __catch$?_Copy@?$basic_string@DU?$char_traits@D@std@@V?$allocator@D@2@@std@@QAEXII@Z$0 10000063 f   sbSender.obj
 0002:fffc8064       __tryblocktable$?_Copy@?$basic_string@DU?$char_traits@D@std@@V?$allocator@D@2@@std@@QAEXII@Z 10000064     sbSender.obj
 0002:fffc8064       __tryblocktable$?_Copy@?$basic_string@DU?$char_traits@D@std@@V?$allocator@D@2@@std@@QAEXII@Z 10000064     libcpmt:syserror.obj
 0002:fffc8064       __tryblocktable$?_Copy@?$basic_string@DU?$char_traits@D@std@@V?$allocator@D@2@@std@@QAEXII@Z 10000064     libcpmt:xthrow.obj
 0001:fffff0e2       __catch$?_Copy@?$basic_string@DU?$char_traits@D@std@@V?$allocator@D@2@@std@@QAEXII@Z$1 100000e2 f   libcpmt:syserror.obj
 0001:fffff0e2       __catch$?_Copy@?$basic_string@DU?$char_traits@D@std@@V?$allocator@D@2@@std@@QAEXII@Z$1 100000e2 f   sbSender.obj
 0001:fffff0e2       __catch$?_Copy@?$basic_string@DU?$char_traits@D@std@@V?$allocator@D@2@@std@@QAEXII@Z$1 100000e2 f   libcpmt:xthrow.obj
 0001:00000000       ??__E_AtlComModule@ATL@@YAXXZ 10001000 f   BugSplatImp.obj
 0001:00000016       ??__E_AtlWinModule@ATL@@YAXXZ 10001016 f   BugSplatImp.obj
 0001:0000002c       ??__E?_Generic_object@?$_Error_objects@H@std@@2V_Generic_error_category@2@A@@YAXXZ 1000102c f   mdump.obj
 0001:00000038       ??__E?_Iostream_object@?$_Error_objects@H@std@@2V_Iostream_error_category@2@A@@YAXXZ 10001038 f   mdump.obj
 0001:00000044       ??__E?_System_object@?$_Error_objects@H@std@@2V_System_error_category@2@A@@YAXXZ 10001044 f   mdump.obj
 0001:00000050       ??__E?m_imp@MiniDumper@@1VBugSplatImp@@A@@YAXXZ 10001050 f   mdump.obj
 0001:0000005a       ??__E_AtlComModule@ATL@@YAXXZ 1000105a f   mdump.obj
 0001:00000070       ??__E_AtlWinModule@ATL@@YAXXZ 10001070 f   mdump.obj
 0001:00000086       ??__E?_Generic_object@?$_Error_objects@H@std@@2V_Generic_error_category@2@A@@YAXXZ 10001086 f   sbSender.obj
 0001:00000092       ??__E?_Iostream_object@?$_Error_objects@H@std@@2V_Iostream_error_category@2@A@@YAXXZ 10001092 f   sbSender.obj
 0001:0000009e       ??__E?_System_object@?$_Error_objects@H@std@@2V_System_error_category@2@A@@YAXXZ 1000109e f   sbSender.obj
 0001:000000aa       ??__E_AtlComModule@ATL@@YAXXZ 100010aa f   sbSender.obj
 0001:000000c0       ??__E_AtlWinModule@ATL@@YAXXZ 100010c0 f   sbSender.obj
 0001:000000d6       ??__E_AtlComModule@ATL@@YAXXZ 100010d6 f   sbSenderApp.obj
 0001:000000ec       ??__E_AtlWinModule@ATL@@YAXXZ 100010ec f   sbSenderApp.obj
 0001:00000102       ??__E_Module@@YAXXZ        10001102 f   sbSenderApp.obj
 0001:0000012c       ??__E_AtlComModule@ATL@@YAXXZ 1000112c f   sbSenderCFns.obj
 0001:00000142       ??__E_AtlWinModule@ATL@@YAXXZ 10001142 f   sbSenderCFns.obj
 0001:00000158       ??__E_AtlComModule@ATL@@YAXXZ 10001158 f   StdAfx.obj
 0001:0000016e       ??__E_AtlWinModule@ATL@@YAXXZ 1000116e f   StdAfx.obj
 0001:00000184       ??__E_AtlBaseModule@ATL@@YAXXZ 10001184 f   atls:atlbase.obj
 0001:0000019a       ??__E?_Generic_object@?$_Error_objects@H@std@@2V_Generic_error_category@2@A@@YAXXZ 1000119a f   libcpmt:xthrow.obj
 0001:000001a6       ??__E?_Iostream_object@?$_Error_objects@H@std@@2V_Iostream_error_category@2@A@@YAXXZ 100011a6 f   libcpmt:xthrow.obj
 0001:000001b2       ??__E?_System_object@?$_Error_objects@H@std@@2V_System_error_category@2@A@@YAXXZ 100011b2 f   libcpmt:xthrow.obj
 0001:000001be       ??__E?_Generic_object@?$_Error_objects@H@std@@2V_Generic_error_category@2@A@@YAXXZ 100011be f   libcpmt:syserror.obj
 0001:000001ca       ??__E?_Iostream_object@?$_Error_objects@H@std@@2V_Iostream_error_category@2@A@@YAXXZ 100011ca f   libcpmt:syserror.obj
 0001:000001d6       ??__E?_System_object@?$_Error_objects@H@std@@2V_System_error_category@2@A@@YAXXZ 100011d6 f   libcpmt:syserror.obj
 0001:00000701       __catch$?AllocBuffer@CString@WTL@@IAEHH@Z$0 10001701 f i BugSplatImp.obj
 0001:00002f29       __catch$?_Reallocate@?$vector@U__GENERIC_HTTP_ARGUMENT@GenericHTTPClient@@V?$allocator@U__GENERIC_HTTP_ARGUMENT@GenericHTTPClient@@@std@@@std@@IAEXI@Z$0 10003f29 f i GenericHTTPClientA.obj
 0001:0000325c       __catch$??$_Uninit_move@PAVCString@WTL@@PAV12@V?$allocator@VCString@WTL@@@std@@V12@@std@@YAPAVCString@WTL@@PAV12@00AAU?$_Wrap_alloc@V?$allocator@VCString@WTL@@@std@@@0@0U_Nonscalar_ptr_iterator_tag@0@@Z$0 1000425c f i mdump.obj
 0001:00003853       __catch$?AtlMessageBox@WTL@@YAHPAUHWND__@@V_U_STRINGorID@ATL@@1I@Z$0 10004853 f i mdump.obj
 0001:000038d3       __catch$?AtlMessageBox@WTL@@YAHPAUHWND__@@V_U_STRINGorID@ATL@@1I@Z$2 100048d3 f i mdump.obj
 0001:00004c11       __catch$?_Copy@?$basic_string@DU?$char_traits@D@std@@V?$allocator@D@2@@std@@QAEXII@Z$0 10005c11 f i mdump.obj
 0001:00004c90       __catch$?_Copy@?$basic_string@DU?$char_traits@D@std@@V?$allocator@D@2@@std@@QAEXII@Z$1 10005c90 f i mdump.obj
 0001:00004e6a       __catch$?_Reallocate@?$vector@VCString@WTL@@V?$allocator@VCString@WTL@@@std@@@std@@IAEXI@Z$0 10005e6a f i mdump.obj
 0001:00005d5f       _localtime_s               10006d5f f   mdump.obj
 0001:00005d68       _time                      10006d68 f   mdump.obj
 0001:00006ddd       __catch$?AddValue@CRegParser@ATL@@IAEJAAVCRegKey@2@PBDPAD@Z$0 10007ddd f i sbSenderApp.obj
 0001:00006fee       __catch$?AddValue@CRegParser@ATL@@IAEJAAVCRegKey@2@PBDPAD@Z$2 10007fee f i sbSenderApp.obj
 0001:000079db       __catch$?Init@CAppModule@WTL@@QAEJPAU_ATL_OBJMAP_ENTRY30@ATL@@PAUHINSTANCE__@@PBU_GUID@@@Z$0 100089db f i sbSenderApp.obj
 0001:000083c9       __catch$?RegisterFromResource@CRegObject@ATL@@IAEJPBGPBD1H@Z$4 100093c9 f i sbSenderApp.obj
 0001:0000a054       ?ArrayUnwindFilter@@YAHPAU_EXCEPTION_POINTERS@@@Z 1000b054 f   LIBCMT:ehvecdtr.obj
 0001:0000a13e       __onexit_nolock            1000b13e f   LIBCMT:onexit.obj
 0001:0000a63f       __initterm                 1000b63f f   LIBCMT:crt0dat.obj
 0001:0000a6a9       _doexit                    1000b6a9 f   LIBCMT:crt0dat.obj
 0001:0000a840       $$000000                   1000b840     LIBCMT:memcpy.obj
 0001:0000aa90       LeadUpVec                  1000ba90     LIBCMT:memcpy.obj
 0001:0000ab0c       UnwindUpVec                1000bb0c     LIBCMT:memcpy.obj
 0001:0000ab78       TrailUpVec                 1000bb78     LIBCMT:memcpy.obj
 0001:0000ac1c       LeadDownVec                1000bc1c     LIBCMT:memcpy.obj
 0001:0000aca8       UnwindDownVec              1000bca8     LIBCMT:memcpy.obj
 0001:0000ad14       TrailDownVec               1000bd14     LIBCMT:memcpy.obj
 0001:0000ae90       $$000000                   1000be90     LIBCMT:memset.obj
 0001:0000b430       $$000000                   1000c430     LIBCMT:sehprolg4.obj
 0001:0000b489       ?CatchGuardHandler@@YA?AW4_EXCEPTION_DISPOSITION@@PAUEHExceptionRecord@@PAUCatchGuardRN@@PAX2@Z 1000c489 f   LIBCMT:_trnsctrl_.obj
 0001:0000b4ba       ?TranslatorGuardHandler@@YA?AW4_EXCEPTION_DISPOSITION@@PAUEHExceptionRecord@@PAUTranslatorGuardRN@@PAX2@Z 1000c4ba f   LIBCMT:_trnsctrl_.obj
 0001:0000b910       _ValidateLocalCookies      1000c910 f   LIBCMT:chandler4.obj
 0001:0000bce0       $$000000                   1000cce0     LIBCMT:strlen.obj
 0001:0000c064       __hypothlp                 1000d064 f   LIBCMT:hypot.obj
 0001:0000c600       $$000000                   1000d600     LIBCMT:memmove.obj
 0001:0000c850       LeadUpVec                  1000d850     LIBCMT:memmove.obj
 0001:0000c8cc       UnwindUpVec                1000d8cc     LIBCMT:memmove.obj
 0001:0000c938       TrailUpVec                 1000d938     LIBCMT:memmove.obj
 0001:0000c9dc       LeadDownVec                1000d9dc     LIBCMT:memmove.obj
 0001:0000ca68       UnwindDownVec              1000da68     LIBCMT:memmove.obj
 0001:0000cad4       TrailDownVec               1000dad4     LIBCMT:memmove.obj
 0001:0000d605       __callthreadstartex        1000e605 f   LIBCMT:threadex.obj
 0001:0000d646       __createThread             1000e646 f   LIBCMT:threadex.obj
 0001:0000d693       __initMTAoncurrentthread   1000e693 f   LIBCMT:threadex.obj
 0001:0000d6eb       __threadstartex@4          1000e6eb f   LIBCMT:threadex.obj
 0001:0000d768       __uninitMTAoncurrentthread 1000e768 f   LIBCMT:threadex.obj
 0001:0000d7f3       _ctrlevent_capture@4       1000e7f3 f   LIBCMT:winsig.obj
 0001:0000da53       _siglookup                 1000ea53 f   LIBCMT:winsig.obj
 0001:0000e460       $$000000                   1000f460     LIBCMT:lldiv.obj
 0001:0000ead0       $$000000                   1000fad0     LIBCMT:sehprolg4gs.obj
 0001:0000eb30       $$000000                   1000fb30     LIBCMT:alloca16.obj
 0001:0000eb60       $$000000                   1000fb60     LIBCMT:chkstk.obj
 0001:0000ed20       ___DllMainCRTStartup       1000fd20 f   LIBCMT:dllcrt0.obj
 0001:0000f29d       ___IsPackagedAppHelper     1001029d f   LIBCMT:winapisupp.obj
 0001:00010125       ?CPtoLocaleName@@YAPB_WH@Z 10011125 f   LIBCMT:mbctype.obj
 0001:0001015f       ?getSystemCP@@YAHH@Z       1001115f f   LIBCMT:mbctype.obj
 0001:000101cd       ?setSBCS@@YAXPAUthreadmbcinfostruct@@@Z 100111cd f   LIBCMT:mbctype.obj
 0001:0001022c       ?setSBUpLow@@YAXPAUthreadmbcinfostruct@@@Z 1001122c f   LIBCMT:mbctype.obj
 0001:00010ec0       $$000000                   10011ec0     LIBCMT:strstr.obj
 0001:00012594       $LN277                     10013594     LIBCMT:output.obj
 0001:000125e8       _write_char                100135e8 f   LIBCMT:output.obj
 0001:00012630       _write_multi_char          10013630 f   LIBCMT:output.obj
 0001:0001265c       _write_string              1001365c f   LIBCMT:output.obj
 0001:000126e0       $$000000                   100136e0     LIBCMT:lowhelpr.obj
 0001:0001281e       ?CallCatchBlock@@YAPAXPAUEHExceptionRecord@@PAUEHRegistrationNode@@PAU_CONTEXT@@PBU_s_FuncInfo@@PAXHK@Z 1001381e f   LIBCMT:frame.obj
 0001:000129e4       ?CallUnexpected@@YAXPBU_s_ESTypeList@@@Z 100139e4 f   LIBCMT:frame.obj
 0001:00012a0c       __catch$?CallUnexpected@@YAXPBU_s_ESTypeList@@@Z$0 10013a0c f   LIBCMT:frame.obj
 0001:00012a24       ?CatchIt@@YAXPAUEHExceptionRecord@@PAUEHRegistrationNode@@PAU_CONTEXT@@PAXPBU_s_FuncInfo@@PBU_s_HandlerType@@PBU_s_CatchableType@@PBU_s_TryBlockMapEntry@@H1E@Z 10013a24 f   LIBCMT:frame.obj
 0001:00012a9f       ?ExFilterRethrow@@YAHPAU_EXCEPTION_POINTERS@@@Z 10013a9f f   LIBCMT:frame.obj
 0001:00012aec       ?FindHandler@@YAXPAUEHExceptionRecord@@PAUEHRegistrationNode@@PAU_CONTEXT@@PAXPBU_s_FuncInfo@@EH1@Z 10013aec f   LIBCMT:frame.obj
 0001:00012e89       ?FindHandlerForForeignException@@YAXPAUEHExceptionRecord@@PAUEHRegistrationNode@@PAU_CONTEXT@@PAXPBU_s_FuncInfo@@HH1@Z 10013e89 f   LIBCMT:frame.obj
 0001:00012fa5       ?IsInExceptionSpec@@YAEPAUEHExceptionRecord@@PBU_s_ESTypeList@@@Z 10013fa5 f   LIBCMT:frame.obj
 0001:0001302d       ?Is_bad_exception_allowed@@YAEPBU_s_ESTypeList@@@Z 1001402d f   LIBCMT:frame.obj
 0001:000139f0       $$000000                   100149f0     LIBCMT:exsup4.obj
 0001:00013a80       __unwind_handler4          10014a80 f   LIBCMT:exsup4.obj
 0001:00013b50       $$000000                   10014b50     LIBCMT:strcmp.obj
 0001:000141ac       ?strtoxq@@YA_KPAUlocaleinfo_struct@@PBDPAPBDHH@Z 100151ac f   LIBCMT:strtoq.obj
 0001:0001453f       ?strtoxl@@YAKPAUlocaleinfo_struct@@PBDPAPBDHH@Z 1001553f f   LIBCMT:strtol.obj
 0001:000147f0       $$000000                   100157f0     LIBCMT:strncmp.obj
 0001:00014a40       $$000000                   10015a40     LIBCMT:sqrt.obj
 0001:00014e9d       __get_fname                10015e9d f   LIBCMT:fpexcept.obj
 0001:00015b66       __cftoe2_l                 10016b66 f   LIBCMT:cvt.obj
 0001:00015da0       __cftof2_l                 10016da0 f   LIBCMT:cvt.obj
 0001:000161f4       __shift                    100171f4 f   LIBCMT:cvt.obj
 0001:00016360       ?__crtLCMapStringA_stat@@YAHPAUlocaleinfo_struct@@PB_WKPBDHPADHHH@Z 10017360 f   LIBCMT:a_map.obj
 0001:00016564       ?strncnt@@YAHPBDH@Z        10017564 f   LIBCMT:a_map.obj
 0001:00016610       $$000000                   10017610     LIBCMT:strrchr.obj
 0001:00016827       ?__crtGetStringTypeA_stat@@YAHPAUlocaleinfo_struct@@KPBDHPAGHH@Z 10017827 f   LIBCMT:a_str.obj
 0001:00016daa       _flsall                    10017daa f   LIBCMT:fflush.obj
 0001:000179cb       _xcptlookup                100189cb f   LIBCMT:winxfltr.obj
 0001:000179ff       ?_W_expandtime@@YAHPAUlocaleinfo_struct@@_WPBUtm@@PAPA_WPAIPAU__lc_time_data@@I@Z 100189ff f   LIBCMT:wcsftime.obj
 0001:00017f25       ?_W_store_num@@YAXHHPAPA_WPAII@Z 10018f25 f   LIBCMT:wcsftime.obj
 0001:00017f94       ?_W_store_number@@YAXHPAPA_WPAI@Z 10018f94 f   LIBCMT:wcsftime.obj
 0001:00017fea       ?_W_store_str@@YAXPA_WPAPA_WPAI@Z 10018fea f   LIBCMT:wcsftime.obj
 0001:00018018       ?_W_store_winword@@YAHPAUlocaleinfo_struct@@HPBUtm@@PAPA_WPAIPAU__lc_time_data@@@Z 10019018 f   LIBCMT:wcsftime.obj
 0001:000192ee       __isindst_nolock           1001a2ee f   LIBCMT:tzset.obj
 0001:00019537       __tzset_nolock             1001a537 f   LIBCMT:tzset.obj
 0001:00019869       _cvtdate                   1001a869 f   LIBCMT:tzset.obj
 0001:00019be0       $$000000                   1001abe0     LIBCMT:llrem.obj
 0001:00019ca0       $$000000                   1001aca0     LIBCMT:ulldiv.obj
 0001:00019dce       __catch$??2@YAPAXIABUnothrow_t@std@@@Z$0 1001adce f   LIBCMT:newopnt.obj
 0001:00019ea1       _parse_cmdline             1001aea1 f   LIBCMT:stdargv.obj
 0001:0001a725       ?__crtGetLocaleInfoA_stat@@YAHPAUlocaleinfo_struct@@PB_WKPADH@Z 1001b725 f   LIBCMT:a_loc.obj
 0001:0001a9b8       ___crtEnumLocalesProc@4    1001b9b8 f   LIBCMT:winapinls.obj
 0001:0001b0b7       _fix_grouping              1001c0b7 f   LIBCMT:initmon.obj
 0001:0001b35c       _fix_grouping              1001c35c f   LIBCMT:initnum.obj
 0001:0001b790       __get_lc_time              1001c790 f   LIBCMT:inittime.obj
 0001:0001bfb0       $$000000                   1001cfb0     LIBCMT:strchr.obj
 0001:0001df2b       $LN736                     1001ef2b     LIBCMT:outputp.obj
 0001:0001e094       _write_char                1001f094 f   LIBCMT:outputp.obj
 0001:0001e0dc       _write_multi_char          1001f0dc f   LIBCMT:outputp.obj
 0001:0001e108       _write_string              1001f108 f   LIBCMT:outputp.obj
 0001:0001ecfc       $LN296                     1001fcfc     LIBCMT:outputs.obj
 0001:0001ed1c       _write_char                1001fd1c f   LIBCMT:outputs.obj
 0001:0001ed64       _write_multi_char          1001fd64 f   LIBCMT:outputs.obj
 0001:0001ed90       _write_string              1001fd90 f   LIBCMT:outputs.obj
 0001:0001f280       $$000000                   10020280     LIBCMT:ulldvrm.obj
 0001:0001f320       $$000000                   10020320     LIBCMT:exsup.obj
 0001:0001f340       __unwind_handler           10020340 f   LIBCMT:exsup.obj
 0001:000215f7       $LN113                     100225f7     LIBCMT:undname.obj
 0001:0002160f       $LN105                     1002260f     LIBCMT:undname.obj
 0001:0002236f       $LN27                      1002336f     LIBCMT:undname.obj
 0001:000249f1       $LN129                     100259f1     LIBCMT:undname.obj
 0001:00024fee       ?und_memcpy@@YAXPADPBDI@Z  10025fee f   LIBCMT:undname.obj
 0001:0002500d       ?und_strlen@@YAIPBD@Z      1002600d f   LIBCMT:undname.obj
 0001:00025022       ?und_strncmp@@YAIPBD0I@Z   10026022 f   LIBCMT:undname.obj
 0001:000254e0       $$000000                   100264e0     LIBCMT:llmul.obj
 0001:000257e0       __copytlocinfo_nolock      100267e0 f   LIBCMT:wsetloca.obj
 0001:00025f5e       __wsetlocale_get_all       10026f5e f   LIBCMT:wsetloca.obj
 0001:000260cb       __wsetlocale_nolock        100270cb f   LIBCMT:wsetloca.obj
 0001:00026354       __wsetlocale_set_cat       10027354 f   LIBCMT:wsetloca.obj
 0001:000266fe       _sync_legacy_variables_lk  100276fe f   LIBCMT:wsetloca.obj
 0001:00026723       ?x_ismbbtype_l@@YAHPAUlocaleinfo_struct@@IHH@Z 10027723 f   LIBCMT:ismbbyte.obj
 0001:00026a00       $$000000                   10027a00     LIBCMT:87disp.obj
 0001:00026bd0       $$000000                   10027bd0     LIBCMT:genexcep.obj
 0001:00026c30       $$000000                   10027c30     LIBCMT:common.obj
 0001:000277f0       $$000000                   100287f0     LIBCMT:lldvrm.obj
 0001:000278d0       $$000000                   100288d0     LIBCMT:ullshr.obj
 0001:000288aa       __dupenv_s_helper          100298aa f   LIBCMT:getenv.obj
 0001:000289ca       __getenv_s_helper          100299ca f   LIBCMT:getenv.obj
 0001:0002b4f7       $LN333                     1002c4f7     LIBCMT:strgtold.obj
 0001:0002b52a       _cmpBYTE                   1002c52a f   LIBCMT:memcmp.obj
 0001:0002b54f       _cmpDWORD                  1002c54f f   LIBCMT:memcmp.obj
 0001:0002b5da       _cmpResult                 1002c5da f   LIBCMT:memcmp.obj
 0001:0002b5f6       _cmpWORD                   1002c5f6 f   LIBCMT:memcmp.obj
 0001:0002cd3f       $LN1281                    1002dd3f     LIBCMT:memcmp.obj
 0001:0002cdbf       _unaligned_memcmp          1002ddbf f   LIBCMT:memcmp.obj
 0001:0002e4db       $LN1269                    1002f4db     LIBCMT:memcmp.obj
 0001:0002e65c       _GetLocaleNameFromDefault  1002f65c f   LIBCMT:getqloc.obj
 0001:0002e6d5       _GetLocaleNameFromLangCountry 1002f6d5 f   LIBCMT:getqloc.obj
 0001:0002e749       _GetLocaleNameFromLanguage 1002f749 f   LIBCMT:getqloc.obj
 0001:0002e793       _GetPrimaryLen             1002f793 f   LIBCMT:getqloc.obj
 0001:0002e7c5       _LangCountryEnumProcEx@12  1002f7c5 f   LIBCMT:getqloc.obj
 0001:0002e9e5       _LanguageEnumProcEx@12     1002f9e5 f   LIBCMT:getqloc.obj
 0001:0002ea98       _ProcessCodePage           1002fa98 f   LIBCMT:getqloc.obj
 0001:0002eb2d       _TestDefaultCountry        1002fb2d f   LIBCMT:getqloc.obj
 0001:0002eb79       _TestDefaultLanguage       1002fb79 f   LIBCMT:getqloc.obj
 0001:0002ebb4       _TranslateName             1002fbb4 f   LIBCMT:getqloc.obj
 0001:0002ede2       _CountryEnumProc@4         1002fde2 f   LIBCMT:getqloc_downlevel.obj
 0001:0002ee92       _GetLcidFromCountry        1002fe92 f   LIBCMT:getqloc_downlevel.obj
 0001:0002eed2       _GetLcidFromDefault        1002fed2 f   LIBCMT:getqloc_downlevel.obj
 0001:0002eeee       _GetLcidFromLangCountry    1002feee f   LIBCMT:getqloc_downlevel.obj
 0001:0002ef6b       _GetLcidFromLanguage       1002ff6b f   LIBCMT:getqloc_downlevel.obj
 0001:0002efc4       _GetPrimaryLen             1002ffc4 f   LIBCMT:getqloc_downlevel.obj
 0001:0002efee       _LangCountryEnumProc@4     1002ffee f   LIBCMT:getqloc_downlevel.obj
 0001:0002f1e3       _LanguageEnumProc@4        100301e3 f   LIBCMT:getqloc_downlevel.obj
 0001:0002f2be       _LcidFromHexString         100302be f   LIBCMT:getqloc_downlevel.obj
 0001:0002f30d       _ProcessCodePage           1003030d f   LIBCMT:getqloc_downlevel.obj
 0001:0002f398       _TestDefaultCountry        10030398 f   LIBCMT:getqloc_downlevel.obj
 0001:0002f3ba       _TestDefaultLanguage       100303ba f   LIBCMT:getqloc_downlevel.obj
 0001:0002f424       _TranslateName             10030424 f   LIBCMT:getqloc_downlevel.obj
 0001:000301f9       ___abstract_cw_sse2        100311f9 f   LIBCMT:ieee87.obj
 0001:000302a2       ___abstract_sw_sse2        100312a2 f   LIBCMT:ieee87.obj
 0001:000302e3       ___clearfp_sse2            100312e3 f   LIBCMT:ieee87.obj
 0001:0003064d       ___control87_sse2          1003164d f   LIBCMT:ieee87.obj
 0001:000307d0       ___fpreset_sse2            100317d0 f   LIBCMT:ieee87.obj
 0001:000307dc       ___hw_cw_sse2              100317dc f   LIBCMT:ieee87.obj
 0001:00030885       ___statusfp_sse2           10031885 f   LIBCMT:ieee87.obj
 0001:000308c6       __abstract_cw              100318c6 f   LIBCMT:ieee87.obj
 0001:00030965       __abstract_sw              10031965 f   LIBCMT:ieee87.obj
 0001:000310ca       __hw_cw                    100320ca f   LIBCMT:ieee87.obj
 0001:000312cd       ___createFile              100322cd f   LIBCMT:wopen.obj
 0001:0003221e       @x64tow_s@24               1003321e f   LIBCMT:xtows.obj
 0001:000323f1       _xtow_s@20                 100333f1 f   LIBCMT:xtows.obj
 0001:00033570       $$000000                   10034570     LIBCMT:_strnicm.obj
 0001:00033848       _copy_environ              10034848 f   LIBCMT:setenv.obj
 0001:000338a8       _findenv                   100348a8 f   LIBCMT:setenv.obj
 0001:000339ef       ?__crtCompareStringA_stat@@YAHPAUlocaleinfo_struct@@PB_WKPBDH2HH@Z 100349ef f   LIBCMT:a_cmp.obj
 0001:00033c73       ?strncnt@@YAHPBDH@Z        10034c73 f   LIBCMT:a_cmp.obj
 0001:00033cd6       ?wcstoxl@@YAKPB_WPAPB_WHH@Z 10034cd6 f   LIBCMT:wcstol.obj
 0001:00033f17       ?wcstoxq@@YA_KPAUlocaleinfo_struct@@PB_WPAPB_WHH@Z 10034f17 f   LIBCMT:wcstoq.obj
 0001:00035068       $LN323                     10036068     LIBCMT:wstrgtold.obj
 0001:00035424       $LN22                      10036424     libcpmt:xthrow.obj
 0001:000357c0       __unwindfunclet$??HWTL@@YG?AVCString@0@ABV10@0@Z$0 100367c0 f   BugSplatImp.obj
 0001:000357d9       __ehhandler$??HWTL@@YG?AVCString@0@ABV10@0@Z 100367d9 f   BugSplatImp.obj
 0001:000357f4       __ehhandler$?AllocBuffer@CString@WTL@@IAEHH@Z 100367f4 f   BugSplatImp.obj
 0001:0003580f       __unwindfunclet$?CreateMiniDump@BugSplatImp@@QAEHPAUHINSTANCE__@@KPAXKPAU_EXCEPTION_POINTERS@@PBDPADK@Z$0 1003680f f   BugSplatImp.obj
 0001:0003581a       __ehhandler$?CreateMiniDump@BugSplatImp@@QAEHPAUHINSTANCE__@@KPAXKPAU_EXCEPTION_POINTERS@@PBDPADK@Z 1003681a f   BugSplatImp.obj
 0001:00035842       __unwindfunclet$?GetReducedGuid@BugSplatImp@@QAEXPADK@Z$0 10036842 f   BugSplatImp.obj
 0001:0003584a       __ehhandler$?GetReducedGuid@BugSplatImp@@QAEXPADK@Z 1003684a f   BugSplatImp.obj
 0001:0003586f       __unwindfunclet$?Left@CString@WTL@@QBE?AV12@H@Z$0 1003686f f   BugSplatImp.obj
 0001:00035888       __ehhandler$?Left@CString@WTL@@QBE?AV12@H@Z 10036888 f   BugSplatImp.obj
 0001:000358a3       __unwindfunclet$?Mid@CString@WTL@@QBE?AV12@HH@Z$0 100368a3 f   BugSplatImp.obj
 0001:000358bc       __ehhandler$?Mid@CString@WTL@@QBE?AV12@HH@Z 100368bc f   BugSplatImp.obj
 0001:000358d7       __unwindfunclet$?ReduceGuidString@BugSplatImp@@QAEXPADK@Z$0 100368d7 f   BugSplatImp.obj
 0001:000358e2       __unwindfunclet$?ReduceGuidString@BugSplatImp@@QAEXPADK@Z$1 100368e2 f   BugSplatImp.obj
 0001:000358ed       __unwindfunclet$?ReduceGuidString@BugSplatImp@@QAEXPADK@Z$2 100368ed f   BugSplatImp.obj
 0001:000358f8       __unwindfunclet$?ReduceGuidString@BugSplatImp@@QAEXPADK@Z$3 100368f8 f   BugSplatImp.obj
 0001:00035903       __unwindfunclet$?ReduceGuidString@BugSplatImp@@QAEXPADK@Z$4 10036903 f   BugSplatImp.obj
 0001:0003590e       __ehhandler$?ReduceGuidString@BugSplatImp@@QAEXPADK@Z 1003690e f   BugSplatImp.obj
 0001:00035936       __ehhandler$?_Reallocate@?$vector@U__GENERIC_HTTP_ARGUMENT@GenericHTTPClient@@V?$allocator@U__GENERIC_HTTP_ARGUMENT@GenericHTTPClient@@@std@@@std@@IAEXI@Z 10036936 f   GenericHTTPClientA.obj
 0001:00035951       __unwindfunclet$??$_Uninit_move@PAVCString@WTL@@PAV12@V?$allocator@VCString@WTL@@@std@@V12@@std@@YAPAVCString@WTL@@PAV12@00AAU?$_Wrap_alloc@V?$allocator@VCString@WTL@@@std@@@0@0U_Nonscalar_ptr_iterator_tag@0@@Z$2 10036951 f   mdump.obj
 0001:0003595f       __ehhandler$??$_Uninit_move@PAVCString@WTL@@PAV12@V?$allocator@VCString@WTL@@@std@@V12@@std@@YAPAVCString@WTL@@PAV12@00AAU?$_Wrap_alloc@V?$allocator@VCString@WTL@@@std@@@0@0U_Nonscalar_ptr_iterator_tag@0@@Z 1003695f f   mdump.obj
 0001:0003597a       __unwindfunclet$??$construct@VCString@WTL@@V12@@?$_Wrap_alloc@V?$allocator@VCString@WTL@@@std@@@std@@QAEXPAVCString@WTL@@$$QAV23@@Z$0 1003697a f   mdump.obj
 0001:00035988       __ehhandler$??$construct@VCString@WTL@@V12@@?$_Wrap_alloc@V?$allocator@VCString@WTL@@@std@@@std@@QAEXPAVCString@WTL@@$$QAV23@@Z 10036988 f   mdump.obj
 0001:000359a3       __unwindfunclet$??$construct@VCString@WTL@@V12@@?$allocator@VCString@WTL@@@std@@QAEXPAVCString@WTL@@$$QAV23@@Z$0 100369a3 f   mdump.obj
 0001:000359b1       __ehhandler$??$construct@VCString@WTL@@V12@@?$allocator@VCString@WTL@@@std@@QAEXPAVCString@WTL@@$$QAV23@@Z 100369b1 f   mdump.obj
 0001:000359cc       __unwindfunclet$??$construct@VCString@WTL@@V12@@?$allocator_traits@V?$allocator@VCString@WTL@@@std@@@std@@SAXAAV?$allocator@VCString@WTL@@@1@PAVCString@WTL@@$$QAV34@@Z$0 100369cc f   mdump.obj
 0001:000359da       __ehhandler$??$construct@VCString@WTL@@V12@@?$allocator_traits@V?$allocator@VCString@WTL@@@std@@@std@@SAXAAV?$allocator@VCString@WTL@@@1@PAVCString@WTL@@$$QAV34@@Z 100369da f   mdump.obj
 0001:000359f5       __unwindfunclet$??0TotalUptimeAndCrashCalculator@@QAE@PBD00@Z$0 100369f5 f   mdump.obj
 0001:000359fd       __unwindfunclet$??0TotalUptimeAndCrashCalculator@@QAE@PBD00@Z$1 100369fd f   mdump.obj
 0001:00035a08       __ehhandler$??0TotalUptimeAndCrashCalculator@@QAE@PBD00@Z 10036a08 f   mdump.obj
 0001:00035a2d       __unwindfunclet$??1MiniDumper@@UAE@XZ$0 10036a2d f   mdump.obj
 0001:00035a38       __unwindfunclet$??1MiniDumper@@UAE@XZ$1 10036a38 f   mdump.obj
 0001:00035a43       __unwindfunclet$??1MiniDumper@@UAE@XZ$2 10036a43 f   mdump.obj
 0001:00035a4e       __unwindfunclet$??1MiniDumper@@UAE@XZ$3 10036a4e f   mdump.obj
 0001:00035a59       __unwindfunclet$??1MiniDumper@@UAE@XZ$4 10036a59 f   mdump.obj
 0001:00035a64       __unwindfunclet$??1MiniDumper@@UAE@XZ$5 10036a64 f   mdump.obj
 0001:00035a6f       __unwindfunclet$??1MiniDumper@@UAE@XZ$6 10036a6f f   mdump.obj
 0001:00035a7a       __unwindfunclet$??1MiniDumper@@UAE@XZ$7 10036a7a f   mdump.obj
 0001:00035a85       __unwindfunclet$??1MiniDumper@@UAE@XZ$8 10036a85 f   mdump.obj
 0001:00035a90       __ehhandler$??1MiniDumper@@UAE@XZ 10036a90 f   mdump.obj
 0001:00035aab       __unwindfunclet$??1TotalUptimeAndCrashCalculator@@QAE@XZ$0 10036aab f   mdump.obj
 0001:00035ab3       __unwindfunclet$??1TotalUptimeAndCrashCalculator@@QAE@XZ$1 10036ab3 f   mdump.obj
 0001:00035abe       __unwindfunclet$??1TotalUptimeAndCrashCalculator@@QAE@XZ$2 10036abe f   mdump.obj
 0001:00035ac9       __unwindfunclet$??1TotalUptimeAndCrashCalculator@@QAE@XZ$3 10036ac9 f   mdump.obj
 0001:00035ad4       __unwindfunclet$??1TotalUptimeAndCrashCalculator@@QAE@XZ$4 10036ad4 f   mdump.obj
 0001:00035adf       __ehhandler$??1TotalUptimeAndCrashCalculator@@QAE@XZ 10036adf f   mdump.obj
 0001:00035afa       __ehhandler$?AtlMessageBox@WTL@@YAHPAUHWND__@@V_U_STRINGorID@ATL@@1I@Z 10036afa f   mdump.obj
 0001:00035b15       __unwindfunclet$?CreateReportThreaded@MiniDumper@@SGIPAX@Z$0 10036b15 f   mdump.obj
 0001:00035b20       __unwindfunclet$?CreateReportThreaded@MiniDumper@@SGIPAX@Z$1 10036b20 f   mdump.obj
 0001:00035b2b       __ehhandler$?CreateReportThreaded@MiniDumper@@SGIPAX@Z 10036b2b f   mdump.obj
 0001:00035b53       __unwindfunclet$?ExceptionHandler@MiniDumper@@SGJPAU_EXCEPTION_POINTERS@@K@Z$0 10036b53 f   mdump.obj
 0001:00035b5b       __unwindfunclet$?ExceptionHandler@MiniDumper@@SGJPAU_EXCEPTION_POINTERS@@K@Z$1 10036b5b f   mdump.obj
 0001:00035b63       __unwindfunclet$?ExceptionHandler@MiniDumper@@SGJPAU_EXCEPTION_POINTERS@@K@Z$3 10036b63 f   mdump.obj
 0001:00035b6b       __unwindfunclet$?ExceptionHandler@MiniDumper@@SGJPAU_EXCEPTION_POINTERS@@K@Z$2 10036b6b f   mdump.obj
 0001:00035b73       __ehhandler$?ExceptionHandler@MiniDumper@@SGJPAU_EXCEPTION_POINTERS@@K@Z 10036b73 f   mdump.obj
 0001:00035b8e       __unwindfunclet$?FormatMessageA@CString@WTL@@QAAHIZZ$0 10036b8e f   mdump.obj
 0001:00035b96       __ehhandler$?FormatMessageA@CString@WTL@@QAAHIZZ 10036b96 f   mdump.obj
 0001:00035bb1       __unwindfunclet$?LaunchHangDetection@MiniDumper@@QAEXXZ$0 10036bb1 f   mdump.obj
 0001:00035bb9       __unwindfunclet$?LaunchHangDetection@MiniDumper@@QAEXXZ$1 10036bb9 f   mdump.obj
 0001:00035bc1       __ehhandler$?LaunchHangDetection@MiniDumper@@QAEXXZ 10036bc1 f   mdump.obj
 0001:00035bdc       __unwindfunclet$?SendReportThreaded@MiniDumper@@SGIPAX@Z$0 10036bdc f   mdump.obj
 0001:00035be4       __unwindfunclet$?SendReportThreaded@MiniDumper@@SGIPAX@Z$1 10036be4 f   mdump.obj
 0001:00035bec       __unwindfunclet$?SendReportThreaded@MiniDumper@@SGIPAX@Z$2 10036bec f   mdump.obj
 0001:00035bf4       __unwindfunclet$?SendReportThreaded@MiniDumper@@SGIPAX@Z$3 10036bf4 f   mdump.obj
 0001:00035bfc       __ehhandler$?SendReportThreaded@MiniDumper@@SGIPAX@Z 10036bfc f   mdump.obj
 0001:00035c17       __unwindfunclet$?WebVersionNewerThanLocal@MiniDumper@@KA_NPAUHINSTANCE__@@@Z$0 10036c17 f   mdump.obj
 0001:00035c22       __unwindfunclet$?WebVersionNewerThanLocal@MiniDumper@@KA_NPAUHINSTANCE__@@@Z$1 10036c22 f   mdump.obj
 0001:00035c2f       __unwindfunclet$?WebVersionNewerThanLocal@MiniDumper@@KA_NPAUHINSTANCE__@@@Z$2 10036c2f f   mdump.obj
 0001:00035c3a       __unwindfunclet$?WebVersionNewerThanLocal@MiniDumper@@KA_NPAUHINSTANCE__@@@Z$3 10036c3a f   mdump.obj
 0001:00035c45       __unwindfunclet$?WebVersionNewerThanLocal@MiniDumper@@KA_NPAUHINSTANCE__@@@Z$4 10036c45 f   mdump.obj
 0001:00035c50       __unwindfunclet$?WebVersionNewerThanLocal@MiniDumper@@KA_NPAUHINSTANCE__@@@Z$5 10036c50 f   mdump.obj
 0001:00035c5b       __unwindfunclet$?WebVersionNewerThanLocal@MiniDumper@@KA_NPAUHINSTANCE__@@@Z$6 10036c5b f   mdump.obj
 0001:00035c66       __unwindfunclet$?WebVersionNewerThanLocal@MiniDumper@@KA_NPAUHINSTANCE__@@@Z$7 10036c66 f   mdump.obj
 0001:00035c71       __ehhandler$?WebVersionNewerThanLocal@MiniDumper@@KA_NPAUHINSTANCE__@@@Z 10036c71 f   mdump.obj
 0001:00035c99       __ehhandler$?_Copy@?$basic_string@DU?$char_traits@D@std@@V?$allocator@D@2@@std@@QAEXII@Z 10036c99 f   mdump.obj
 0001:00035cb4       __ehhandler$?_Reallocate@?$vector@VCString@WTL@@V?$allocator@VCString@WTL@@@std@@@std@@IAEXI@Z 10036cb4 f   mdump.obj
 0001:00035ccf       __unwindfunclet$?capture@TotalUptimeAndCrashCalculator@@QAEX_N@Z$0 10036ccf f   mdump.obj
 0001:00035cd7       __ehhandler$?capture@TotalUptimeAndCrashCalculator@@QAEX_N@Z 10036cd7 f   mdump.obj
 0001:00035cfc       __unwindfunclet$?debugMode@@YA_NXZ$0 10036cfc f   mdump.obj
 0001:00035d04       __ehhandler$?debugMode@@YA_NXZ 10036d04 f   mdump.obj
 0001:00035d1f       __unwindfunclet$?initExceptionHandler@MiniDumper@@QAEXPBD000K@Z$0 10036d1f f   mdump.obj
 0001:00035d29       __unwindfunclet$?initExceptionHandler@MiniDumper@@QAEXPBD000K@Z$1 10036d29 f   mdump.obj
 0001:00035d31       __ehhandler$?initExceptionHandler@MiniDumper@@QAEXPBD000K@Z 10036d31 f   mdump.obj
 0001:00035d4c       __unwindfunclet$?logOutput@@YAXIPBD_N@Z$0 10036d4c f   mdump.obj
 0001:00035d57       __unwindfunclet$?logOutput@@YAXIPBD_N@Z$1 10036d57 f   mdump.obj
 0001:00035d62       __ehhandler$?logOutput@@YAXIPBD_N@Z 10036d62 f   mdump.obj
 0001:00035d8a       __unwindfunclet$?push_back@?$vector@VCString@WTL@@V?$allocator@VCString@WTL@@@std@@@std@@QAEX$$QAVCString@WTL@@@Z$0 10036d8a f   mdump.obj
 0001:00035d98       __unwindfunclet$?push_back@?$vector@VCString@WTL@@V?$allocator@VCString@WTL@@@std@@@std@@QAEX$$QAVCString@WTL@@@Z$1 10036d98 f   mdump.obj
 0001:00035da6       __ehhandler$?push_back@?$vector@VCString@WTL@@V?$allocator@VCString@WTL@@@std@@@std@@QAEX$$QAVCString@WTL@@@Z 10036da6 f   mdump.obj
 0001:00035dc1       __unwindfunclet$?sendAdditionalFile@MiniDumper@@QAEXPBD@Z$0 10036dc1 f   mdump.obj
 0001:00035dc9       __ehhandler$?sendAdditionalFile@MiniDumper@@QAEXPBD@Z 10036dc9 f   mdump.obj
 0001:00035de4       __unwindfunclet$??0MiniDmpSender@@QAE@PBD000K@Z$0 10036de4 f   sbSender.obj
 0001:00035dee       __ehhandler$??0MiniDmpSender@@QAE@PBD000K@Z 10036dee f   sbSender.obj
 0001:00035e09       __unwindfunclet$??0MiniDmpSender@@QAE@PBG000K@Z$0 10036e09 f   sbSender.obj
 0001:00035e13       __ehhandler$??0MiniDmpSender@@QAE@PBG000K@Z 10036e13 f   sbSender.obj
 0001:00035e2e       __unwindfunclet$??0MiniDmpSender@@QAE@PB_W000K@Z$0 10036e2e f   sbSender.obj
 0001:00035e38       __ehhandler$??0MiniDmpSender@@QAE@PB_W000K@Z 10036e38 f   sbSender.obj
 0001:00035e53       __unwindfunclet$??1CExpansionVector@ATL@@QAE@XZ$0 10036e53 f   sbSenderApp.obj
 0001:00035e5b       __ehhandler$??1CExpansionVector@ATL@@QAE@XZ 10036e5b f   sbSenderApp.obj
 0001:00035e76       __unwindfunclet$??1CRegObject@ATL@@UAE@XZ$0 10036e76 f   sbSenderApp.obj
 0001:00035e81       __unwindfunclet$??1CRegObject@ATL@@UAE@XZ$1 10036e81 f   sbSenderApp.obj
 0001:00035e8c       __unwindfunclet$??1CRegObject@ATL@@UAE@XZ$2 10036e8c f   sbSenderApp.obj
 0001:00035e94       __ehhandler$??1CRegObject@ATL@@UAE@XZ 10036e94 f   sbSenderApp.obj
 0001:00035eaf       __unwindfunclet$?Add@CExpansionVector@ATL@@QAEHPBDPBG@Z$0 10036eaf f   sbSenderApp.obj
 0001:00035eb7       __unwindfunclet$?Add@CExpansionVector@ATL@@QAEHPBDPBG@Z$1 10036eb7 f   sbSenderApp.obj
 0001:00035ebf       __ehhandler$?Add@CExpansionVector@ATL@@QAEHPBDPBG@Z 10036ebf f   sbSenderApp.obj
 0001:00035eda       __unwindfunclet$?AddReplacement@CRegObject@ATL@@UAGJPBG0@Z$0 10036eda f   sbSenderApp.obj
 0001:00035ee2       __ehhandler$?AddReplacement@CRegObject@ATL@@UAGJPBG0@Z 10036ee2 f   sbSenderApp.obj
 0001:00035f07       __unwindfunclet$?AddString@CParseBuffer@CRegParser@ATL@@QAEHPBG@Z$0 10036f07 f   sbSenderApp.obj
 0001:00035f0f       __ehhandler$?AddString@CParseBuffer@CRegParser@ATL@@QAEHPBG@Z 10036f0f f   sbSenderApp.obj
 0001:00035f34       __unwindfunclet$?AddValue@CRegParser@ATL@@IAEJAAVCRegKey@2@PBDPAD@Z$4 10036f34 f   sbSenderApp.obj
 0001:00035f3f       __unwindfunclet$?AddValue@CRegParser@ATL@@IAEJAAVCRegKey@2@PBDPAD@Z$5 10036f3f f   sbSenderApp.obj
 0001:00035f4a       __unwindfunclet$?AddValue@CRegParser@ATL@@IAEJAAVCRegKey@2@PBDPAD@Z$6 10036f4a f   sbSenderApp.obj
 0001:00035f55       __ehhandler$?AddValue@CRegParser@ATL@@IAEJAAVCRegKey@2@PBDPAD@Z 10036f55 f   sbSenderApp.obj
 0001:00035f7d       __ehhandler$?Init@CAppModule@WTL@@QAEJPAU_ATL_OBJMAP_ENTRY30@ATL@@PAUHINSTANCE__@@PBU_GUID@@@Z 10036f7d f   sbSenderApp.obj
 0001:00035f98       __unwindfunclet$?PreProcessBuffer@CRegParser@ATL@@QAEJPADPAPAD@Z$0 10036f98 f   sbSenderApp.obj
 0001:00035fa0       __ehhandler$?PreProcessBuffer@CRegParser@ATL@@QAEJPADPAPAD@Z 10036fa0 f   sbSenderApp.obj
 0001:00035fc5       __unwindfunclet$?RegisterFromResource@CRegObject@ATL@@IAEJPBGPBD1H@Z$7 10036fc5 f   sbSenderApp.obj
 0001:00035fd0       __unwindfunclet$?RegisterFromResource@CRegObject@ATL@@IAEJPBGPBD1H@Z$8 10036fd0 f   sbSenderApp.obj
 0001:00035fdb       __ehhandler$?RegisterFromResource@CRegObject@ATL@@IAEJPBGPBD1H@Z 10036fdb f   sbSenderApp.obj
 0001:00036003       __unwindfunclet$?RegisterSubkeys@CRegParser@ATL@@IAEJPADPAUHKEY__@@HH@Z$2 10037003 f   sbSenderApp.obj
 0001:0003600e       __unwindfunclet$?RegisterSubkeys@CRegParser@ATL@@IAEJPADPAUHKEY__@@HH@Z$4 1003700e f   sbSenderApp.obj
 0001:00036019       __ehhandler$?RegisterSubkeys@CRegParser@ATL@@IAEJPADPAUHKEY__@@HH@Z 10037019 f   sbSenderApp.obj
 0001:00036041       __unwindfunclet$?ResourceRegister@CRegObject@ATL@@QAGJPBGI0@Z$0 10037041 f   sbSenderApp.obj
 0001:00036049       __ehhandler$?ResourceRegister@CRegObject@ATL@@QAGJPBGI0@Z 10037049 f   sbSenderApp.obj
 0001:0003606e       __unwindfunclet$?ResourceRegisterSz@CRegObject@ATL@@QAGJPBG00@Z$0 1003706e f   sbSenderApp.obj
 0001:00036076       __ehhandler$?ResourceRegisterSz@CRegObject@ATL@@QAGJPBG00@Z 10037076 f   sbSenderApp.obj
 0001:0003609b       __unwindfunclet$?ResourceUnregister@CRegObject@ATL@@QAGJPBGI0@Z$0 1003709b f   sbSenderApp.obj
 0001:000360a3       __ehhandler$?ResourceUnregister@CRegObject@ATL@@QAGJPBGI0@Z 100370a3 f   sbSenderApp.obj
 0001:000360c8       __unwindfunclet$?ResourceUnregisterSz@CRegObject@ATL@@QAGJPBG00@Z$0 100370c8 f   sbSenderApp.obj
 0001:000360d0       __ehhandler$?ResourceUnregisterSz@CRegObject@ATL@@QAGJPBG00@Z 100370d0 f   sbSenderApp.obj
 0001:000360f5       __ehhandler$?CallUnexpected@@YAXPBU_s_ESTypeList@@@Z 100370f5 f   LIBCMT:frame.obj
 0001:00036110       __ehhandler$??2@YAPAXIABUnothrow_t@std@@@Z 10037110 f   LIBCMT:newopnt.obj
 0001:0003612b       ??__F_AtlComModule@ATL@@YAXXZ 1003712b f   BugSplatImp.obj
 0001:00036135       ??__F_AtlWinModule@ATL@@YAXXZ 10037135 f   BugSplatImp.obj
 0001:0003614f       ??__F?_Generic_object@?$_Error_objects@H@std@@2V_Generic_error_category@2@A@@YAXXZ 1003714f f   mdump.obj
 0001:0003615a       ??__F?_Iostream_object@?$_Error_objects@H@std@@2V_Iostream_error_category@2@A@@YAXXZ 1003715a f   mdump.obj
 0001:00036165       ??__F?_System_object@?$_Error_objects@H@std@@2V_System_error_category@2@A@@YAXXZ 10037165 f   mdump.obj
 0001:00036170       ??__F_AtlComModule@ATL@@YAXXZ 10037170 f   mdump.obj
 0001:0003617a       ??__F_AtlWinModule@ATL@@YAXXZ 1003717a f   mdump.obj
 0001:00036194       ??__FstrApp@?CH@??SendReportThreaded@MiniDumper@@SGIPAX@Z@YAXXZ 10037194 f   mdump.obj
 0001:0003619e       ??__F?_Generic_object@?$_Error_objects@H@std@@2V_Generic_error_category@2@A@@YAXXZ 1003719e f   sbSender.obj
 0001:000361a9       ??__F?_Iostream_object@?$_Error_objects@H@std@@2V_Iostream_error_category@2@A@@YAXXZ 100371a9 f   sbSender.obj
 0001:000361b4       ??__F?_System_object@?$_Error_objects@H@std@@2V_System_error_category@2@A@@YAXXZ 100371b4 f   sbSender.obj
 0001:000361bf       ??__F_AtlComModule@ATL@@YAXXZ 100371bf f   sbSender.obj
 0001:000361c9       ??__F_AtlWinModule@ATL@@YAXXZ 100371c9 f   sbSender.obj
 0001:000361e3       ??__F_AtlComModule@ATL@@YAXXZ 100371e3 f   sbSenderApp.obj
 0001:000361ed       ??__F_AtlWinModule@ATL@@YAXXZ 100371ed f   sbSenderApp.obj
 0001:00036207       ??__F_Module@@YAXXZ        10037207 f   sbSenderApp.obj
 0001:0003621b       ??__F_AtlComModule@ATL@@YAXXZ 1003721b f   sbSenderCFns.obj
 0001:00036225       ??__F_AtlWinModule@ATL@@YAXXZ 10037225 f   sbSenderCFns.obj
 0001:0003623f       ??__F_AtlComModule@ATL@@YAXXZ 1003723f f   StdAfx.obj
 0001:00036249       ??__F_AtlWinModule@ATL@@YAXXZ 10037249 f   StdAfx.obj
 0001:00036263       ??__F_AtlBaseModule@ATL@@YAXXZ 10037263 f   atls:atlbase.obj
 0001:0003626d       ??__F?_Generic_object@?$_Error_objects@H@std@@2V_Generic_error_category@2@A@@YAXXZ 1003726d f   libcpmt:xthrow.obj
 0001:00036278       ??__F?_Iostream_object@?$_Error_objects@H@std@@2V_Iostream_error_category@2@A@@YAXXZ 10037278 f   libcpmt:xthrow.obj
 0001:00036283       ??__F?_System_object@?$_Error_objects@H@std@@2V_System_error_category@2@A@@YAXXZ 10037283 f   libcpmt:xthrow.obj
 0001:0003628e       ??__F?_Generic_object@?$_Error_objects@H@std@@2V_Generic_error_category@2@A@@YAXXZ 1003728e f   libcpmt:syserror.obj
 0001:00036299       ??__F?_Iostream_object@?$_Error_objects@H@std@@2V_Iostream_error_category@2@A@@YAXXZ 10037299 f   libcpmt:syserror.obj
 0001:000362a4       ??__F?_System_object@?$_Error_objects@H@std@@2V_System_error_category@2@A@@YAXXZ 100372a4 f   libcpmt:syserror.obj
 0002:000002c8       __AtlBaseModule$initializer$ 100382c8     atls:atlbase.obj
 0002:000002cc       __AtlComModule$initializer$ 100382cc     BugSplatImp.obj
 0002:000002d0       __AtlWinModule$initializer$ 100382d0     BugSplatImp.obj
 0002:000002d4       ?m_imp$initializer$@MiniDumper@@1P6AXXZA 100382d4     mdump.obj
 0002:000002d8       ?_Generic_object$initializer$@?$_Error_objects@H@std@@2P6AXXZA 100382d8     mdump.obj
 0002:000002dc       ?_Iostream_object$initializer$@?$_Error_objects@H@std@@2P6AXXZA 100382dc     mdump.obj
 0002:000002e0       ?_System_object$initializer$@?$_Error_objects@H@std@@2P6AXXZA 100382e0     mdump.obj
 0002:000002e4       __Module$initializer$      100382e4     sbSenderApp.obj
 0002:000002f0       _pinit                     100382f0     LIBCMT:onexit.obj
 0002:000002f4       _pinit                     100382f4     LIBCMT:mbctype.obj
 0002:000002f8       _pinit                     100382f8     LIBCMT:cpu_disp.obj
 0002:000002fc       _pinit                     100382fc     LIBCMT:_file.obj
 0002:00000308       _pterm                     10038308     LIBCMT:wsetloca.obj
 0002:0000030c       _pterm                     1003830c     LIBCMT:initcon.obj
 0002:00000310       _pterm                     10038310     LIBCMT:_file.obj
 0002:00000bb8       ?PatchBytes@?BE@??initExceptionHandler@MiniDumper@@QAEXPBD000K@Z@4QBEB 10038bb8     mdump.obj
 0002:000020d4       ?ExceptionTemplate@?1??_CxxThrowException@@9@8@4UEHExceptionRecord@@B 1003a0d4     LIBCMT:throw.obj
 0002:00002164       _GS_ExceptionPointers      1003a164     LIBCMT:gs_report.obj
 0002:00002450       _rterrs                    1003a450     LIBCMT:crt0msg.obj
 0002:00002ee4       __mb_locale_names          1003aee4     LIBCMT:mbctype.obj
 0002:00003428       ?ccsField@?P@??_openfile@@9@9 1003b428     LIBCMT:_open.obj
 0002:0000342c       ?utf8encoding@?P@??_openfile@@9@9 1003b42c     LIBCMT:_open.obj
 0002:00003434       ?utf16encoding@?P@??_openfile@@9@9 1003b434     LIBCMT:_open.obj
 0002:00003440       ?unicodeencoding@?P@??_openfile@@9@9 1003b440     LIBCMT:_open.obj
 0002:00005ea0       _tokenTable                1003dea0     LIBCMT:undname.obj
 0002:00005ed8       _nameTable                 1003ded8     LIBCMT:undname.obj
 0002:00006018       _rttiTable                 1003e018     LIBCMT:undname.obj
 0002:00006a68       __first_127char            1003ea68     LIBCMT:wsetloca.obj
 0002:00006b24       One                        1003eb24     LIBCMT:87disp.obj
 0002:00006b2c       XAMtoTagTab                1003eb2c     LIBCMT:87disp.obj
 0002:00006b40       One                        1003eb40     LIBCMT:common.obj
 0002:00006b54       DblMax                     1003eb54     LIBCMT:common.obj
 0002:00006b5c       DblMin                     1003eb5c     LIBCMT:common.obj
 0002:00006b64       IeeeAdjO                   1003eb64     LIBCMT:common.obj
 0002:00006b6c       IeeeAdjU                   1003eb6c     LIBCMT:common.obj
 0002:00006b74       _infinity                  1003eb74     LIBCMT:common.obj
 0002:00006b7c       _zero                      1003eb7c     LIBCMT:common.obj
 0002:000083f0       __Win_errtab               100403f0     libcpmt:syserror.obj
 0002:00008648       __Sys_errtab               10040648     libcpmt:syserror.obj
 0002:00009d58       __unwindtable$??HWTL@@YG?AVCString@0@ABV10@0@Z 10041d58     BugSplatImp.obj
 0002:00009d60       __ehfuncinfo$??HWTL@@YG?AVCString@0@ABV10@0@Z 10041d60     BugSplatImp.obj
 0002:00009d84       __unwindtable$?Mid@CString@WTL@@QBE?AV12@HH@Z 10041d84     BugSplatImp.obj
 0002:00009d8c       __ehfuncinfo$?Mid@CString@WTL@@QBE?AV12@HH@Z 10041d8c     BugSplatImp.obj
 0002:00009db0       __unwindtable$?Left@CString@WTL@@QBE?AV12@H@Z 10041db0     BugSplatImp.obj
 0002:00009db8       __ehfuncinfo$?Left@CString@WTL@@QBE?AV12@H@Z 10041db8     BugSplatImp.obj
 0002:00009ddc       __catchsym$?AllocBuffer@CString@WTL@@IAEHH@Z$2 10041ddc     BugSplatImp.obj
 0002:00009dec       __unwindtable$?AllocBuffer@CString@WTL@@IAEHH@Z 10041dec     BugSplatImp.obj
 0002:00009dfc       __tryblocktable$?AllocBuffer@CString@WTL@@IAEHH@Z 10041dfc     BugSplatImp.obj
 0002:00009e10       __ehfuncinfo$?AllocBuffer@CString@WTL@@IAEHH@Z 10041e10     BugSplatImp.obj
 0002:00009e34       __unwindtable$?CreateMiniDump@BugSplatImp@@QAEHPAUHINSTANCE__@@KPAXKPAU_EXCEPTION_POINTERS@@PBDPADK@Z 10041e34     BugSplatImp.obj
 0002:00009e3c       __ehfuncinfo$?CreateMiniDump@BugSplatImp@@QAEHPAUHINSTANCE__@@KPAXKPAU_EXCEPTION_POINTERS@@PBDPADK@Z 10041e3c     BugSplatImp.obj
 0002:00009e60       __unwindtable$?GetReducedGuid@BugSplatImp@@QAEXPADK@Z 10041e60     BugSplatImp.obj
 0002:00009e68       __ehfuncinfo$?GetReducedGuid@BugSplatImp@@QAEXPADK@Z 10041e68     BugSplatImp.obj
 0002:00009e8c       __ehfuncinfo$?ReduceGuidString@BugSplatImp@@QAEXPADK@Z 10041e8c     BugSplatImp.obj
 0002:00009eb0       __unwindtable$?ReduceGuidString@BugSplatImp@@QAEXPADK@Z 10041eb0     BugSplatImp.obj
 0002:00009ed8       __sehtable$?CalculateBeginningOfCallInstruction@@YAHAAI@Z 10041ed8     BugSplatImp.obj
 0002:00009f28       __catchsym$?_Reallocate@?$vector@U__GENERIC_HTTP_ARGUMENT@GenericHTTPClient@@V?$allocator@U__GENERIC_HTTP_ARGUMENT@GenericHTTPClient@@@std@@@std@@IAEXI@Z$2 10041f28     GenericHTTPClientA.obj
 0002:00009f38       __unwindtable$?_Reallocate@?$vector@U__GENERIC_HTTP_ARGUMENT@GenericHTTPClient@@V?$allocator@U__GENERIC_HTTP_ARGUMENT@GenericHTTPClient@@@std@@@std@@IAEXI@Z 10041f38     GenericHTTPClientA.obj
 0002:00009f48       __tryblocktable$?_Reallocate@?$vector@U__GENERIC_HTTP_ARGUMENT@GenericHTTPClient@@V?$allocator@U__GENERIC_HTTP_ARGUMENT@GenericHTTPClient@@@std@@@std@@IAEXI@Z 10041f48     GenericHTTPClientA.obj
 0002:00009f5c       __ehfuncinfo$?_Reallocate@?$vector@U__GENERIC_HTTP_ARGUMENT@GenericHTTPClient@@V?$allocator@U__GENERIC_HTTP_ARGUMENT@GenericHTTPClient@@@std@@@std@@IAEXI@Z 10041f5c     GenericHTTPClientA.obj
 0002:00009f80       __catchsym$?AtlMessageBox@WTL@@YAHPAUHWND__@@V_U_STRINGorID@ATL@@1I@Z$5 10041f80     mdump.obj
 0002:00009f90       __catchsym$?AtlMessageBox@WTL@@YAHPAUHWND__@@V_U_STRINGorID@ATL@@1I@Z$4 10041f90     mdump.obj
 0002:00009fa0       __unwindtable$?AtlMessageBox@WTL@@YAHPAUHWND__@@V_U_STRINGorID@ATL@@1I@Z 10041fa0     mdump.obj
 0002:00009fc0       __ehfuncinfo$?AtlMessageBox@WTL@@YAHPAUHWND__@@V_U_STRINGorID@ATL@@1I@Z 10041fc0     mdump.obj
 0002:00009fe4       __tryblocktable$?AtlMessageBox@WTL@@YAHPAUHWND__@@V_U_STRINGorID@ATL@@1I@Z 10041fe4     mdump.obj
 0002:0000a00c       __unwindtable$?FormatMessageA@CString@WTL@@QAAHIZZ 1004200c     mdump.obj
 0002:0000a014       __ehfuncinfo$?FormatMessageA@CString@WTL@@QAAHIZZ 10042014     mdump.obj
 0002:0000a038       __catchsym$?_Copy@?$basic_string@DU?$char_traits@D@std@@V?$allocator@D@2@@std@@QAEXII@Z$5 10042038     mdump.obj
 0002:0000a048       __catchsym$?_Copy@?$basic_string@DU?$char_traits@D@std@@V?$allocator@D@2@@std@@QAEXII@Z$4 10042048     mdump.obj
 0002:0000a058       __unwindtable$?_Copy@?$basic_string@DU?$char_traits@D@std@@V?$allocator@D@2@@std@@QAEXII@Z 10042058     mdump.obj
 0002:0000a078       __ehfuncinfo$?_Copy@?$basic_string@DU?$char_traits@D@std@@V?$allocator@D@2@@std@@QAEXII@Z 10042078     mdump.obj
 0002:0000a09c       __tryblocktable$?_Copy@?$basic_string@DU?$char_traits@D@std@@V?$allocator@D@2@@std@@QAEXII@Z 1004209c     mdump.obj
 0002:0000a0c4       __unwindtable$??0TotalUptimeAndCrashCalculator@@QAE@PBD00@Z 100420c4     mdump.obj
 0002:0000a0d4       __ehfuncinfo$??0TotalUptimeAndCrashCalculator@@QAE@PBD00@Z 100420d4     mdump.obj
 0002:0000a0f8       __ehfuncinfo$??1TotalUptimeAndCrashCalculator@@QAE@XZ 100420f8     mdump.obj
 0002:0000a11c       __unwindtable$??1TotalUptimeAndCrashCalculator@@QAE@XZ 1004211c     mdump.obj
 0002:0000a144       __unwindtable$?capture@TotalUptimeAndCrashCalculator@@QAEX_N@Z 10042144     mdump.obj
 0002:0000a14c       __ehfuncinfo$?capture@TotalUptimeAndCrashCalculator@@QAEX_N@Z 1004214c     mdump.obj
 0002:0000a170       __ehfuncinfo$??1MiniDumper@@UAE@XZ 10042170     mdump.obj
 0002:0000a194       __unwindtable$??1MiniDumper@@UAE@XZ 10042194     mdump.obj
 0002:0000a1dc       __unwindtable$?initExceptionHandler@MiniDumper@@QAEXPBD000K@Z 100421dc     mdump.obj
 0002:0000a1ec       __ehfuncinfo$?initExceptionHandler@MiniDumper@@QAEXPBD000K@Z 100421ec     mdump.obj
 0002:0000a210       __unwindtable$?sendAdditionalFile@MiniDumper@@QAEXPBD@Z 10042210     mdump.obj
 0002:0000a218       __ehfuncinfo$?sendAdditionalFile@MiniDumper@@QAEXPBD@Z 10042218     mdump.obj
 0002:0000a23c       __unwindtable$?ExceptionHandler@MiniDumper@@SGJPAU_EXCEPTION_POINTERS@@K@Z 1004223c     mdump.obj
 0002:0000a25c       __ehfuncinfo$?ExceptionHandler@MiniDumper@@SGJPAU_EXCEPTION_POINTERS@@K@Z 1004225c     mdump.obj
 0002:0000a280       __unwindtable$?CreateReportThreaded@MiniDumper@@SGIPAX@Z 10042280     mdump.obj
 0002:0000a290       __ehfuncinfo$?CreateReportThreaded@MiniDumper@@SGIPAX@Z 10042290     mdump.obj
 0002:0000a2b4       __unwindtable$?SendReportThreaded@MiniDumper@@SGIPAX@Z 100422b4     mdump.obj
 0002:0000a2d4       __ehfuncinfo$?SendReportThreaded@MiniDumper@@SGIPAX@Z 100422d4     mdump.obj
 0002:0000a2f8       __unwindtable$?LaunchHangDetection@MiniDumper@@QAEXXZ 100422f8     mdump.obj
 0002:0000a308       __ehfuncinfo$?LaunchHangDetection@MiniDumper@@QAEXXZ 10042308     mdump.obj
 0002:0000a32c       __unwindtable$?push_back@?$vector@VCString@WTL@@V?$allocator@VCString@WTL@@@std@@@std@@QAEX$$QAVCString@WTL@@@Z 1004232c     mdump.obj
 0002:0000a33c       __ehfuncinfo$?push_back@?$vector@VCString@WTL@@V?$allocator@VCString@WTL@@@std@@@std@@QAEX$$QAVCString@WTL@@@Z 1004233c     mdump.obj
 0002:0000a360       __catchsym$?_Reallocate@?$vector@VCString@WTL@@V?$allocator@VCString@WTL@@@std@@@std@@IAEXI@Z$2 10042360     mdump.obj
 0002:0000a370       __unwindtable$?_Reallocate@?$vector@VCString@WTL@@V?$allocator@VCString@WTL@@@std@@@std@@IAEXI@Z 10042370     mdump.obj
 0002:0000a380       __tryblocktable$?_Reallocate@?$vector@VCString@WTL@@V?$allocator@VCString@WTL@@@std@@@std@@IAEXI@Z 10042380     mdump.obj
 0002:0000a394       __ehfuncinfo$?_Reallocate@?$vector@VCString@WTL@@V?$allocator@VCString@WTL@@@std@@@std@@IAEXI@Z 10042394     mdump.obj
 0002:0000a3b8       __ehfuncinfo$?WebVersionNewerThanLocal@MiniDumper@@KA_NPAUHINSTANCE__@@@Z 100423b8     mdump.obj
 0002:0000a3dc       __unwindtable$?WebVersionNewerThanLocal@MiniDumper@@KA_NPAUHINSTANCE__@@@Z 100423dc     mdump.obj
 0002:0000a41c       __unwindtable$?logOutput@@YAXIPBD_N@Z 1004241c     mdump.obj
 0002:0000a42c       __ehfuncinfo$?logOutput@@YAXIPBD_N@Z 1004242c     mdump.obj
 0002:0000a450       __unwindtable$?debugMode@@YA_NXZ 10042450     mdump.obj
 0002:0000a458       __ehfuncinfo$?debugMode@@YA_NXZ 10042458     mdump.obj
 0002:0000a47c       __unwindtable$??$construct@VCString@WTL@@V12@@?$_Wrap_alloc@V?$allocator@VCString@WTL@@@std@@@std@@QAEXPAVCString@WTL@@$$QAV23@@Z 1004247c     mdump.obj
 0002:0000a484       __ehfuncinfo$??$construct@VCString@WTL@@V12@@?$_Wrap_alloc@V?$allocator@VCString@WTL@@@std@@@std@@QAEXPAVCString@WTL@@$$QAV23@@Z 10042484     mdump.obj
 0002:0000a4a8       __unwindtable$??$construct@VCString@WTL@@V12@@?$allocator_traits@V?$allocator@VCString@WTL@@@std@@@std@@SAXAAV?$allocator@VCString@WTL@@@1@PAVCString@WTL@@$$QAV34@@Z 100424a8     mdump.obj
 0002:0000a4b0       __ehfuncinfo$??$construct@VCString@WTL@@V12@@?$allocator_traits@V?$allocator@VCString@WTL@@@std@@@std@@SAXAAV?$allocator@VCString@WTL@@@1@PAVCString@WTL@@$$QAV34@@Z 100424b0     mdump.obj
 0002:0000a4d4       __unwindtable$??$construct@VCString@WTL@@V12@@?$allocator@VCString@WTL@@@std@@QAEXPAVCString@WTL@@$$QAV23@@Z 100424d4     mdump.obj
 0002:0000a4dc       __ehfuncinfo$??$construct@VCString@WTL@@V12@@?$allocator@VCString@WTL@@@std@@QAEXPAVCString@WTL@@$$QAV23@@Z 100424dc     mdump.obj
 0002:0000a500       __catchsym$??$_Uninit_move@PAVCString@WTL@@PAV12@V?$allocator@VCString@WTL@@@std@@V12@@std@@YAPAVCString@WTL@@PAV12@00AAU?$_Wrap_alloc@V?$allocator@VCString@WTL@@@std@@@0@0U_Nonscalar_ptr_iterator_tag@0@@Z$3 10042500     mdump.obj
 0002:0000a510       __tryblocktable$??$_Uninit_move@PAVCString@WTL@@PAV12@V?$allocator@VCString@WTL@@@std@@V12@@std@@YAPAVCString@WTL@@PAV12@00AAU?$_Wrap_alloc@V?$allocator@VCString@WTL@@@std@@@0@0U_Nonscalar_ptr_iterator_tag@0@@Z 10042510     mdump.obj
 0002:0000a524       __unwindtable$??$_Uninit_move@PAVCString@WTL@@PAV12@V?$allocator@VCString@WTL@@@std@@V12@@std@@YAPAVCString@WTL@@PAV12@00AAU?$_Wrap_alloc@V?$allocator@VCString@WTL@@@std@@@0@0U_Nonscalar_ptr_iterator_tag@0@@Z 10042524     mdump.obj
 0002:0000a53c       __ehfuncinfo$??$_Uninit_move@PAVCString@WTL@@PAV12@V?$allocator@VCString@WTL@@@std@@V12@@std@@YAPAVCString@WTL@@PAV12@00AAU?$_Wrap_alloc@V?$allocator@VCString@WTL@@@std@@@0@0U_Nonscalar_ptr_iterator_tag@0@@Z 1004253c     mdump.obj
 0002:0000a560       __unwindtable$??0MiniDmpSender@@QAE@PBG000K@Z 10042560     sbSender.obj
 0002:0000a568       __ehfuncinfo$??0MiniDmpSender@@QAE@PBG000K@Z 10042568     sbSender.obj
 0002:0000a58c       __unwindtable$??0MiniDmpSender@@QAE@PBD000K@Z 1004258c     sbSender.obj
 0002:0000a594       __ehfuncinfo$??0MiniDmpSender@@QAE@PBD000K@Z 10042594     sbSender.obj
 0002:0000a5b8       __unwindtable$??0MiniDmpSender@@QAE@PB_W000K@Z 100425b8     sbSender.obj
 0002:0000a5c0       __ehfuncinfo$??0MiniDmpSender@@QAE@PB_W000K@Z 100425c0     sbSender.obj
 0002:0000a5e8       __sehtable$?_AtlVerifyStackAvailable@_ATL_SAFE_ALLOCA_IMPL@ATL@@YA_NK@Z 100425e8     sbSenderApp.obj
 0002:0000a604       __unwindtable$??1CExpansionVector@ATL@@QAE@XZ 10042604     sbSenderApp.obj
 0002:0000a60c       __ehfuncinfo$??1CExpansionVector@ATL@@QAE@XZ 1004260c     sbSenderApp.obj
 0002:0000a630       __unwindtable$?Add@CExpansionVector@ATL@@QAEHPBDPBG@Z 10042630     sbSenderApp.obj
 0002:0000a640       __ehfuncinfo$?Add@CExpansionVector@ATL@@QAEHPBDPBG@Z 10042640     sbSenderApp.obj
 0002:0000a664       __unwindtable$?PreProcessBuffer@CRegParser@ATL@@QAEJPADPAPAD@Z 10042664     sbSenderApp.obj
 0002:0000a66c       __ehfuncinfo$?PreProcessBuffer@CRegParser@ATL@@QAEJPADPAPAD@Z 1004266c     sbSenderApp.obj
 0002:0000a690       __catchsym$?AddValue@CRegParser@ATL@@IAEJAAVCRegKey@2@PBDPAD@Z$8 10042690     sbSenderApp.obj
 0002:0000a6a0       __catchsym$?AddValue@CRegParser@ATL@@IAEJAAVCRegKey@2@PBDPAD@Z$7 100426a0     sbSenderApp.obj
 0002:0000a6b0       __ehfuncinfo$?AddValue@CRegParser@ATL@@IAEJAAVCRegKey@2@PBDPAD@Z 100426b0     sbSenderApp.obj
 0002:0000a6d4       __tryblocktable$?AddValue@CRegParser@ATL@@IAEJAAVCRegKey@2@PBDPAD@Z 100426d4     sbSenderApp.obj
 0002:0000a6fc       __unwindtable$?AddValue@CRegParser@ATL@@IAEJAAVCRegKey@2@PBDPAD@Z 100426fc     sbSenderApp.obj
 0002:0000a734       __unwindtable$?RegisterSubkeys@CRegParser@ATL@@IAEJPADPAUHKEY__@@HH@Z 10042734     sbSenderApp.obj
 0002:0000a744       __ehfuncinfo$?RegisterSubkeys@CRegParser@ATL@@IAEJPADPAUHKEY__@@HH@Z 10042744     sbSenderApp.obj
 0002:0000a768       __unwindtable$?AddString@CParseBuffer@CRegParser@ATL@@QAEHPBG@Z 10042768     sbSenderApp.obj
 0002:0000a770       __ehfuncinfo$?AddString@CParseBuffer@CRegParser@ATL@@QAEHPBG@Z 10042770     sbSenderApp.obj
 0002:0000a794       __unwindtable$??1CRegObject@ATL@@UAE@XZ 10042794     sbSenderApp.obj
 0002:0000a7ac       __ehfuncinfo$??1CRegObject@ATL@@UAE@XZ 100427ac     sbSenderApp.obj
 0002:0000a7d0       __unwindtable$?AddReplacement@CRegObject@ATL@@UAGJPBG0@Z 100427d0     sbSenderApp.obj
 0002:0000a7d8       __ehfuncinfo$?AddReplacement@CRegObject@ATL@@UAGJPBG0@Z 100427d8     sbSenderApp.obj
 0002:0000a7fc       __unwindtable$?ResourceRegister@CRegObject@ATL@@QAGJPBGI0@Z 100427fc     sbSenderApp.obj
 0002:0000a804       __ehfuncinfo$?ResourceRegister@CRegObject@ATL@@QAGJPBGI0@Z 10042804     sbSenderApp.obj
 0002:0000a828       __unwindtable$?ResourceRegisterSz@CRegObject@ATL@@QAGJPBG00@Z 10042828     sbSenderApp.obj
 0002:0000a830       __ehfuncinfo$?ResourceRegisterSz@CRegObject@ATL@@QAGJPBG00@Z 10042830     sbSenderApp.obj
 0002:0000a854       __unwindtable$?ResourceUnregister@CRegObject@ATL@@QAGJPBGI0@Z 10042854     sbSenderApp.obj
 0002:0000a85c       __ehfuncinfo$?ResourceUnregister@CRegObject@ATL@@QAGJPBGI0@Z 1004285c     sbSenderApp.obj
 0002:0000a880       __unwindtable$?ResourceUnregisterSz@CRegObject@ATL@@QAGJPBG00@Z 10042880     sbSenderApp.obj
 0002:0000a888       __ehfuncinfo$?ResourceUnregisterSz@CRegObject@ATL@@QAGJPBG00@Z 10042888     sbSenderApp.obj
 0002:0000a8ac       __catchsym$?RegisterFromResource@CRegObject@ATL@@IAEJPBGPBD1H@Z$9 100428ac     sbSenderApp.obj
 0002:0000a8bc       __tryblocktable$?RegisterFromResource@CRegObject@ATL@@IAEJPBGPBD1H@Z 100428bc     sbSenderApp.obj
 0002:0000a8d0       __unwindtable$?RegisterFromResource@CRegObject@ATL@@IAEJPBGPBD1H@Z 100428d0     sbSenderApp.obj
 0002:0000a8f0       __ehfuncinfo$?RegisterFromResource@CRegObject@ATL@@IAEJPBGPBD1H@Z 100428f0     sbSenderApp.obj
 0002:0000a914       __catchsym$?Init@CAppModule@WTL@@QAEJPAU_ATL_OBJMAP_ENTRY30@ATL@@PAUHINSTANCE__@@PBU_GUID@@@Z$3 10042914     sbSenderApp.obj
 0002:0000a924       __unwindtable$?Init@CAppModule@WTL@@QAEJPAU_ATL_OBJMAP_ENTRY30@ATL@@PAUHINSTANCE__@@PBU_GUID@@@Z 10042924     sbSenderApp.obj
 0002:0000a934       __tryblocktable$?Init@CAppModule@WTL@@QAEJPAU_ATL_OBJMAP_ENTRY30@ATL@@PAUHINSTANCE__@@PBU_GUID@@@Z 10042934     sbSenderApp.obj
 0002:0000a948       __ehfuncinfo$?Init@CAppModule@WTL@@QAEJPAU_ATL_OBJMAP_ENTRY30@ATL@@PAUHINSTANCE__@@PBU_GUID@@@Z 10042948     sbSenderApp.obj
 0002:0000a9a0       __sehtable$??_M@YGXPAXIHP6EX0@Z@Z 100429a0     LIBCMT:ehvecdtr.obj
 0002:0000a9c0       __sehtable$?__ArrayUnwind@@YGXPAXIHP6EX0@Z@Z 100429c0     LIBCMT:ehvecdtr.obj
 0002:0000a9e0       __sehtable$__onexit        100429e0     LIBCMT:onexit.obj
 0002:0000aa00       __sehtable$_doexit         10042a00     LIBCMT:crt0dat.obj
 0002:0000aa70       __sehtable$_fclose         10042a70     LIBCMT:fclose.obj
 0002:0000aa90       __sehtable$__fsopen        10042a90     LIBCMT:fopen.obj
 0002:0000aab0       __sehtable$_fprintf        10042ab0     LIBCMT:fprintf.obj
 0002:0000aad0       __sehtable$_printf         10042ad0     LIBCMT:printf.obj
 0002:0000aaf0       __sehtable$__callthreadstartex 10042af0     LIBCMT:threadex.obj
 0002:0000ab10       __sehtable$_signal         10042b10     LIBCMT:winsig.obj
 0002:0000ab30       __sehtable$_raise          10042b30     LIBCMT:winsig.obj
 0002:0000ab50       __sehtable$_ctrlevent_capture@4 10042b50     LIBCMT:winsig.obj
 0002:0000ab70       __sehtable$__CRT_INIT@12   10042b70     LIBCMT:dllcrt0.obj
 0002:0000ab90       __sehtable$___DllMainCRTStartup 10042b90     LIBCMT:dllcrt0.obj
 0002:0000abb0       __sehtable$?terminate@@YAXXZ 10042bb0     LIBCMT:hooks.obj
 0002:0000abd0       __sehtable$?_inconsistency@@YAXXZ 10042bd0     LIBCMT:hooks.obj
 0002:0000abf0       __sehtable$__mtinitlocknum 10042bf0     LIBCMT:mlock.obj
 0002:0000ac10       __sehtable$__IsNonwritableInCurrentImage 10042c10     LIBCMT:pesect.obj
 0002:0000ac30       __sehtable$___updatetmbcinfo 10042c30     LIBCMT:mbctype.obj
 0002:0000ac50       __sehtable$__setmbcp       10042c50     LIBCMT:mbctype.obj
 0002:0000ac70       __sehtable$___updatetlocinfo 10042c70     LIBCMT:localref.obj
 0002:0000ac90       __sehtable$__freefls@4     10042c90     LIBCMT:tidtable.obj
 0002:0000acb8       __sehtable$__initptd       10042cb8     LIBCMT:tidtable.obj
 0002:0000ace0       __sehtable$___FrameUnwindToState 10042ce0     LIBCMT:frame.obj
 0002:0000ad08       __sehtable$?CallCatchBlock@@YAPAXPAUEHExceptionRecord@@PAUEHRegistrationNode@@PAU_CONTEXT@@PBU_s_FuncInfo@@PAXHK@Z 10042d08     LIBCMT:frame.obj
 0002:0000ad30       __sehtable$___BuildCatchObject 10042d30     LIBCMT:frame.obj
 0002:0000ad50       __sehtable$___DestructExceptionObject 10042d50     LIBCMT:frame.obj
 0002:0000ad6c       __catchsym$?CallUnexpected@@YAXPBU_s_ESTypeList@@@Z$2 10042d6c     LIBCMT:frame.obj
 0002:0000ad7c       __unwindtable$?CallUnexpected@@YAXPBU_s_ESTypeList@@@Z 10042d7c     LIBCMT:frame.obj
 0002:0000ad8c       __tryblocktable$?CallUnexpected@@YAXPBU_s_ESTypeList@@@Z 10042d8c     LIBCMT:frame.obj
 0002:0000ada0       __ehfuncinfo$?CallUnexpected@@YAXPBU_s_ESTypeList@@@Z 10042da0     LIBCMT:frame.obj
 0002:0000adc8       __sehtable$___BuildCatchObjectHelper 10042dc8     LIBCMT:frame.obj
 0002:0000ae20       __sehtable$?_Name_base@type_info@@CAPBDPBV1@PAU__type_info_node@@@Z 10042e20     LIBCMT:typname.obj
 0002:0000ae40       __sehtable$?_Type_info_dtor@type_info@@CAXPAV1@@Z 10042e40     LIBCMT:typname.obj
 0002:0000ae60       __sehtable$?_Name_base_internal@type_info@@CAPBDPBV1@PAU__type_info_node@@@Z 10042e60     LIBCMT:typname.obj
 0002:0000ae80       __sehtable$?_Type_info_dtor_internal@type_info@@CAXPAV1@@Z 10042e80     LIBCMT:typname.obj
 0002:0000aea0       __sehtable$___clean_type_info_names_internal 10042ea0     LIBCMT:typname.obj
 0002:0000aec0       __sehtable$___set_fpsr_sse2 10042ec0     LIBCMT:fpctrl.obj
 0002:0000aee0       __sehtable$__close         10042ee0     LIBCMT:close.obj
 0002:0000af00       __sehtable$_fflush         10042f00     LIBCMT:fflush.obj
 0002:0000af20       __sehtable$_flsall         10042f20     LIBCMT:fflush.obj
 0002:0000af48       __sehtable$__getstream     10042f48     LIBCMT:stream.obj
 0002:0000af68       __sehtable$_vfprintf_helper 10042f68     LIBCMT:vfprintf.obj
 0002:0000af88       __sehtable$__ioinit        10042f88     LIBCMT:ioinit.obj
 0002:0000afa8       __sehtable$_vprintf_helper 10042fa8     LIBCMT:vprintf.obj
 0002:0000afc8       __sehtable$__tzset         10042fc8     LIBCMT:tzset.obj
 0002:0000afe8       __sehtable$__isindst       10042fe8     LIBCMT:tzset.obj
 0002:0000b008       __sehtable$___tzset        10043008     LIBCMT:tzset.obj
 0002:0000b028       __sehtable$__tzset_nolock  10043028     LIBCMT:tzset.obj
 0002:0000b044       __catchsym$??2@YAPAXIABUnothrow_t@std@@@Z$2 10043044     LIBCMT:newopnt.obj
 0002:0000b054       __unwindtable$??2@YAPAXIABUnothrow_t@std@@@Z 10043054     LIBCMT:newopnt.obj
 0002:0000b064       __tryblocktable$??2@YAPAXIABUnothrow_t@std@@@Z 10043064     LIBCMT:newopnt.obj
 0002:0000b078       __ehfuncinfo$??2@YAPAXIABUnothrow_t@std@@@Z 10043078     LIBCMT:newopnt.obj
 0002:0000b0a0       __sehtable$__write         100430a0     LIBCMT:write.obj
 0002:0000b0c0       __sehtable$__lseeki64      100430c0     LIBCMT:lseeki64.obj
 0002:0000b0e0       __sehtable$___unDName      100430e0     LIBCMT:undname.obj
 0002:0000b100       __sehtable$___unDNameEx    10043100     LIBCMT:undname.obj
 0002:0000b120       __sehtable$__get_current_locale 10043120     LIBCMT:wsetloca.obj
 0002:0000b148       __sehtable$__free_locale   10043148     LIBCMT:wsetloca.obj
 0002:0000b170       __sehtable$__wsetlocale    10043170     LIBCMT:wsetloca.obj
 0002:0000b1a8       __sehtable$__locterm       100431a8     LIBCMT:wsetloca.obj
 0002:0000b1c8       __sehtable$__fcloseall     100431c8     LIBCMT:closeall.obj
 0002:0000b1e8       __sehtable$__alloc_osfhnd  100431e8     LIBCMT:osfinfo.obj
 0002:0000b210       __sehtable$___lock_fhandle 10043210     LIBCMT:osfinfo.obj
 0002:0000b230       __sehtable$__open_osfhandle 10043230     LIBCMT:osfinfo.obj
 0002:0000b250       __sehtable$__commit        10043250     LIBCMT:commit.obj
 0002:0000b270       __sehtable$__sopen_helper  10043270     LIBCMT:open.obj
 0002:0000b290       __sehtable$__open          10043290     LIBCMT:open.obj
 0002:0000b2b0       __sehtable$_getenv         100432b0     LIBCMT:getenv.obj
 0002:0000b2d0       __sehtable$_getenv_s       100432d0     LIBCMT:getenv.obj
 0002:0000b2f0       __sehtable$__dupenv_s      100432f0     LIBCMT:getenv.obj
 0002:0000b310       __sehtable$__putwch        10043310     LIBCMT:putwch.obj
 0002:0000b330       __sehtable$__wsopen_helper 10043330     LIBCMT:wopen.obj
 0002:0000b350       __sehtable$__wopen         10043350     LIBCMT:wopen.obj
 0002:0000b370       __sehtable$__chsize_s      10043370     LIBCMT:chsize.obj
 0002:0000b390       __sehtable$__read          10043390     LIBCMT:read.obj
 0002:0000b3b0       __sehtable$__setmode       100433b0     LIBCMT:setmode.obj
 0002:0000b590       .edata                     10043590     BugSplat.exp
 0002:0000b5b8       rgpv                       100435b8     BugSplat.exp
 0002:0000b694       rgszName                   10043694     BugSplat.exp
 0002:0000b770       rgwOrd                     10043770     BugSplat.exp
 0002:0000b7de       szName                     100437de     BugSplat.exp
 0002:0000b7eb       $N00001                    100437eb     BugSplat.exp
 0002:0000b802       $N00002                    10043802     BugSplat.exp
 0002:0000b820       $N00003                    10043820     BugSplat.exp
 0002:0000b840       $N00004                    10043840     BugSplat.exp
 0002:0000b860       $N00005                    10043860     BugSplat.exp
 0002:0000b881       $N00006                    10043881     BugSplat.exp
 0002:0000b89a       $N00007                    1004389a     BugSplat.exp
 0002:0000b8ba       $N00008                    100438ba     BugSplat.exp
 0002:0000b8dc       $N00009                    100438dc     BugSplat.exp
 0002:0000b8f3       $N00010                    100438f3     BugSplat.exp
 0002:0000b94b       $N00011                    1004394b     BugSplat.exp
 0002:0000b977       $N00012                    10043977     BugSplat.exp
 0002:0000b99f       $N00013                    1004399f     BugSplat.exp
 0002:0000b9cf       $N00014                    100439cf     BugSplat.exp
 0002:0000b9f9       $N00015                    100439f9     BugSplat.exp
 0002:0000ba25       $N00016                    10043a25     BugSplat.exp
 0002:0000ba58       $N00017                    10043a58     BugSplat.exp
 0002:0000ba8c       $N00018                    10043a8c     BugSplat.exp
 0002:0000bac8       $N00019                    10043ac8     BugSplat.exp
 0002:0000baef       $N00020                    10043aef     BugSplat.exp
 0002:0000bb17       $N00021                    10043b17     BugSplat.exp
 0002:0000bb3b       $N00022                    10043b3b     BugSplat.exp
 0002:0000bb66       $N00023                    10043b66     BugSplat.exp
 0002:0000bb96       $N00024                    10043b96     BugSplat.exp
 0002:0000bbcc       $N00025                    10043bcc     BugSplat.exp
 0002:0000bbec       $N00026                    10043bec     BugSplat.exp
 0002:0000bc09       $N00027                    10043c09     BugSplat.exp
 0002:0000bc3a       $N00028                    10043c3a     BugSplat.exp
 0002:0000bc71       $N00029                    10043c71     BugSplat.exp
